---
triple:          'arm64-apple-darwin'
binary-path:     '/Users/diegodavidmarrerozilenziger/C++ Projects/Intensive Programming/Lectures/Lecture 4/Lecture-4---Testing-CI/test'
relocations:
  - { offsetInCU: 0x1D3, offset: 0x1D3, size: 0x8, addend: 0x0, symName: __ZN5Catch12_GLOBAL__N_142catch_internal_RegistrarForCompactReporterE, symObjAddr: 0x6B8EC0, symBinAddr: 0x1001142C0, symSize: 0x0 }
  - { offsetInCU: 0x1ED, offset: 0x1ED, size: 0x8, addend: 0x0, symName: __ZN5Catch12_GLOBAL__N_142catch_internal_RegistrarForConsoleReporterE, symObjAddr: 0x6B8EC1, symBinAddr: 0x1001142C1, symSize: 0x0 }
  - { offsetInCU: 0x26E, offset: 0x26E, size: 0x8, addend: 0x0, symName: __ZN5Catch12_GLOBAL__N_140catch_internal_RegistrarForJunitReporterE, symObjAddr: 0x6B8EC2, symBinAddr: 0x1001142C2, symSize: 0x0 }
  - { offsetInCU: 0x288, offset: 0x288, size: 0x8, addend: 0x0, symName: __ZN5Catch12_GLOBAL__N_138catch_internal_RegistrarForXmlReporterE, symObjAddr: 0x6B8EC3, symBinAddr: 0x1001142C3, symSize: 0x0 }
  - { offsetInCU: 0x35E, offset: 0x35E, size: 0x8, addend: 0x0, symName: __ZN5Catch12_GLOBAL__N_113getSingletonsEv, symObjAddr: 0x17D48, symBinAddr: 0x10001AE38, symSize: 0x58 }
  - { offsetInCU: 0x389, offset: 0x389, size: 0x8, addend: 0x0, symName: __ZZN5Catch12_GLOBAL__N_113getSingletonsEvE12g_singletons, symObjAddr: 0x6B8EE8, symBinAddr: 0x1001142E8, symSize: 0x0 }
  - { offsetInCU: 0x393, offset: 0x393, size: 0x8, addend: 0x0, symName: __ZN5Catch12_GLOBAL__N_123estimateClockResolutionEv, symObjAddr: 0x20834, symBinAddr: 0x100023924, symSize: 0x104 }
  - { offsetInCU: 0x3BE, offset: 0x3BE, size: 0x8, addend: 0x0, symName: __ZZN5Catch12_GLOBAL__N_123estimateClockResolutionEvE10iterations, symObjAddr: 0xFA858, symBinAddr: 0x1000FE780, symSize: 0x0 }
  - { offsetInCU: 0x657, offset: 0x657, size: 0x8, addend: 0x0, symName: __ZN5Catch12_GLOBAL__N_1lsERNSt3__113basic_ostreamIcNS1_11char_traitsIcEEEERKNS_20ITransientExpressionE, symObjAddr: 0xC30, symBinAddr: 0x100003D20, symSize: 0x38 }
  - { offsetInCU: 0x694, offset: 0x694, size: 0x8, addend: 0x0, symName: __ZN5Catch12_GLOBAL__N_122platformColourInstanceEv, symObjAddr: 0x6BFC, symBinAddr: 0x100009CEC, symSize: 0x178 }
  - { offsetInCU: 0x6E0, offset: 0x6E0, size: 0x8, addend: 0x0, symName: __ZN5Catch12_GLOBAL__N_115almostEqualUlpsIfEEbT_S2_y, symObjAddr: 0xDD8C, symBinAddr: 0x100010E7C, symSize: 0x104 }
  - { offsetInCU: 0x762, offset: 0x762, size: 0x8, addend: 0x0, symName: __ZN5Catch12_GLOBAL__N_115almostEqualUlpsIdEEbT_S2_y, symObjAddr: 0xDE90, symBinAddr: 0x100010F80, symSize: 0x104 }
  - { offsetInCU: 0x7E4, offset: 0x7E4, size: 0x8, addend: 0x0, symName: __ZN5Catch12_GLOBAL__N_15writeIfEEvRNSt3__113basic_ostreamIcNS2_11char_traitsIcEEEET_, symObjAddr: 0xE3DC, symBinAddr: 0x1000114CC, symSize: 0x58 }
  - { offsetInCU: 0x826, offset: 0x826, size: 0x8, addend: 0x0, symName: __ZN5Catch12_GLOBAL__N_15writeIdEEvRNSt3__113basic_ostreamIcNS2_11char_traitsIcEEEET_, symObjAddr: 0xE434, symBinAddr: 0x100011524, symSize: 0x58 }
  - { offsetInCU: 0x868, offset: 0x868, size: 0x8, addend: 0x0, symName: __ZN5Catch12_GLOBAL__N_14stepIdEET_S2_S2_y, symObjAddr: 0xE48C, symBinAddr: 0x10001157C, symSize: 0x6C }
  - { offsetInCU: 0x8DA, offset: 0x8DA, size: 0x8, addend: 0x0, symName: __ZN5Catch12_GLOBAL__N_14stepIfEET_S2_S2_y, symObjAddr: 0xE4F8, symBinAddr: 0x1000115E8, symSize: 0x6C }
  - { offsetInCU: 0x94C, offset: 0x94C, size: 0x8, addend: 0x0, symName: __ZN5Catch12_GLOBAL__N_116marginComparisonEddd, symObjAddr: 0xE900, symBinAddr: 0x1000119F0, symSize: 0x68 }
  - { offsetInCU: 0x998, offset: 0x998, size: 0x8, addend: 0x0, symName: __ZN5Catch12_GLOBAL__N_112rotate_rightEjj, symObjAddr: 0x11844, symBinAddr: 0x100014934, symSize: 0x50 }
  - { offsetInCU: 0x9E4, offset: 0x9E4, size: 0x8, addend: 0x0, symName: __ZN5Catch12_GLOBAL__N_120applyFilenamesAsTagsERKNS_7IConfigE, symObjAddr: 0x176C0, symBinAddr: 0x10001A7B0, symSize: 0x1FC }
  - { offsetInCU: 0xB25, offset: 0xB25, size: 0x8, addend: 0x0, symName: __ZN5Catch12_GLOBAL__N_19toLowerChEc, symObjAddr: 0x18A9C, symBinAddr: 0x10001BB8C, symSize: 0x28 }
  - { offsetInCU: 0xB53, offset: 0xB53, size: 0x8, addend: 0x0, symName: __ZN5Catch12_GLOBAL__N_115parseSpecialTagERKNSt3__112basic_stringIcNS1_11char_traitsIcEENS1_9allocatorIcEEEE, symObjAddr: 0x1A2A4, symBinAddr: 0x10001D394, symSize: 0x114 }
  - { offsetInCU: 0xB81, offset: 0xB81, size: 0x8, addend: 0x0, symName: __ZN5Catch12_GLOBAL__N_121enforceNotReservedTagERKNSt3__112basic_stringIcNS1_11char_traitsIcEENS1_9allocatorIcEEEERKNS_14SourceLineInfoE, symObjAddr: 0x1A3B8, symBinAddr: 0x10001D4A8, symSize: 0x110 }
  - { offsetInCU: 0xC0D, offset: 0xC0D, size: 0x8, addend: 0x0, symName: __ZN5Catch12_GLOBAL__N_113hexEscapeCharERNSt3__113basic_ostreamIcNS1_11char_traitsIcEEEEh, symObjAddr: 0x22B18, symBinAddr: 0x100025C08, symSize: 0xC0 }
  - { offsetInCU: 0xC55, offset: 0xC55, size: 0x8, addend: 0x0, symName: __ZN5Catch12_GLOBAL__N_113trailingBytesEh, symObjAddr: 0x22BD8, symBinAddr: 0x100025CC8, symSize: 0x150 }
  - { offsetInCU: 0xC83, offset: 0xC83, size: 0x8, addend: 0x0, symName: __ZN5Catch12_GLOBAL__N_111headerValueEh, symObjAddr: 0x22D28, symBinAddr: 0x100025E18, symSize: 0x15C }
  - { offsetInCU: 0xCB1, offset: 0xCB1, size: 0x8, addend: 0x0, symName: __ZN5Catch12_GLOBAL__N_112shouldIndentENS_13XmlFormattingE, symObjAddr: 0x23620, symBinAddr: 0x100026710, symSize: 0x34 }
  - { offsetInCU: 0xCDF, offset: 0xCDF, size: 0x8, addend: 0x0, symName: __ZN5Catch12_GLOBAL__N_113shouldNewlineENS_13XmlFormattingE, symObjAddr: 0x23A54, symBinAddr: 0x100026B44, symSize: 0x34 }
  - { offsetInCU: 0xE6A, offset: 0xE6A, size: 0x8, addend: 0x0, symName: __ZN5Catch12_GLOBAL__N_111printTotalsERNSt3__113basic_ostreamIcNS1_11char_traitsIcEEEERKNS_6TotalsE, symObjAddr: 0x24B60, symBinAddr: 0x100027C50, symSize: 0x7A8 }
  - { offsetInCU: 0x103A, offset: 0x103A, size: 0x8, addend: 0x0, symName: __ZN5Catch12_GLOBAL__N_19makeRatioEmm, symObjAddr: 0x28634, symBinAddr: 0x10002B724, symSize: 0x9C }
  - { offsetInCU: 0x1086, offset: 0x1086, size: 0x8, addend: 0x0, symName: __ZN5Catch12_GLOBAL__N_17findMaxERmS1_S1_, symObjAddr: 0x286D0, symBinAddr: 0x10002B7C0, symSize: 0xA0 }
  - { offsetInCU: 0x10D2, offset: 0x10D2, size: 0x8, addend: 0x0, symName: __ZN5Catch12_GLOBAL__N_114formatDurationEd, symObjAddr: 0x2A004, symBinAddr: 0x10002D0F4, symSize: 0xBC }
  - { offsetInCU: 0x110F, offset: 0x110F, size: 0x8, addend: 0x0, symName: __ZN5Catch12_GLOBAL__N_119getCurrentTimestampEv, symObjAddr: 0x2A0C0, symBinAddr: 0x10002D1B0, symSize: 0xAC }
  - { offsetInCU: 0x1179, offset: 0x1179, size: 0x8, addend: 0x0, symName: __ZN5Catch12_GLOBAL__N_111fileNameTagERKNSt3__16vectorINS1_12basic_stringIcNS1_11char_traitsIcEENS1_9allocatorIcEEEENS6_IS8_EEEE, symObjAddr: 0x2A640, symBinAddr: 0x10002D730, symSize: 0xA0 }
  - { offsetInCU: 0x11D5, offset: 0x11D5, size: 0x8, addend: 0x0, symName: __ZN5Catch12_GLOBAL__N_119useColourOnPlatformEv, symObjAddr: 0x3F8B4, symBinAddr: 0x1000429A4, symSize: 0x4C }
  - { offsetInCU: 0x11F3, offset: 0x11F3, size: 0x8, addend: 0x0, symName: __ZN5Catch12_GLOBAL__N_112makeReporterERKNSt3__110shared_ptrINS_6ConfigEEE, symObjAddr: 0x56AF0, symBinAddr: 0x100059BE0, symSize: 0x330 }
  - { offsetInCU: 0x1294, offset: 0x1294, size: 0x8, addend: 0x0, symName: __ZN5Catch12_GLOBAL__N_114createReporterERKNSt3__112basic_stringIcNS1_11char_traitsIcEENS1_9allocatorIcEEEERKNS1_10shared_ptrIKNS_7IConfigEEE, symObjAddr: 0x57160, symBinAddr: 0x10005A250, symSize: 0x16C }
  - { offsetInCU: 0x12E1, offset: 0x12E1, size: 0x8, addend: 0x0, symName: __ZN5Catch12_GLOBAL__N_113isReservedTagERKNSt3__112basic_stringIcNS1_11char_traitsIcEENS1_9allocatorIcEEEE, symObjAddr: 0x5DAD0, symBinAddr: 0x100060BC0, symSize: 0x88 }
  - { offsetInCU: 0x130F, offset: 0x130F, size: 0x8, addend: 0x0, symName: __ZN5Catch12_GLOBAL__N_17convertEf, symObjAddr: 0x8891C, symBinAddr: 0x10008BA0C, symSize: 0x1C }
  - { offsetInCU: 0x134C, offset: 0x134C, size: 0x8, addend: 0x0, symName: __ZN5Catch12_GLOBAL__N_17convertEd, symObjAddr: 0x88950, symBinAddr: 0x10008BA40, symSize: 0x1C }
  - { offsetInCU: 0x1389, offset: 0x1389, size: 0x8, addend: 0x0, symName: __ZN5Catch12_GLOBAL__N_19nextafterEdd, symObjAddr: 0x88A94, symBinAddr: 0x10008BB84, symSize: 0x2C }
  - { offsetInCU: 0x13C6, offset: 0x13C6, size: 0x8, addend: 0x0, symName: __ZN5Catch12_GLOBAL__N_19nextafterEff, symObjAddr: 0x88AC0, symBinAddr: 0x10008BBB0, symSize: 0x2C }
  - { offsetInCU: 0x1414, offset: 0x1414, size: 0x8, addend: 0x0, symName: __ZN5Catch15IMutableContext14currentContextE, symObjAddr: 0x6B8EF8, symBinAddr: 0x1001142F8, symSize: 0x0 }
  - { offsetInCU: 0x1CDC, offset: 0x1CDC, size: 0x8, addend: 0x0, symName: __ZN5Catch10Generators23acquireGeneratorTrackerENS_9StringRefERKNS_14SourceLineInfoE, symObjAddr: 0x93E8, symBinAddr: 0x10000C4D8, symSize: 0x48 }
  - { offsetInCU: 0x37E4, offset: 0x37E4, size: 0x8, addend: 0x0, symName: __ZN5Catch3rngEv, symObjAddr: 0x7010, symBinAddr: 0x10000A100, symSize: 0xA0 }
  - { offsetInCU: 0x380F, offset: 0x380F, size: 0x8, addend: 0x0, symName: __ZZN5Catch3rngEvE5s_rng, symObjAddr: 0x6B8DE8, symBinAddr: 0x1001141E8, symSize: 0x0 }
  - { offsetInCU: 0x38E5, offset: 0x38E5, size: 0x8, addend: 0x0, symName: __ZN5Catch11MessageInfo11globalCountE, symObjAddr: 0x6B8F00, symBinAddr: 0x100114300, symSize: 0x0 }
  - { offsetInCU: 0x5CDD, offset: 0x5CDD, size: 0x8, addend: 0x0, symName: __ZN5Catch5clara6detaillsERNSt3__113basic_ostreamIcNS2_11char_traitsIcEEEERKNS1_6ParserE, symObjAddr: 0x167F0, symBinAddr: 0x1000198E0, symSize: 0x30 }
  - { offsetInCU: 0x5D1A, offset: 0x5D1A, size: 0x8, addend: 0x0, symName: __ZN5Catch5clara6detail11convertIntoERKNSt3__112basic_stringIcNS2_11char_traitsIcEENS2_9allocatorIcEEEERS8_, symObjAddr: 0x356EC, symBinAddr: 0x1000387DC, symSize: 0x44 }
  - { offsetInCU: 0x5F00, offset: 0x5F00, size: 0x8, addend: 0x0, symName: __ZN5Catch5clara6detail12normaliseOptERKNSt3__112basic_stringIcNS2_11char_traitsIcEENS2_9allocatorIcEEEE, symObjAddr: 0x381F8, symBinAddr: 0x10003B2E8, symSize: 0x38 }
  - { offsetInCU: 0x5F2E, offset: 0x5F2E, size: 0x8, addend: 0x0, symName: __ZN5Catch5clara6detail11isOptPrefixEc, symObjAddr: 0x390E8, symBinAddr: 0x10003C1D8, symSize: 0x20 }
  - { offsetInCU: 0x5F5C, offset: 0x5F5C, size: 0x8, addend: 0x0, symName: '__ZN5Catch5clara6detail12invokeLambdaINSt3__112basic_stringIcNS3_11char_traitsIcEENS3_9allocatorIcEEEEZNS_21makeCommandLineParserERNS_10ConfigDataEE3$_1EENS1_11BasicResultINS1_15ParseResultTypeEEERKT0_RKS9_', symObjAddr: 0x6DC50, symBinAddr: 0x100070D40, symSize: 0xD0 }
  - { offsetInCU: 0x6060, offset: 0x6060, size: 0x8, addend: 0x0, symName: '__ZN5Catch5clara6detail12invokeLambdaIiZNS_21makeCommandLineParserERNS_10ConfigDataEE3$_3EENS1_11BasicResultINS1_15ParseResultTypeEEERKT0_RKNSt3__112basic_stringIcNSC_11char_traitsIcEENSC_9allocatorIcEEEE', symObjAddr: 0x6FADC, symBinAddr: 0x100072BCC, symSize: 0xA4 }
  - { offsetInCU: 0x60CD, offset: 0x60CD, size: 0x8, addend: 0x0, symName: __ZN5Catch5clara6detail11convertIntoIiEENS1_11BasicResultINS1_15ParseResultTypeEEERKNSt3__112basic_stringIcNS6_11char_traitsIcEENS6_9allocatorIcEEEERT_, symObjAddr: 0x6FB80, symBinAddr: 0x100072C70, symSize: 0x164 }
  - { offsetInCU: 0x6123, offset: 0x6123, size: 0x8, addend: 0x0, symName: '__ZN5Catch5clara6detail12invokeLambdaINSt3__112basic_stringIcNS3_11char_traitsIcEENS3_9allocatorIcEEEEZNS_21makeCommandLineParserERNS_10ConfigDataEE3$_4EENS1_11BasicResultINS1_15ParseResultTypeEEERKT0_RKS9_', symObjAddr: 0x709E4, symBinAddr: 0x100073AD4, symSize: 0xD0 }
  - { offsetInCU: 0x6190, offset: 0x6190, size: 0x8, addend: 0x0, symName: '__ZN5Catch5clara6detail12invokeLambdaIbZNS_21makeCommandLineParserERNS_10ConfigDataEE3$_5EENS1_11BasicResultINS1_15ParseResultTypeEEERKT0_RKNSt3__112basic_stringIcNSC_11char_traitsIcEENSC_9allocatorIcEEEE', symObjAddr: 0x71910, symBinAddr: 0x100074A00, symSize: 0xA4 }
  - { offsetInCU: 0x61FD, offset: 0x61FD, size: 0x8, addend: 0x0, symName: __ZN5Catch5clara6detail11convertIntoERKNSt3__112basic_stringIcNS2_11char_traitsIcEENS2_9allocatorIcEEEERb, symObjAddr: 0x719B4, symBinAddr: 0x100074AA4, symSize: 0x270 }
  - { offsetInCU: 0x6268, offset: 0x6268, size: 0x8, addend: 0x0, symName: __ZN5Catch5clara6detail11convertIntoIdEENS1_11BasicResultINS1_15ParseResultTypeEEERKNSt3__112basic_stringIcNS6_11char_traitsIcEENS6_9allocatorIcEEEERT_, symObjAddr: 0x72AA8, symBinAddr: 0x100075B98, symSize: 0x164 }
  - { offsetInCU: 0x62BE, offset: 0x62BE, size: 0x8, addend: 0x0, symName: '__ZN5Catch5clara6detail12invokeLambdaINSt3__112basic_stringIcNS3_11char_traitsIcEENS3_9allocatorIcEEEEZNS_21makeCommandLineParserERNS_10ConfigDataEE3$_6EENS1_11BasicResultINS1_15ParseResultTypeEEERKT0_RKS9_', symObjAddr: 0x738A0, symBinAddr: 0x100076990, symSize: 0xD0 }
  - { offsetInCU: 0x632B, offset: 0x632B, size: 0x8, addend: 0x0, symName: '__ZN5Catch5clara6detail12invokeLambdaINSt3__112basic_stringIcNS3_11char_traitsIcEENS3_9allocatorIcEEEEZNS_21makeCommandLineParserERNS_10ConfigDataEE3$_7EENS1_11BasicResultINS1_15ParseResultTypeEEERKT0_RKS9_', symObjAddr: 0x75844, symBinAddr: 0x100078934, symSize: 0xD0 }
  - { offsetInCU: 0x6398, offset: 0x6398, size: 0x8, addend: 0x0, symName: '__ZN5Catch5clara6detail12invokeLambdaINSt3__112basic_stringIcNS3_11char_traitsIcEENS3_9allocatorIcEEEEZNS_21makeCommandLineParserERNS_10ConfigDataEE3$_8EENS1_11BasicResultINS1_15ParseResultTypeEEERKT0_RKS9_', symObjAddr: 0x76780, symBinAddr: 0x100079870, symSize: 0xD0 }
  - { offsetInCU: 0x6405, offset: 0x6405, size: 0x8, addend: 0x0, symName: '__ZN5Catch5clara6detail12invokeLambdaINSt3__112basic_stringIcNS3_11char_traitsIcEENS3_9allocatorIcEEEEZNS_21makeCommandLineParserERNS_10ConfigDataEE3$_9EENS1_11BasicResultINS1_15ParseResultTypeEEERKT0_RKS9_', symObjAddr: 0x77750, symBinAddr: 0x10007A840, symSize: 0xD0 }
  - { offsetInCU: 0x6472, offset: 0x6472, size: 0x8, addend: 0x0, symName: __ZN5Catch5clara6detail11convertIntoIjEENS1_11BasicResultINS1_15ParseResultTypeEEERKNSt3__112basic_stringIcNS6_11char_traitsIcEENS6_9allocatorIcEEEERT_, symObjAddr: 0x778E4, symBinAddr: 0x10007A9D4, symSize: 0x164 }
  - { offsetInCU: 0x64C8, offset: 0x64C8, size: 0x8, addend: 0x0, symName: '__ZN5Catch5clara6detail12invokeLambdaINSt3__112basic_stringIcNS3_11char_traitsIcEENS3_9allocatorIcEEEEZNS_21makeCommandLineParserERNS_10ConfigDataEE4$_10EENS1_11BasicResultINS1_15ParseResultTypeEEERKT0_RKS9_', symObjAddr: 0x786DC, symBinAddr: 0x10007B7CC, symSize: 0xD0 }
  - { offsetInCU: 0x6535, offset: 0x6535, size: 0x8, addend: 0x0, symName: '__ZN5Catch5clara6detail12invokeLambdaINSt3__112basic_stringIcNS3_11char_traitsIcEENS3_9allocatorIcEEEEZNS_21makeCommandLineParserERNS_10ConfigDataEE4$_11EENS1_11BasicResultINS1_15ParseResultTypeEEERKT0_RKS9_', symObjAddr: 0x79618, symBinAddr: 0x10007C708, symSize: 0xD0 }
  - { offsetInCU: 0x65A2, offset: 0x65A2, size: 0x8, addend: 0x0, symName: __ZN5Catch5clara6detail11convertIntoIxEENS1_11BasicResultINS1_15ParseResultTypeEEERKNSt3__112basic_stringIcNS6_11char_traitsIcEENS6_9allocatorIcEEEERT_, symObjAddr: 0x7B210, symBinAddr: 0x10007E300, symSize: 0x164 }
  - { offsetInCU: 0x65FE, offset: 0x65FE, size: 0x8, addend: 0x0, symName: __ZN5Catch5clara8TextFlow17isBreakableBeforeEc, symObjAddr: 0x412F8, symBinAddr: 0x1000443E8, symSize: 0xDC }
  - { offsetInCU: 0x6629, offset: 0x6629, size: 0x8, addend: 0x0, symName: __ZZN5Catch5clara8TextFlow17isBreakableBeforeEcE5chars, symObjAddr: 0x100A10, symBinAddr: 0x100114080, symSize: 0x0 }
  - { offsetInCU: 0x6642, offset: 0x6642, size: 0x8, addend: 0x0, symName: __ZN5Catch5clara8TextFlow16isBreakableAfterEc, symObjAddr: 0x413D4, symBinAddr: 0x1000444C4, symSize: 0xDC }
  - { offsetInCU: 0x666D, offset: 0x666D, size: 0x8, addend: 0x0, symName: __ZZN5Catch5clara8TextFlow16isBreakableAfterEcE5chars, symObjAddr: 0x100A30, symBinAddr: 0x1001140A0, symSize: 0x0 }
  - { offsetInCU: 0x6686, offset: 0x6686, size: 0x8, addend: 0x0, symName: __ZN5Catch5clara8TextFlow12isWhitespaceEc, symObjAddr: 0x4121C, symBinAddr: 0x10004430C, symSize: 0xDC }
  - { offsetInCU: 0x66B1, offset: 0x66B1, size: 0x8, addend: 0x0, symName: __ZZN5Catch5clara8TextFlow12isWhitespaceEcE5chars, symObjAddr: 0x100A50, symBinAddr: 0x1001140C0, symSize: 0x0 }
  - { offsetInCU: 0x6B7A, offset: 0x6B7A, size: 0x8, addend: 0x0, symName: __ZN5Catch5clara8TextFlowlsERNSt3__113basic_ostreamIcNS2_11char_traitsIcEEEERKNS1_6ColumnE, symObjAddr: 0xAFB8, symBinAddr: 0x10000E0A8, symSize: 0xFC }
  - { offsetInCU: 0x6C06, offset: 0x6C06, size: 0x8, addend: 0x0, symName: __ZN5Catch5clara8TextFlowlsERNSt3__113basic_ostreamIcNS2_11char_traitsIcEEEERKNS1_7ColumnsE, symObjAddr: 0xCA84, symBinAddr: 0x10000FB74, symSize: 0x148 }
  - { offsetInCU: 0x73A1, offset: 0x73A1, size: 0x8, addend: 0x0, symName: __ZN5Catch4trimERKNSt3__112basic_stringIcNS0_11char_traitsIcEENS0_9allocatorIcEEEE, symObjAddr: 0x5F10, symBinAddr: 0x100009000, symSize: 0x9C }
  - { offsetInCU: 0x73CC, offset: 0x73CC, size: 0x8, addend: 0x0, symName: __ZZN5Catch4trimERKNSt3__112basic_stringIcNS0_11char_traitsIcEENS0_9allocatorIcEEEEE15whitespaceChars, symObjAddr: 0x1009F0, symBinAddr: 0x100114060, symSize: 0x0 }
  - { offsetInCU: 0x7403, offset: 0x7403, size: 0x8, addend: 0x0, symName: __ZN5Catch27getEstimatedClockResolutionEv, symObjAddr: 0x2078C, symBinAddr: 0x10002387C, symSize: 0xA8 }
  - { offsetInCU: 0x742E, offset: 0x742E, size: 0x8, addend: 0x0, symName: __ZZN5Catch27getEstimatedClockResolutionEvE12s_resolution, symObjAddr: 0x6B8E88, symBinAddr: 0x100114288, symSize: 0x0 }
  - { offsetInCU: 0x744A, offset: 0x744A, size: 0x8, addend: 0x0, symName: __ZN5Catch6Detail17unprintableStringE, symObjAddr: 0x6B8F08, symBinAddr: 0x100114308, symSize: 0x0 }
  - { offsetInCU: 0x749B, offset: 0x749B, size: 0x8, addend: 0x0, symName: __ZN5Catch6Detail12_GLOBAL__N_119extractInstanceNameENS_9StringRefE, symObjAddr: 0x7D98, symBinAddr: 0x10000AE88, symSize: 0xCC }
  - { offsetInCU: 0x78F1, offset: 0x78F1, size: 0x8, addend: 0x0, symName: __ZN5Catch6Detail9stringifyIdEENSt3__112basic_stringIcNS2_11char_traitsIcEENS2_9allocatorIcEEEERKT_, symObjAddr: 0x2E0, symBinAddr: 0x1000033D0, symSize: 0x30 }
  - { offsetInCU: 0x7928, offset: 0x7928, size: 0x8, addend: 0x0, symName: __ZN5Catch6Detail10parseEnumsENS_9StringRefE, symObjAddr: 0x76A8, symBinAddr: 0x10000A798, symSize: 0x194 }
  - { offsetInCU: 0x79C8, offset: 0x79C8, size: 0x8, addend: 0x0, symName: __ZN5Catch6Detail12makeEnumInfoENS_9StringRefES1_RKNSt3__16vectorIiNS2_9allocatorIiEEEE, symObjAddr: 0x8104, symBinAddr: 0x10000B1F4, symSize: 0x22C }
  - { offsetInCU: 0x7A96, offset: 0x7A96, size: 0x8, addend: 0x0, symName: __ZN5Catch6Detail9stringifyINS_14SourceLineInfoEEENSt3__112basic_stringIcNS3_11char_traitsIcEENS3_9allocatorIcEEEERKT_, symObjAddr: 0xB154, symBinAddr: 0x10000E244, symSize: 0x2C }
  - { offsetInCU: 0x7ACD, offset: 0x7ACD, size: 0x8, addend: 0x0, symName: __ZN5Catch6Detail9stringifyINSt3__112basic_stringIcNS2_11char_traitsIcEENS2_9allocatorIcEEEEEES8_RKT_, symObjAddr: 0xFEBC, symBinAddr: 0x100012FAC, symSize: 0x2C }
  - { offsetInCU: 0x7B04, offset: 0x7B04, size: 0x8, addend: 0x0, symName: __ZN5Catch6Detail17rawMemoryToStringEPKvm, symObjAddr: 0x209C8, symBinAddr: 0x100023AB8, symSize: 0x190 }
  - { offsetInCU: 0x7B8D, offset: 0x7B8D, size: 0x8, addend: 0x0, symName: __ZN5Catch6Detail9stringifyINSt3__112basic_stringIwNS2_11char_traitsIwEENS2_9allocatorIwEEEEEENS3_IcNS4_IcEENS6_IcEEEERKT_, symObjAddr: 0x21438, symBinAddr: 0x100024528, symSize: 0x2C }
  - { offsetInCU: 0x7BC4, offset: 0x7BC4, size: 0x8, addend: 0x0, symName: __ZN5Catch6Detail9stringifyIxEENSt3__112basic_stringIcNS2_11char_traitsIcEENS2_9allocatorIcEEEERKT_, symObjAddr: 0x21564, symBinAddr: 0x100024654, symSize: 0x30 }
  - { offsetInCU: 0x7BFB, offset: 0x7BFB, size: 0x8, addend: 0x0, symName: __ZN5Catch6Detail9stringifyIyEENSt3__112basic_stringIcNS2_11char_traitsIcEENS2_9allocatorIcEEEERKT_, symObjAddr: 0x2172C, symBinAddr: 0x10002481C, symSize: 0x30 }
  - { offsetInCU: 0x7C32, offset: 0x7C32, size: 0x8, addend: 0x0, symName: __ZN5Catch6Detail9stringifyIjEENSt3__112basic_stringIcNS2_11char_traitsIcEENS2_9allocatorIcEEEERKT_, symObjAddr: 0x21A4C, symBinAddr: 0x100024B3C, symSize: 0x30 }
  - { offsetInCU: 0x7C69, offset: 0x7C69, size: 0x8, addend: 0x0, symName: __ZN5Catch6Detail9stringifyIaEENSt3__112basic_stringIcNS2_11char_traitsIcEENS2_9allocatorIcEEEERKT_, symObjAddr: 0x21AB0, symBinAddr: 0x100024BA0, symSize: 0x30 }
  - { offsetInCU: 0x7CA0, offset: 0x7CA0, size: 0x8, addend: 0x0, symName: __ZN5Catch6Detail9stringifyIcEENSt3__112basic_stringIcNS2_11char_traitsIcEENS2_9allocatorIcEEEERKT_, symObjAddr: 0x21B14, symBinAddr: 0x100024C04, symSize: 0x30 }
  - { offsetInCU: 0x7CD7, offset: 0x7CD7, size: 0x8, addend: 0x0, symName: __ZN5Catch6Detail9stringifyIiEENSt3__112basic_stringIcNS2_11char_traitsIcEENS2_9allocatorIcEEEERKT_, symObjAddr: 0x67E40, symBinAddr: 0x10006AF30, symSize: 0x30 }
  - { offsetInCU: 0x7D15, offset: 0x7D15, size: 0x8, addend: 0x0, symName: __ZN5Catch11StringMakerIfvE9precisionE, symObjAddr: 0x1009F8, symBinAddr: 0x100114068, symSize: 0x0 }
  - { offsetInCU: 0x7D5F, offset: 0x7D5F, size: 0x8, addend: 0x0, symName: __ZN5Catch11StringMakerIdvE9precisionE, symObjAddr: 0x1009FC, symBinAddr: 0x10011406C, symSize: 0x0 }
  - { offsetInCU: 0x7DA3, offset: 0x7DA3, size: 0x8, addend: 0x0, symName: __ZN5Catch14libraryVersionEv, symObjAddr: 0x168CC, symBinAddr: 0x1000199BC, symSize: 0x88 }
  - { offsetInCU: 0x7DCE, offset: 0x7DCE, size: 0x8, addend: 0x0, symName: __ZZN5Catch14libraryVersionEvE7version, symObjAddr: 0x6B8E98, symBinAddr: 0x100114298, symSize: 0x0 }
  - { offsetInCU: 0xAAE1, offset: 0xAAE1, size: 0x8, addend: 0x0, symName: __ZN5Catch12leakDetectorE, symObjAddr: 0x6B8F20, symBinAddr: 0x100114320, symSize: 0x0 }
  - { offsetInCU: 0xABAC, offset: 0xABAC, size: 0x8, addend: 0x0, symName: __ZN5CatchL11altStackMemE, symObjAddr: 0x6B8DF8, symBinAddr: 0x1001141F8, symSize: 0x0 }
  - { offsetInCU: 0xABC6, offset: 0xABC6, size: 0x8, addend: 0x0, symName: __ZN5CatchL12altStackSizeE, symObjAddr: 0x6B8E00, symBinAddr: 0x100114200, symSize: 0x0 }
  - { offsetInCU: 0xABE0, offset: 0xABE0, size: 0x8, addend: 0x0, symName: __ZN5CatchL11oldSigStackE, symObjAddr: 0x6B8E08, symBinAddr: 0x100114208, symSize: 0x0 }
  - { offsetInCU: 0xABFA, offset: 0xABFA, size: 0x8, addend: 0x0, symName: __ZN5CatchL10signalDefsE, symObjAddr: 0x100990, symBinAddr: 0x100114000, symSize: 0x0 }
  - { offsetInCU: 0xAC39, offset: 0xAC39, size: 0x8, addend: 0x0, symName: __ZN5CatchL13oldSigActionsE, symObjAddr: 0x6B8E20, symBinAddr: 0x100114220, symSize: 0x0 }
  - { offsetInCU: 0xB73C, offset: 0xB73C, size: 0x8, addend: 0x0, symName: __ZN5Catch14getLineOfCharsILc45EEEPKcv, symObjAddr: 0x27DB4, symBinAddr: 0x10002AEA4, symSize: 0x58 }
  - { offsetInCU: 0xB767, offset: 0xB767, size: 0x8, addend: 0x0, symName: __ZZN5Catch14getLineOfCharsILc45EEEPKcvE4line, symObjAddr: 0x100A78, symBinAddr: 0x1001140E8, symSize: 0x0 }
  - { offsetInCU: 0xB77B, offset: 0xB77B, size: 0x8, addend: 0x0, symName: __ZN5Catch14getLineOfCharsILc126EEEPKcv, symObjAddr: 0x279CC, symBinAddr: 0x10002AABC, symSize: 0x58 }
  - { offsetInCU: 0xB7A6, offset: 0xB7A6, size: 0x8, addend: 0x0, symName: __ZZN5Catch14getLineOfCharsILc126EEEPKcvE4line, symObjAddr: 0x100AC8, symBinAddr: 0x100114138, symSize: 0x0 }
  - { offsetInCU: 0xB7BB, offset: 0xB7BB, size: 0x8, addend: 0x0, symName: __ZN5Catch14getLineOfCharsILc46EEEPKcv, symObjAddr: 0x27E0C, symBinAddr: 0x10002AEFC, symSize: 0x58 }
  - { offsetInCU: 0xB7E6, offset: 0xB7E6, size: 0x8, addend: 0x0, symName: __ZZN5Catch14getLineOfCharsILc46EEEPKcvE4line, symObjAddr: 0x100B18, symBinAddr: 0x100114188, symSize: 0x0 }
  - { offsetInCU: 0xBF3E, offset: 0xBF3E, size: 0x8, addend: 0x0, symName: __ZN5Catch16TestCaseTrackingeqERKNS0_15NameAndLocationES3_, symObjAddr: 0x49650, symBinAddr: 0x10004C740, symSize: 0x60 }
  - { offsetInCU: 0xCB3C, offset: 0xCB3C, size: 0x8, addend: 0x0, symName: __ZN5Catch8Matchers6EqualsERKNSt3__112basic_stringIcNS1_11char_traitsIcEENS1_9allocatorIcEEEENS_13CaseSensitive6ChoiceE, symObjAddr: 0x12EC, symBinAddr: 0x1000043DC, symSize: 0x74 }
  - { offsetInCU: 0xCB79, offset: 0xCB79, size: 0x8, addend: 0x0, symName: __ZN5Catch8Matchers7MessageERKNSt3__112basic_stringIcNS1_11char_traitsIcEENS1_9allocatorIcEEEE, symObjAddr: 0xD4C0, symBinAddr: 0x1000105B0, symSize: 0x38 }
  - { offsetInCU: 0xCBA7, offset: 0xCBA7, size: 0x8, addend: 0x0, symName: __ZN5Catch8Matchers9WithinULPEdy, symObjAddr: 0xEB28, symBinAddr: 0x100011C18, symSize: 0x44 }
  - { offsetInCU: 0xCBE4, offset: 0xCBE4, size: 0x8, addend: 0x0, symName: __ZN5Catch8Matchers9WithinULPEfy, symObjAddr: 0xEB6C, symBinAddr: 0x100011C5C, symSize: 0x48 }
  - { offsetInCU: 0xCC21, offset: 0xCC21, size: 0x8, addend: 0x0, symName: __ZN5Catch8Matchers9WithinAbsEdd, symObjAddr: 0xEBB4, symBinAddr: 0x100011CA4, symSize: 0x38 }
  - { offsetInCU: 0xCC5E, offset: 0xCC5E, size: 0x8, addend: 0x0, symName: __ZN5Catch8Matchers9WithinRelEdd, symObjAddr: 0xEBEC, symBinAddr: 0x100011CDC, symSize: 0x38 }
  - { offsetInCU: 0xCC9B, offset: 0xCC9B, size: 0x8, addend: 0x0, symName: __ZN5Catch8Matchers9WithinRelEd, symObjAddr: 0xEC24, symBinAddr: 0x100011D14, symSize: 0x4C }
  - { offsetInCU: 0xCCC9, offset: 0xCCC9, size: 0x8, addend: 0x0, symName: __ZN5Catch8Matchers9WithinRelEff, symObjAddr: 0xEC84, symBinAddr: 0x100011D74, symSize: 0x40 }
  - { offsetInCU: 0xCD06, offset: 0xCD06, size: 0x8, addend: 0x0, symName: __ZN5Catch8Matchers9WithinRelEf, symObjAddr: 0xECC4, symBinAddr: 0x100011DB4, symSize: 0x54 }
  - { offsetInCU: 0xCD3E, offset: 0xCD3E, size: 0x8, addend: 0x0, symName: __ZN5Catch8Matchers7Generic6Detail19finalizeDescriptionERKNSt3__112basic_stringIcNS3_11char_traitsIcEENS3_9allocatorIcEEEE, symObjAddr: 0xED18, symBinAddr: 0x100011E08, symSize: 0xA0 }
  - { offsetInCU: 0xCD6E, offset: 0xCD6E, size: 0x8, addend: 0x0, symName: __ZN5Catch8Matchers8ContainsERKNSt3__112basic_stringIcNS1_11char_traitsIcEENS1_9allocatorIcEEEENS_13CaseSensitive6ChoiceE, symObjAddr: 0xFEE8, symBinAddr: 0x100012FD8, symSize: 0x74 }
  - { offsetInCU: 0xCDAB, offset: 0xCDAB, size: 0x8, addend: 0x0, symName: __ZN5Catch8Matchers8EndsWithERKNSt3__112basic_stringIcNS1_11char_traitsIcEENS1_9allocatorIcEEEENS_13CaseSensitive6ChoiceE, symObjAddr: 0xFF5C, symBinAddr: 0x10001304C, symSize: 0x74 }
  - { offsetInCU: 0xCDE8, offset: 0xCDE8, size: 0x8, addend: 0x0, symName: __ZN5Catch8Matchers10StartsWithERKNSt3__112basic_stringIcNS1_11char_traitsIcEENS1_9allocatorIcEEEENS_13CaseSensitive6ChoiceE, symObjAddr: 0xFFD0, symBinAddr: 0x1000130C0, symSize: 0x74 }
  - { offsetInCU: 0xCE25, offset: 0xCE25, size: 0x8, addend: 0x0, symName: __ZN5Catch8Matchers7MatchesERKNSt3__112basic_stringIcNS1_11char_traitsIcEENS1_9allocatorIcEEEENS_13CaseSensitive6ChoiceE, symObjAddr: 0x10044, symBinAddr: 0x100013134, symSize: 0x50 }
  - { offsetInCU: 0xCFD9, offset: 0xCFD9, size: 0x8, addend: 0x0, symName: __ZN5Catch21makeCommandLineParserERNS_10ConfigDataE, symObjAddr: 0x1E80, symBinAddr: 0x100004F70, symSize: 0x301C }
  - { offsetInCU: 0xD3AD, offset: 0xD3AD, size: 0x8, addend: 0x0, symName: __ZN5Catch18throw_domain_errorERKNSt3__112basic_stringIcNS0_11char_traitsIcEENS0_9allocatorIcEEEE, symObjAddr: 0x61C, symBinAddr: 0x10000370C, symSize: 0x50 }
  - { offsetInCU: 0xD3DC, offset: 0xD3DC, size: 0x8, addend: 0x0, symName: __ZN5Catch8literalsli2_aEe, symObjAddr: 0x8F4, symBinAddr: 0x1000039E4, symSize: 0x38 }
  - { offsetInCU: 0xD40A, offset: 0xD40A, size: 0x8, addend: 0x0, symName: __ZN5Catch8literalsli2_aEy, symObjAddr: 0x964, symBinAddr: 0x100003A54, symSize: 0x38 }
  - { offsetInCU: 0xD464, offset: 0xD464, size: 0x8, addend: 0x0, symName: __ZN5CatchlsERNSt3__113basic_ostreamIcNS0_11char_traitsIcEEEERKNS_14LazyExpressionE, symObjAddr: 0xAF8, symBinAddr: 0x100003BE8, symSize: 0xD4 }
  - { offsetInCU: 0xD5E3, offset: 0xD5E3, size: 0x8, addend: 0x0, symName: __ZN5Catch16getResultCaptureEv, symObjAddr: 0xD14, symBinAddr: 0x100003E04, symSize: 0x108 }
  - { offsetInCU: 0xD617, offset: 0xD617, size: 0x8, addend: 0x0, symName: __ZN5Catch17getCurrentContextEv, symObjAddr: 0xF38, symBinAddr: 0x100004028, symSize: 0x14 }
  - { offsetInCU: 0xD635, offset: 0xD635, size: 0x8, addend: 0x0, symName: __ZN5Catch24translateActiveExceptionEv, symObjAddr: 0x10A0, symBinAddr: 0x100004190, symSize: 0x40 }
  - { offsetInCU: 0xD653, offset: 0xD653, size: 0x8, addend: 0x0, symName: __ZN5Catch24handleExceptionMatchExprERNS_16AssertionHandlerERKNSt3__112basic_stringIcNS2_11char_traitsIcEENS2_9allocatorIcEEEERKNS_9StringRefE, symObjAddr: 0x11CC, symBinAddr: 0x1000042BC, symSize: 0x7C }
  - { offsetInCU: 0xD69B, offset: 0xD69B, size: 0x8, addend: 0x0, symName: __ZN5Catch24handleExceptionMatchExprERNS_16AssertionHandlerERKNS_8Matchers4Impl11MatcherBaseINSt3__112basic_stringIcNS5_11char_traitsIcEENS5_9allocatorIcEEEEEERKNS_9StringRefE, symObjAddr: 0x1248, symBinAddr: 0x100004338, symSize: 0xA4 }
  - { offsetInCU: 0xD701, offset: 0xD701, size: 0x8, addend: 0x0, symName: __ZN5Catch4isOkENS_9ResultWas6OfTypeE, symObjAddr: 0x16AC, symBinAddr: 0x10000479C, symSize: 0x20 }
  - { offsetInCU: 0xD72F, offset: 0xD72F, size: 0x8, addend: 0x0, symName: __ZN5Catch21shouldSuppressFailureEi, symObjAddr: 0x1724, symBinAddr: 0x100004814, symSize: 0x20 }
  - { offsetInCU: 0xD75D, offset: 0xD75D, size: 0x8, addend: 0x0, symName: __ZN5Catch11isFalseTestEi, symObjAddr: 0x1930, symBinAddr: 0x100004A20, symSize: 0x20 }
  - { offsetInCU: 0xD78B, offset: 0xD78B, size: 0x8, addend: 0x0, symName: __ZN5CatchpLERNSt3__112basic_stringIcNS0_11char_traitsIcEENS0_9allocatorIcEEEERKNS_9StringRefE, symObjAddr: 0x197C, symBinAddr: 0x100004A6C, symSize: 0x50 }
  - { offsetInCU: 0xD869, offset: 0xD869, size: 0x8, addend: 0x0, symName: __ZN5CatchlsERNSt3__113basic_ostreamIcNS0_11char_traitsIcEEEERKNS_14SourceLineInfoE, symObjAddr: 0x58E8, symBinAddr: 0x1000089D8, symSize: 0x48 }
  - { offsetInCU: 0xD8C7, offset: 0xD8C7, size: 0x8, addend: 0x0, symName: __ZN5Catch10makeStreamERKNS_9StringRefE, symObjAddr: 0x6778, symBinAddr: 0x100009868, symSize: 0x1F4 }
  - { offsetInCU: 0xD8F5, offset: 0xD8F5, size: 0x8, addend: 0x0, symName: __ZN5CatchlsERNSt3__113basic_ostreamIcNS0_11char_traitsIcEEEERKNS_6ColourE, symObjAddr: 0x6D74, symBinAddr: 0x100009E64, symSize: 0x18 }
  - { offsetInCU: 0xDA51, offset: 0xDA51, size: 0x8, addend: 0x0, symName: __ZN5Catch14cleanUpContextEv, symObjAddr: 0x6E28, symBinAddr: 0x100009F18, symSize: 0x50 }
  - { offsetInCU: 0xDA6B, offset: 0xDA6B, size: 0x8, addend: 0x0, symName: __ZN5Catch19writeToDebugConsoleERKNSt3__112basic_stringIcNS0_11char_traitsIcEENS0_9allocatorIcEEEE, symObjAddr: 0x70E4, symBinAddr: 0x10000A1D4, symSize: 0x28 }
  - { offsetInCU: 0xDA95, offset: 0xDA95, size: 0x8, addend: 0x0, symName: __ZN5Catch4coutEv, symObjAddr: 0x7158, symBinAddr: 0x10000A248, symSize: 0xC }
  - { offsetInCU: 0xDAB3, offset: 0xDAB3, size: 0x8, addend: 0x0, symName: __ZN5Catch16isDebuggerActiveEv, symObjAddr: 0x7164, symBinAddr: 0x10000A254, symSize: 0x118 }
  - { offsetInCU: 0xDAFF, offset: 0xDAFF, size: 0x8, addend: 0x0, symName: __ZN5Catch4cerrEv, symObjAddr: 0x727C, symBinAddr: 0x10000A36C, symSize: 0xC }
  - { offsetInCU: 0xDB1D, offset: 0xDB1D, size: 0x8, addend: 0x0, symName: __ZN5Catch29formatReconstructedExpressionERNSt3__113basic_ostreamIcNS0_11char_traitsIcEEEERKNS0_12basic_stringIcS3_NS0_9allocatorIcEEEENS_9StringRefESB_, symObjAddr: 0x7340, symBinAddr: 0x10000A430, symSize: 0x10C }
  - { offsetInCU: 0xDB74, offset: 0xDB74, size: 0x8, addend: 0x0, symName: __ZN5CatchlsERNSt3__113basic_ostreamIcNS0_11char_traitsIcEEEERKNS_9StringRefE, symObjAddr: 0x74A0, symBinAddr: 0x10000A590, symSize: 0x4C }
  - { offsetInCU: 0xDBB1, offset: 0xDBB1, size: 0x8, addend: 0x0, symName: __ZN5Catch17throw_logic_errorERKNSt3__112basic_stringIcNS0_11char_traitsIcEENS0_9allocatorIcEEEE, symObjAddr: 0x74EC, symBinAddr: 0x10000A5DC, symSize: 0x50 }
  - { offsetInCU: 0xDBDB, offset: 0xDBDB, size: 0x8, addend: 0x0, symName: __ZN5Catch15throw_exceptionISt11logic_errorEEvRKT_, symObjAddr: 0x753C, symBinAddr: 0x10000A62C, symSize: 0x3C }
  - { offsetInCU: 0xDC0E, offset: 0xDC0E, size: 0x8, addend: 0x0, symName: __ZN5Catch15throw_exceptionISt12domain_errorEEvRKT_, symObjAddr: 0x7578, symBinAddr: 0x10000A668, symSize: 0x3C }
  - { offsetInCU: 0xDC41, offset: 0xDC41, size: 0x8, addend: 0x0, symName: __ZN5Catch19throw_runtime_errorERKNSt3__112basic_stringIcNS0_11char_traitsIcEENS0_9allocatorIcEEEE, symObjAddr: 0x75E8, symBinAddr: 0x10000A6D8, symSize: 0x50 }
  - { offsetInCU: 0xDC6B, offset: 0xDC6B, size: 0x8, addend: 0x0, symName: __ZN5Catch15throw_exceptionISt13runtime_errorEEvRKT_, symObjAddr: 0x7638, symBinAddr: 0x10000A728, symSize: 0x3C }
  - { offsetInCU: 0xDC9E, offset: 0xDC9E, size: 0x8, addend: 0x0, symName: __ZN5Catch14splitStringRefENS_9StringRefEc, symObjAddr: 0x783C, symBinAddr: 0x10000A92C, symSize: 0x1D8 }
  - { offsetInCU: 0xDD0F, offset: 0xDD0F, size: 0x8, addend: 0x0, symName: __ZN5Catch4trimENS_9StringRefE, symObjAddr: 0x7C68, symBinAddr: 0x10000AD58, symSize: 0x130 }
  - { offsetInCU: 0xDD89, offset: 0xDD89, size: 0x8, addend: 0x0, symName: __ZN5Catchli3_srEPKcm, symObjAddr: 0x80CC, symBinAddr: 0x10000B1BC, symSize: 0x38 }
  - { offsetInCU: 0xDE7C, offset: 0xDE7C, size: 0x8, addend: 0x0, symName: __ZN5CatchL12handleSignalEi, symObjAddr: 0x9208, symBinAddr: 0x10000C2F8, symSize: 0xBC }
  - { offsetInCU: 0xDF04, offset: 0xDF04, size: 0x8, addend: 0x0, symName: __ZN5CatchL29restorePreviousSignalHandlersEv, symObjAddr: 0x92E4, symBinAddr: 0x10000C3D4, symSize: 0x84 }
  - { offsetInCU: 0xDFA6, offset: 0xDFA6, size: 0x8, addend: 0x0, symName: __ZN5Catch7cleanUpEv, symObjAddr: 0xA6A4, symBinAddr: 0x10000D794, symSize: 0x18 }
  - { offsetInCU: 0xDFC0, offset: 0xDFC0, size: 0x8, addend: 0x0, symName: __ZN5Catch9listTestsERKNS_6ConfigE, symObjAddr: 0xA6E8, symBinAddr: 0x10000D7D8, symSize: 0x640 }
  - { offsetInCU: 0xE09A, offset: 0xE09A, size: 0x8, addend: 0x0, symName: __ZN5Catch11filterTestsERKNSt3__16vectorINS_8TestCaseENS0_9allocatorIS2_EEEERKNS_8TestSpecERKNS_7IConfigE, symObjAddr: 0xAD28, symBinAddr: 0x10000DE18, symSize: 0x184 }
  - { offsetInCU: 0xE13D, offset: 0xE13D, size: 0x8, addend: 0x0, symName: __ZN5Catch21getAllTestCasesSortedERKNS_7IConfigE, symObjAddr: 0xAEAC, symBinAddr: 0x10000DF9C, symSize: 0x3C }
  - { offsetInCU: 0xE16B, offset: 0xE16B, size: 0x8, addend: 0x0, symName: __ZN5CatchlsERNSt3__113basic_ostreamIcNS0_11char_traitsIcEEEERKNS_9pluraliseE, symObjAddr: 0xB384, symBinAddr: 0x10000E474, symSize: 0x70 }
  - { offsetInCU: 0xE1F0, offset: 0xE1F0, size: 0x8, addend: 0x0, symName: __ZN5Catch18listTestsNamesOnlyERKNS_6ConfigE, symObjAddr: 0xB4B0, symBinAddr: 0x10000E5A0, symSize: 0x1F4 }
  - { offsetInCU: 0xE28C, offset: 0xE28C, size: 0x8, addend: 0x0, symName: __ZN5Catch10startsWithERKNSt3__112basic_stringIcNS0_11char_traitsIcEENS0_9allocatorIcEEEEc, symObjAddr: 0xB6A4, symBinAddr: 0x10000E794, symSize: 0x64 }
  - { offsetInCU: 0xE2C9, offset: 0xE2C9, size: 0x8, addend: 0x0, symName: __ZN5Catch8listTagsERKNS_6ConfigE, symObjAddr: 0xBA58, symBinAddr: 0x10000EB48, symSize: 0x648 }
  - { offsetInCU: 0xE452, offset: 0xE452, size: 0x8, addend: 0x0, symName: __ZN5Catch7toLowerERKNSt3__112basic_stringIcNS0_11char_traitsIcEENS0_9allocatorIcEEEE, symObjAddr: 0xC18C, symBinAddr: 0x10000F27C, symSize: 0xA0 }
  - { offsetInCU: 0xE490, offset: 0xE490, size: 0x8, addend: 0x0, symName: __ZN5Catch13listReportersEv, symObjAddr: 0xC680, symBinAddr: 0x10000F770, symSize: 0x2FC }
  - { offsetInCU: 0xE55F, offset: 0xE55F, size: 0x8, addend: 0x0, symName: __ZN5Catch14getRegistryHubEv, symObjAddr: 0xC97C, symBinAddr: 0x10000FA6C, symSize: 0x14 }
  - { offsetInCU: 0xE57D, offset: 0xE57D, size: 0x8, addend: 0x0, symName: __ZN5Catch4listERKNSt3__110shared_ptrINS_6ConfigEEE, symObjAddr: 0xCE10, symBinAddr: 0x10000FF00, symSize: 0x26C }
  - { offsetInCU: 0xE74F, offset: 0xE74F, size: 0x8, addend: 0x0, symName: __ZN5Catch24getCurrentMutableContextEv, symObjAddr: 0xD0A8, symBinAddr: 0x100010198, symSize: 0x38 }
  - { offsetInCU: 0xE76D, offset: 0xE76D, size: 0x8, addend: 0x0, symName: __ZN5Catch8containsERKNSt3__112basic_stringIcNS0_11char_traitsIcEENS0_9allocatorIcEEEES8_, symObjAddr: 0xF694, symBinAddr: 0x100012784, symSize: 0x3C }
  - { offsetInCU: 0xE7AA, offset: 0xE7AA, size: 0x8, addend: 0x0, symName: __ZN5Catch10startsWithERKNSt3__112basic_stringIcNS0_11char_traitsIcEENS0_9allocatorIcEEEES8_, symObjAddr: 0xF84C, symBinAddr: 0x10001293C, symSize: 0x98 }
  - { offsetInCU: 0xE7E7, offset: 0xE7E7, size: 0x8, addend: 0x0, symName: __ZN5Catch8endsWithERKNSt3__112basic_stringIcNS0_11char_traitsIcEENS0_9allocatorIcEEEES8_, symObjAddr: 0xFA60, symBinAddr: 0x100012B50, symSize: 0xB0 }
  - { offsetInCU: 0xE824, offset: 0xE824, size: 0x8, addend: 0x0, symName: __ZN5Catch19uncaught_exceptionsEv, symObjAddr: 0x1046C, symBinAddr: 0x10001355C, symSize: 0x18 }
  - { offsetInCU: 0xE9D8, offset: 0xE9D8, size: 0x8, addend: 0x0, symName: __ZN5Catch4clogEv, symObjAddr: 0x113D0, symBinAddr: 0x1000144C0, symSize: 0xC }
  - { offsetInCU: 0xEABD, offset: 0xEABD, size: 0x8, addend: 0x0, symName: __ZN5Catch5isnanEf, symObjAddr: 0x11614, symBinAddr: 0x100014704, symSize: 0x28 }
  - { offsetInCU: 0xEAEB, offset: 0xEAEB, size: 0x8, addend: 0x0, symName: __ZN5Catch5isnanEd, symObjAddr: 0x1165C, symBinAddr: 0x10001474C, symSize: 0x28 }
  - { offsetInCU: 0xEB19, offset: 0xEB19, size: 0x8, addend: 0x0, symName: __ZN5CatcheqERKNS_11SimplePcg32ES2_, symObjAddr: 0x11894, symBinAddr: 0x100014984, symSize: 0x30 }
  - { offsetInCU: 0xEB56, offset: 0xEB56, size: 0x8, addend: 0x0, symName: __ZN5CatchneERKNS_11SimplePcg32ES2_, symObjAddr: 0x118C4, symBinAddr: 0x1000149B4, symSize: 0x30 }
  - { offsetInCU: 0xEB93, offset: 0xEB93, size: 0x8, addend: 0x0, symName: __ZN5Catch21getMutableRegistryHubEv, symObjAddr: 0x11908, symBinAddr: 0x1000149F8, symSize: 0x14 }
  - { offsetInCU: 0xEBB1, offset: 0xEBB1, size: 0x8, addend: 0x0, symName: __ZN5Catch17cleanupSingletonsEv, symObjAddr: 0x11934, symBinAddr: 0x100014A24, symSize: 0xE0 }
  - { offsetInCU: 0xEC2A, offset: 0xEC2A, size: 0x8, addend: 0x0, symName: __ZN5Catch10isJustInfoEi, symObjAddr: 0x11E68, symBinAddr: 0x100014F58, symSize: 0x20 }
  - { offsetInCU: 0xEC58, offset: 0xEC58, size: 0x8, addend: 0x0, symName: __ZN5CatchorENS_17ResultDisposition5FlagsES1_, symObjAddr: 0x11E88, symBinAddr: 0x100014F78, symSize: 0x20 }
  - { offsetInCU: 0xEC95, offset: 0xEC95, size: 0x8, addend: 0x0, symName: __ZN5Catch23shouldContinueOnFailureEi, symObjAddr: 0x11EA8, symBinAddr: 0x100014F98, symSize: 0x20 }
  - { offsetInCU: 0xF3D4, offset: 0xF3D4, size: 0x8, addend: 0x0, symName: __ZN5Catch7seedRngERKNS_7IConfigE, symObjAddr: 0x14FA8, symBinAddr: 0x100018098, symSize: 0x78 }
  - { offsetInCU: 0xF439, offset: 0xF439, size: 0x8, addend: 0x0, symName: __ZN5Catch7rngSeedEv, symObjAddr: 0x15B04, symBinAddr: 0x100018BF4, symSize: 0x30 }
  - { offsetInCU: 0xF4EF, offset: 0xF4EF, size: 0x8, addend: 0x0, symName: __ZN5CatchlsERNSt3__113basic_ostreamIcNS0_11char_traitsIcEEEERKNS_7VersionE, symObjAddr: 0x16820, symBinAddr: 0x100019910, symSize: 0xAC }
  - { offsetInCU: 0xF52C, offset: 0xF52C, size: 0x8, addend: 0x0, symName: __ZN5Catch12addSingletonEPNS_10ISingletonE, symObjAddr: 0x17D14, symBinAddr: 0x10001AE04, symSize: 0x34 }
  - { offsetInCU: 0xF556, offset: 0xF556, size: 0x8, addend: 0x0, symName: __ZN5Catch8endsWithERKNSt3__112basic_stringIcNS0_11char_traitsIcEENS0_9allocatorIcEEEEc, symObjAddr: 0x18818, symBinAddr: 0x10001B908, symSize: 0x78 }
  - { offsetInCU: 0xF593, offset: 0xF593, size: 0x8, addend: 0x0, symName: __ZN5Catch14toLowerInPlaceERNSt3__112basic_stringIcNS0_11char_traitsIcEENS0_9allocatorIcEEEE, symObjAddr: 0x18908, symBinAddr: 0x10001B9F8, symSize: 0x5C }
  - { offsetInCU: 0xF5BD, offset: 0xF5BD, size: 0x8, addend: 0x0, symName: __ZN5Catch14replaceInPlaceERNSt3__112basic_stringIcNS0_11char_traitsIcEENS0_9allocatorIcEEEERKS6_S9_, symObjAddr: 0x18D4C, symBinAddr: 0x10001BE3C, symSize: 0x1F0 }
  - { offsetInCU: 0xF64F, offset: 0xF64F, size: 0x8, addend: 0x0, symName: __ZN5Catch12makeTestCaseEPNS_12ITestInvokerERKNSt3__112basic_stringIcNS2_11char_traitsIcEENS2_9allocatorIcEEEERKNS_11NameAndTagsERKNS_14SourceLineInfoE, symObjAddr: 0x19DB8, symBinAddr: 0x10001CEA8, symSize: 0x488 }
  - { offsetInCU: 0xF777, offset: 0xF777, size: 0x8, addend: 0x0, symName: __ZN5Catch7setTagsERNS_12TestCaseInfoENSt3__16vectorINS2_12basic_stringIcNS2_11char_traitsIcEENS2_9allocatorIcEEEENS7_IS9_EEEE, symObjAddr: 0x1A728, symBinAddr: 0x10001D818, symSize: 0x1D0 }
  - { offsetInCU: 0xF80A, offset: 0xF80A, size: 0x8, addend: 0x0, symName: __ZN5Catch9sortTestsERKNS_7IConfigERKNSt3__16vectorINS_8TestCaseENS3_9allocatorIS5_EEEE, symObjAddr: 0x1B138, symBinAddr: 0x10001E228, symSize: 0x338 }
  - { offsetInCU: 0xF966, offset: 0xF966, size: 0x8, addend: 0x0, symName: __ZN5Catch11isThrowSafeERKNS_8TestCaseERKNS_7IConfigE, symObjAddr: 0x1BB54, symBinAddr: 0x10001EC44, symSize: 0x58 }
  - { offsetInCU: 0xF9A3, offset: 0xF9A3, size: 0x8, addend: 0x0, symName: __ZN5Catch9matchTestERKNS_8TestCaseERKNS_8TestSpecERKNS_7IConfigE, symObjAddr: 0x1BBAC, symBinAddr: 0x10001EC9C, symSize: 0x5C }
  - { offsetInCU: 0xF9EF, offset: 0xF9EF, size: 0x8, addend: 0x0, symName: __ZN5Catch27enforceNoDuplicateTestCasesERKNSt3__16vectorINS_8TestCaseENS0_9allocatorIS2_EEEE, symObjAddr: 0x1BC64, symBinAddr: 0x10001ED54, symSize: 0x228 }
  - { offsetInCU: 0xFAFD, offset: 0xFAFD, size: 0x8, addend: 0x0, symName: __ZN5Catch16extractClassNameERKNS_9StringRefE, symObjAddr: 0x1C480, symBinAddr: 0x10001F570, symSize: 0x134 }
  - { offsetInCU: 0xFB67, offset: 0xFB67, size: 0x8, addend: 0x0, symName: __ZN5Catch15makeTestInvokerEPFvvE, symObjAddr: 0x1E018, symBinAddr: 0x100021108, symSize: 0x88 }
  - { offsetInCU: 0xFB95, offset: 0xFB95, size: 0x8, addend: 0x0, symName: __ZN5Catch13parseTestSpecERKNSt3__112basic_stringIcNS0_11char_traitsIcEENS0_9allocatorIcEEEE, symObjAddr: 0x20638, symBinAddr: 0x100023728, symSize: 0xA0 }
  - { offsetInCU: 0xFBC3, offset: 0xFBC3, size: 0x8, addend: 0x0, symName: __ZN5Catch31getCurrentNanosecondsSinceEpochEv, symObjAddr: 0x206D8, symBinAddr: 0x1000237C8, symSize: 0x4C }
  - { offsetInCU: 0xFEBC, offset: 0xFEBC, size: 0x8, addend: 0x0, symName: __ZN5Catch10fpToStringIfEENSt3__112basic_stringIcNS1_11char_traitsIcEENS1_9allocatorIcEEEET_i, symObjAddr: 0x21BF8, symBinAddr: 0x100024CE8, symSize: 0x1F4 }
  - { offsetInCU: 0xFF31, offset: 0xFF31, size: 0x8, addend: 0x0, symName: __ZN5Catch10fpToStringIdEENSt3__112basic_stringIcNS1_11char_traitsIcEENS1_9allocatorIcEEEET_i, symObjAddr: 0x21E20, symBinAddr: 0x100024F10, symSize: 0x1F4 }
  - { offsetInCU: 0x1007E, offset: 0x1007E, size: 0x8, addend: 0x0, symName: __ZN5CatchorENS_13XmlFormattingES0_, symObjAddr: 0x22528, symBinAddr: 0x100025618, symSize: 0x20 }
  - { offsetInCU: 0x100BB, offset: 0x100BB, size: 0x8, addend: 0x0, symName: __ZN5CatchanENS_13XmlFormattingES0_, symObjAddr: 0x22548, symBinAddr: 0x100025638, symSize: 0x20 }
  - { offsetInCU: 0x100F8, offset: 0x100F8, size: 0x8, addend: 0x0, symName: __ZN5CatchlsERNSt3__113basic_ostreamIcNS0_11char_traitsIcEEEERKNS_9XmlEncodeE, symObjAddr: 0x22E84, symBinAddr: 0x100025F74, symSize: 0x30 }
  - { offsetInCU: 0x10135, offset: 0x10135, size: 0x8, addend: 0x0, symName: __ZN5Catch25prepareExpandedExpressionERNS_15AssertionResultE, symObjAddr: 0x23A88, symBinAddr: 0x100026B78, symSize: 0x34 }
  - { offsetInCU: 0x1015F, offset: 0x1015F, size: 0x8, addend: 0x0, symName: __ZN5Catch20getFormattedDurationEd, symObjAddr: 0x23ABC, symBinAddr: 0x100026BAC, symSize: 0xC8 }
  - { offsetInCU: 0x101BB, offset: 0x101BB, size: 0x8, addend: 0x0, symName: __ZN5Catch18shouldShowDurationERKNS_7IConfigEd, symObjAddr: 0x23B84, symBinAddr: 0x100026C74, symSize: 0xEC }
  - { offsetInCU: 0x10207, offset: 0x10207, size: 0x8, addend: 0x0, symName: __ZN5Catch16serializeFiltersERKNSt3__16vectorINS0_12basic_stringIcNS0_11char_traitsIcEENS0_9allocatorIcEEEENS5_IS7_EEEE, symObjAddr: 0x23C70, symBinAddr: 0x100026D60, symSize: 0x100 }
  - { offsetInCU: 0x107D7, offset: 0x107D7, size: 0x8, addend: 0x0, symName: __ZN5CatchlsERNS_12TablePrinterENS_12_GLOBAL__N_18RowBreakE, symObjAddr: 0x63DFC, symBinAddr: 0x100066EEC, symSize: 0x58 }
  - { offsetInCU: 0x10A40, offset: 0x10A40, size: 0x8, addend: 0x0, symName: __ZN5Catch12compareEqualIiiEEbRKT_RKT0_, symObjAddr: 0x67BEC, symBinAddr: 0x10006ACDC, symSize: 0x30 }
  - { offsetInCU: 0x10AF7, offset: 0x10AF7, size: 0x8, addend: 0x0, symName: __ZN5Catch6Colour3useENS0_4CodeE, symObjAddr: 0x69D8, symBinAddr: 0x100009AC8, symSize: 0xD8 }
  - { offsetInCU: 0x10B19, offset: 0x10B19, size: 0x8, addend: 0x0, symName: __ZZN5Catch6Colour3useENS0_4CodeEE4impl, symObjAddr: 0x6B8DD8, symBinAddr: 0x1001141D8, symSize: 0x0 }
  - { offsetInCU: 0x1FD7B, offset: 0x1FD7B, size: 0x8, addend: 0x0, symName: __ZNSt3__16chrono13duration_castB7v160006INS0_8durationIxNS_5ratioILl1ELl1000000000EEEEExS4_EENS_9enable_ifIXsr13__is_durationIT_EE5valueES7_E4typeERKNS2_IT0_T1_EE, symObjAddr: 0x20724, symBinAddr: 0x100023814, symSize: 0x30 }
  - { offsetInCU: 0x4F60B, offset: 0x4F60B, size: 0x8, addend: 0x0, symName: __ZNSt3__115regex_constantsoRB7v160006ERNS0_18syntax_option_typeES1_, symObjAddr: 0xFCC8, symBinAddr: 0x100012DB8, symSize: 0x3C }
  - { offsetInCU: 0x4F648, offset: 0x4F648, size: 0x8, addend: 0x0, symName: __ZNSt3__115regex_constantsorB7v160006ENS0_18syntax_option_typeES1_, symObjAddr: 0x4803C, symBinAddr: 0x10004B12C, symSize: 0x20 }
  - { offsetInCU: 0x4F685, offset: 0x4F685, size: 0x8, addend: 0x0, symName: __ZNSt3__115regex_constants13__get_grammarB7v160006ENS0_18syntax_option_typeE, symObjAddr: 0x88D84, symBinAddr: 0x10008BE74, symSize: 0x18 }
  - { offsetInCU: 0x4F6B3, offset: 0x4F6B3, size: 0x8, addend: 0x0, symName: __ZNSt3__115regex_constantsanB7v160006ENS0_18syntax_option_typeES1_, symObjAddr: 0x8C48C, symBinAddr: 0x10008F57C, symSize: 0x20 }
  - { offsetInCU: 0x4F6F0, offset: 0x4F6F0, size: 0x8, addend: 0x0, symName: __ZNSt3__115regex_constantsanB7v160006ENS0_15match_flag_typeES1_, symObjAddr: 0x8C6AC, symBinAddr: 0x10008F79C, symSize: 0x20 }
  - { offsetInCU: 0x4F72D, offset: 0x4F72D, size: 0x8, addend: 0x0, symName: __ZNSt3__115regex_constantsorB7v160006ENS0_15match_flag_typeES1_, symObjAddr: 0x8DCB8, symBinAddr: 0x100090DA8, symSize: 0x20 }
  - { offsetInCU: 0x4F76A, offset: 0x4F76A, size: 0x8, addend: 0x0, symName: __ZNSt3__115regex_constantscoB7v160006ENS0_15match_flag_typeE, symObjAddr: 0x8DCD8, symBinAddr: 0x100090DC8, symSize: 0x1C }
  - { offsetInCU: 0x4F798, offset: 0x4F798, size: 0x8, addend: 0x0, symName: __ZNSt3__115regex_constantsaNB7v160006ERNS0_15match_flag_typeES1_, symObjAddr: 0xA62B0, symBinAddr: 0x1000A93A0, symSize: 0x3C }
  - { offsetInCU: 0x4F7D5, offset: 0x4F7D5, size: 0x8, addend: 0x0, symName: __ZNSt3__115regex_constantsoRB7v160006ERNS0_15match_flag_typeES1_, symObjAddr: 0xA6464, symBinAddr: 0x1000A9554, symSize: 0x3C }
  - { offsetInCU: 0x59C19, offset: 0x59C19, size: 0x8, addend: 0x0, symName: __ZNSt3__16copy_nB7v160006IPKcmPcEENS_9enable_ifIXsr33__is_cpp17_random_access_iteratorIT_EE5valueET1_E4typeES5_T0_S6_, symObjAddr: 0x454E0, symBinAddr: 0x1000485D0, symSize: 0x44 }
  - { offsetInCU: 0x5B775, offset: 0x5B775, size: 0x8, addend: 0x0, symName: __ZNSt3__17advanceB7v160006INS_11__wrap_iterIPN5Catch5clara6detail11HelpColumnsEEEllvEEvRT_T0_, symObjAddr: 0x4DFA8, symBinAddr: 0x100051098, symSize: 0x50 }
  - { offsetInCU: 0x5C18D, offset: 0x5C18D, size: 0x8, addend: 0x0, symName: __ZNSt3__17advanceB7v160006IPNS_12basic_stringIcNS_11char_traitsIcEENS_9allocatorIcEEEEmmvEEvRT_T0_, symObjAddr: 0x52254, symBinAddr: 0x100055344, symSize: 0x50 }
  - { offsetInCU: 0x5C1FD, offset: 0x5C1FD, size: 0x8, addend: 0x0, symName: __ZNSt3__17advanceB7v160006IPN5Catch5clara6detail3OptEmmvEEvRT_T0_, symObjAddr: 0x530B8, symBinAddr: 0x1000561A8, symSize: 0x50 }
  - { offsetInCU: 0x5C5AA, offset: 0x5C5AA, size: 0x8, addend: 0x0, symName: __ZNSt3__17advanceB7v160006IPN5Catch5clara6detail3ArgEmmvEEvRT_T0_, symObjAddr: 0x54678, symBinAddr: 0x100057768, symSize: 0x50 }
  - { offsetInCU: 0x5E562, offset: 0x5E562, size: 0x8, addend: 0x0, symName: __ZNSt3__17advanceB7v160006INS_21__tree_const_iteratorIPKN5Catch8TestCaseEPNS_11__tree_nodeIS5_PvEElEEllvEEvRT_T0_, symObjAddr: 0x5A428, symBinAddr: 0x10005D518, symSize: 0x50 }
  - { offsetInCU: 0x615D3, offset: 0x615D3, size: 0x8, addend: 0x0, symName: __ZNSt3__124__put_character_sequenceB7v160006IcNS_11char_traitsIcEEEERNS_13basic_ostreamIT_T0_EES7_PKS4_m, symObjAddr: 0x6A3DC, symBinAddr: 0x10006D4CC, symSize: 0x1E0 }
  - { offsetInCU: 0x6C44B, offset: 0x6C44B, size: 0x8, addend: 0x0, symName: __ZNSt3__17advanceB7v160006IPKcllvEEvRT_T0_, symObjAddr: 0x8C764, symBinAddr: 0x10008F854, symSize: 0x50 }
  - { offsetInCU: 0x6C4BB, offset: 0x6C4BB, size: 0x8, addend: 0x0, symName: __ZNSt3__17advanceB7v160006INS_11__wrap_iterIPKcEEllvEEvRT_T0_, symObjAddr: 0x8C9FC, symBinAddr: 0x10008FAEC, symSize: 0x50 }
  - { offsetInCU: 0x76DA4, offset: 0x76DA4, size: 0x8, addend: 0x0, symName: __ZNSt3__17advanceB7v160006IPNS_9sub_matchIPKcEEmmvEEvRT_T0_, symObjAddr: 0xAB454, symBinAddr: 0x1000AE544, symSize: 0x50 }
  - { offsetInCU: 0x76E14, offset: 0x76E14, size: 0x8, addend: 0x0, symName: __ZNSt3__17advanceB7v160006IPNS_4pairImPKcEEmmvEEvRT_T0_, symObjAddr: 0xABAF8, symBinAddr: 0x1000AEBE8, symSize: 0x50 }
  - { offsetInCU: 0x7E65B, offset: 0x7E65B, size: 0x8, addend: 0x0, symName: __ZNSt3__17advanceB7v160006IPKNS_12basic_stringIcNS_11char_traitsIcEENS_9allocatorIcEEEEllvEEvRT_T0_, symObjAddr: 0xC2300, symBinAddr: 0x1000C53F0, symSize: 0x50 }
  - { offsetInCU: 0x7E6CA, offset: 0x7E6CA, size: 0x8, addend: 0x0, symName: __ZNSt3__111__introsortINS_17_ClassicAlgPolicyERNS_6__lessINS_12basic_stringIcNS_11char_traitsIcEENS_9allocatorIcEEEES8_EEPS8_EEvT1_SC_T0_NS_15iterator_traitsISC_E15difference_typeE, symObjAddr: 0xC3320, symBinAddr: 0x1000C6410, symSize: 0x6D0 }
  - { offsetInCU: 0x7E826, offset: 0x7E826, size: 0x8, addend: 0x0, symName: __ZNSt3__118__insertion_sort_3B7v160006INS_17_ClassicAlgPolicyERNS_6__lessINS_12basic_stringIcNS_11char_traitsIcEENS_9allocatorIcEEEES8_EEPS8_EEvT1_SC_T0_, symObjAddr: 0xC3B58, symBinAddr: 0x1000C6C48, symSize: 0x17C }
  - { offsetInCU: 0x7E8EA, offset: 0x7E8EA, size: 0x8, addend: 0x0, symName: __ZNSt3__111__sift_downB7v160006INS_17_ClassicAlgPolicyERNS_6__lessINS_12basic_stringIcNS_11char_traitsIcEENS_9allocatorIcEEEES8_EEPS8_EEvT1_OT0_NS_15iterator_traitsISC_E15difference_typeESC_, symObjAddr: 0xC46E0, symBinAddr: 0x1000C77D0, symSize: 0x254 }
  - { offsetInCU: 0x7E9A1, offset: 0x7E9A1, size: 0x8, addend: 0x0, symName: __ZNSt3__117__floyd_sift_downB7v160006INS_17_ClassicAlgPolicyERNS_6__lessINS_12basic_stringIcNS_11char_traitsIcEENS_9allocatorIcEEEES8_EEPS8_EET1_SC_OT0_NS_15iterator_traitsISC_E15difference_typeE, symObjAddr: 0xC4AFC, symBinAddr: 0x1000C7BEC, symSize: 0x108 }
  - { offsetInCU: 0x7EA40, offset: 0x7EA40, size: 0x8, addend: 0x0, symName: __ZNSt3__127__insertion_sort_incompleteIRNS_6__lessINS_12basic_stringIcNS_11char_traitsIcEENS_9allocatorIcEEEES7_EEPS7_EEbT0_SB_T_, symObjAddr: 0xC3F00, symBinAddr: 0x1000C6FF0, symSize: 0x36C }
  - { offsetInCU: 0x7EF4D, offset: 0x7EF4D, size: 0x8, addend: 0x0, symName: __ZNSt3__111__introsortINS_17_ClassicAlgPolicyERNS_6__lessIN5Catch8TestCaseES4_EEPS4_EEvT1_S8_T0_NS_15iterator_traitsIS8_E15difference_typeE, symObjAddr: 0xC6EB0, symBinAddr: 0x1000C9FA0, symSize: 0x6D0 }
  - { offsetInCU: 0x7F0A9, offset: 0x7F0A9, size: 0x8, addend: 0x0, symName: __ZNSt3__118__insertion_sort_3B7v160006INS_17_ClassicAlgPolicyERNS_6__lessIN5Catch8TestCaseES4_EEPS4_EEvT1_S8_T0_, symObjAddr: 0xC76CC, symBinAddr: 0x1000CA7BC, symSize: 0x1B8 }
  - { offsetInCU: 0x7F16D, offset: 0x7F16D, size: 0x8, addend: 0x0, symName: __ZNSt3__111__sift_downB7v160006INS_17_ClassicAlgPolicyERNS_6__lessIN5Catch8TestCaseES4_EEPS4_EEvT1_OT0_NS_15iterator_traitsIS8_E15difference_typeES8_, symObjAddr: 0xC8464, symBinAddr: 0x1000CB554, symSize: 0x294 }
  - { offsetInCU: 0x7F224, offset: 0x7F224, size: 0x8, addend: 0x0, symName: __ZNSt3__117__floyd_sift_downB7v160006INS_17_ClassicAlgPolicyERNS_6__lessIN5Catch8TestCaseES4_EEPS4_EET1_S8_OT0_NS_15iterator_traitsIS8_E15difference_typeE, symObjAddr: 0xC88E0, symBinAddr: 0x1000CB9D0, symSize: 0x108 }
  - { offsetInCU: 0x7F2C3, offset: 0x7F2C3, size: 0x8, addend: 0x0, symName: __ZNSt3__127__insertion_sort_incompleteIRNS_6__lessIN5Catch8TestCaseES3_EEPS3_EEbT0_S7_T_, symObjAddr: 0xC7AB0, symBinAddr: 0x1000CABA0, symSize: 0x374 }
  - { offsetInCU: 0x81337, offset: 0x81337, size: 0x8, addend: 0x0, symName: '__ZNSt3__111__introsortINS_17_ClassicAlgPolicyERZN5Catch9sortTestsERKNS2_7IConfigERKNS_6vectorINS2_8TestCaseENS_9allocatorIS7_EEEEE4$_15PNS_4pairIyPKS7_EEEEvT1_SK_T0_NS_15iterator_traitsISK_E15difference_typeE', symObjAddr: 0xCA9AC, symBinAddr: 0x1000CDA9C, symSize: 0x6B8 }
  - { offsetInCU: 0x81493, offset: 0x81493, size: 0x8, addend: 0x0, symName: '__ZNSt3__118__insertion_sort_3B7v160006INS_17_ClassicAlgPolicyERZN5Catch9sortTestsERKNS2_7IConfigERKNS_6vectorINS2_8TestCaseENS_9allocatorIS7_EEEEE4$_15PNS_4pairIyPKS7_EEEEvT1_SK_T0_', symObjAddr: 0xCB214, symBinAddr: 0x1000CE304, symSize: 0x144 }
  - { offsetInCU: 0x81567, offset: 0x81567, size: 0x8, addend: 0x0, symName: '__ZNSt3__111__sift_downB7v160006INS_17_ClassicAlgPolicyERZN5Catch9sortTestsERKNS2_7IConfigERKNS_6vectorINS2_8TestCaseENS_9allocatorIS7_EEEEE4$_15PNS_4pairIyPKS7_EEEEvT1_OT0_NS_15iterator_traitsISK_E15difference_typeESK_', symObjAddr: 0xCBCF4, symBinAddr: 0x1000CEDE4, symSize: 0x20C }
  - { offsetInCU: 0x8161E, offset: 0x8161E, size: 0x8, addend: 0x0, symName: '__ZNSt3__117__floyd_sift_downB7v160006INS_17_ClassicAlgPolicyERZN5Catch9sortTestsERKNS2_7IConfigERKNS_6vectorINS2_8TestCaseENS_9allocatorIS7_EEEEE4$_15PNS_4pairIyPKS7_EEEET1_SK_OT0_NS_15iterator_traitsISK_E15difference_typeE', symObjAddr: 0xCC084, symBinAddr: 0x1000CF174, symSize: 0x100 }
  - { offsetInCU: 0x816BD, offset: 0x816BD, size: 0x8, addend: 0x0, symName: '__ZNSt3__127__insertion_sort_incompleteIRZN5Catch9sortTestsERKNS1_7IConfigERKNS_6vectorINS1_8TestCaseENS_9allocatorIS6_EEEEE4$_15PNS_4pairIyPKS6_EEEEbT0_SJ_T_', symObjAddr: 0xCB584, symBinAddr: 0x1000CE674, symSize: 0x310 }
  - { offsetInCU: 0x83EC0, offset: 0x83EC0, size: 0x8, addend: 0x0, symName: __ZNSt3__17advanceB7v160006INS_11__wrap_iterIPKNS_12basic_stringIcNS_11char_traitsIcEENS_9allocatorIcEEEEEEllvEEvRT_T0_, symObjAddr: 0xD15C0, symBinAddr: 0x1000D46B0, symSize: 0x50 }
  - { offsetInCU: 0x859CA, offset: 0x859CA, size: 0x8, addend: 0x0, symName: __ZNSt3__17advanceB7v160006INS_21__tree_const_iteratorIN5Catch9VerbosityEPNS_11__tree_nodeIS3_PvEElEEllvEEvRT_T0_, symObjAddr: 0xDA810, symBinAddr: 0x1000DD900, symSize: 0x50 }
  - { offsetInCU: 0x90C04, offset: 0x90C04, size: 0x8, addend: 0x0, symName: __ZNSt3__1lsB7v160006INS_11char_traitsIcEEEERNS_13basic_ostreamIcT_EES6_PKc, symObjAddr: 0xBCC, symBinAddr: 0x100003CBC, symSize: 0x48 }
  - { offsetInCU: 0x90C4A, offset: 0x90C4A, size: 0x8, addend: 0x0, symName: __ZNSt3__1neB7v160006IcNS_11char_traitsIcEENS_9allocatorIcEEEEbRKNS_12basic_stringIT_T0_T1_EESB_, symObjAddr: 0x1CBC, symBinAddr: 0x100004DAC, symSize: 0x34 }
  - { offsetInCU: 0x90CA2, offset: 0x90CA2, size: 0x8, addend: 0x0, symName: __ZNSt3__1lsB7v160006INS_11char_traitsIcEEEERNS_13basic_ostreamIcT_EES6_c, symObjAddr: 0x5930, symBinAddr: 0x100008A20, symSize: 0x34 }
  - { offsetInCU: 0x90CE9, offset: 0x90CE9, size: 0x8, addend: 0x0, symName: __ZNSt3__1neB7v160006IPNS_12basic_stringIcNS_11char_traitsIcEENS_9allocatorIcEEEEEEbRKNS_11__wrap_iterIT_EESC_, symObjAddr: 0x5EC4, symBinAddr: 0x100008FB4, symSize: 0x34 }
  - { offsetInCU: 0x90D4D, offset: 0x90D4D, size: 0x8, addend: 0x0, symName: __ZNSt3__1lsB7v160006IcNS_11char_traitsIcEENS_9allocatorIcEEEERNS_13basic_ostreamIT_T0_EES9_RKNS_12basic_stringIS6_S7_T1_EE, symObjAddr: 0x710C, symBinAddr: 0x10000A1FC, symSize: 0x4C }
  - { offsetInCU: 0x90DA5, offset: 0x90DA5, size: 0x8, addend: 0x0, symName: __ZNSt3__14endlB7v160006IcNS_11char_traitsIcEEEERNS_13basic_ostreamIT_T0_EES7_, symObjAddr: 0x72B4, symBinAddr: 0x10000A3A4, symSize: 0x58 }
  - { offsetInCU: 0x90DE6, offset: 0x90DE6, size: 0x8, addend: 0x0, symName: __ZNSt3__1neB7v160006IPN5Catch9StringRefEEEbRKNS_11__wrap_iterIT_EES8_, symObjAddr: 0x7BB0, symBinAddr: 0x10000ACA0, symSize: 0x34 }
  - { offsetInCU: 0x90E2C, offset: 0x90E2C, size: 0x8, addend: 0x0, symName: __ZNSt3__1neB7v160006IPKNS_4pairIiN5Catch9StringRefEEEEEbRKNS_11__wrap_iterIT_EESB_, symObjAddr: 0x8060, symBinAddr: 0x10000B150, symSize: 0x34 }
  - { offsetInCU: 0x90E72, offset: 0x90E72, size: 0x8, addend: 0x0, symName: __ZNSt3__1neB7v160006IPKiEEbRKNS_11__wrap_iterIT_EES7_, symObjAddr: 0x8528, symBinAddr: 0x10000B618, symSize: 0x34 }
  - { offsetInCU: 0x90EB8, offset: 0x90EB8, size: 0x8, addend: 0x0, symName: __ZNSt3__13maxB7v160006ImEERKT_S3_S3_, symObjAddr: 0x906C, symBinAddr: 0x10000C15C, symSize: 0x2C }
  - { offsetInCU: 0x90EFE, offset: 0x90EFE, size: 0x8, addend: 0x0, symName: __ZNSt3__1neB7v160006IPN5Catch8TestCaseEEEbRKNS_11__wrap_iterIT_EES8_, symObjAddr: 0xAF48, symBinAddr: 0x10000E038, symSize: 0x34 }
  - { offsetInCU: 0x90F43, offset: 0x90F43, size: 0x8, addend: 0x0, symName: __ZNSt3__1neB7v160006ERKNS_21__tree_const_iteratorINS_12basic_stringIcNS_11char_traitsIcEENS_9allocatorIcEEEEPNS_11__tree_nodeIS6_PvEElEESD_, symObjAddr: 0xB998, symBinAddr: 0x10000EA88, symSize: 0x34 }
  - { offsetInCU: 0x90F81, offset: 0x90F81, size: 0x8, addend: 0x0, symName: __ZNSt3__1neB7v160006IPKNS_12basic_stringIcNS_11char_traitsIcEENS_9allocatorIcEEEEEEbRKNS_11__wrap_iterIT_EESD_, symObjAddr: 0xC140, symBinAddr: 0x10000F230, symSize: 0x34 }
  - { offsetInCU: 0x90FC6, offset: 0x90FC6, size: 0x8, addend: 0x0, symName: __ZNSt3__1eqB7v160006ERKNS_14__map_iteratorINS_15__tree_iteratorINS_12__value_typeINS_12basic_stringIcNS_11char_traitsIcEENS_9allocatorIcEEEEN5Catch7TagInfoEEEPNS_11__tree_nodeISB_PvEElEEEESJ_, symObjAddr: 0xC26C, symBinAddr: 0x10000F35C, symSize: 0x30 }
  - { offsetInCU: 0x910E9, offset: 0x910E9, size: 0x8, addend: 0x0, symName: __ZNSt3__19make_pairB7v160006IRNS_12basic_stringIcNS_11char_traitsIcEENS_9allocatorIcEEEEN5Catch7TagInfoEEENS_4pairINS_18__unwrap_ref_decayIT_E4typeENSB_IT0_E4typeEEEOSC_OSF_, symObjAddr: 0xC320, symBinAddr: 0x10000F410, symSize: 0x40 }
  - { offsetInCU: 0x91138, offset: 0x91138, size: 0x8, addend: 0x0, symName: __ZNSt3__1neB7v160006ERKNS_14__map_iteratorINS_15__tree_iteratorINS_12__value_typeINS_12basic_stringIcNS_11char_traitsIcEENS_9allocatorIcEEEEN5Catch7TagInfoEEEPNS_11__tree_nodeISB_PvEElEEEESJ_, symObjAddr: 0xC468, symBinAddr: 0x10000F558, symSize: 0x30 }
  - { offsetInCU: 0x91175, offset: 0x91175, size: 0x8, addend: 0x0, symName: __ZNSt3__14setwB7v160006Ei, symObjAddr: 0xC4F8, symBinAddr: 0x10000F5E8, symSize: 0x2C }
  - { offsetInCU: 0x911A3, offset: 0x911A3, size: 0x8, addend: 0x0, symName: __ZNSt3__1neB7v160006ERKNS_20__map_const_iteratorINS_21__tree_const_iteratorINS_12__value_typeINS_12basic_stringIcNS_11char_traitsIcEENS_9allocatorIcEEEENS_10shared_ptrIN5Catch16IReporterFactoryEEEEEPNS_11__tree_nodeISD_PvEElEEEESL_, symObjAddr: 0xCA00, symBinAddr: 0x10000FAF0, symSize: 0x30 }
  - { offsetInCU: 0x911E0, offset: 0x911E0, size: 0x8, addend: 0x0, symName: __ZNSt3__1plB7v160006IcNS_11char_traitsIcEENS_9allocatorIcEEEENS_12basic_stringIT_T0_T1_EERKS9_PKS6_, symObjAddr: 0xCBCC, symBinAddr: 0x10000FCBC, symSize: 0x11C }
  - { offsetInCU: 0x91281, offset: 0x91281, size: 0x8, addend: 0x0, symName: __ZNSt3__1eqB7v160006IcNS_11char_traitsIcEENS_9allocatorIcEEEEbPKT_RKNS_12basic_stringIS5_T0_T1_EE, symObjAddr: 0xD334, symBinAddr: 0x100010424, symSize: 0xAC }
  - { offsetInCU: 0x912E8, offset: 0x912E8, size: 0x8, addend: 0x0, symName: __ZNSt3__1plB7v160006IcNS_11char_traitsIcEENS_9allocatorIcEEEENS_12basic_stringIT_T0_T1_EEOS9_PKS6_, symObjAddr: 0xD480, symBinAddr: 0x100010570, symSize: 0x40 }
  - { offsetInCU: 0x91340, offset: 0x91340, size: 0x8, addend: 0x0, symName: __ZNSt3__1plB7v160006IcNS_11char_traitsIcEENS_9allocatorIcEEEENS_12basic_stringIT_T0_T1_EEOS9_SA_, symObjAddr: 0xD998, symBinAddr: 0x100010A88, symSize: 0x40 }
  - { offsetInCU: 0x91398, offset: 0x91398, size: 0x8, addend: 0x0, symName: __ZNSt3__1plB7v160006IcNS_11char_traitsIcEENS_9allocatorIcEEEENS_12basic_stringIT_T0_T1_EEPKS6_OS9_, symObjAddr: 0xD9D8, symBinAddr: 0x100010AC8, symSize: 0x44 }
  - { offsetInCU: 0x91D9A, offset: 0x91D9A, size: 0x8, addend: 0x0, symName: __ZNSt3__13maxB7v160006IdEERKT_S3_S3_, symObjAddr: 0xE8D4, symBinAddr: 0x1000119C4, symSize: 0x2C }
  - { offsetInCU: 0x91DDF, offset: 0x91DDF, size: 0x8, addend: 0x0, symName: __ZNSt3__1plB7v160006IcNS_11char_traitsIcEENS_9allocatorIcEEEENS_12basic_stringIT_T0_T1_EEOS9_S6_, symObjAddr: 0xEDB8, symBinAddr: 0x100011EA8, symSize: 0x40 }
  - { offsetInCU: 0x91E37, offset: 0x91E37, size: 0x8, addend: 0x0, symName: __ZNSt3__1eqB7v160006INS_9allocatorIcEEEEbRKNS_12basic_stringIcNS_11char_traitsIcEET_EES9_, symObjAddr: 0xF3D0, symBinAddr: 0x1000124C0, symSize: 0x148 }
  - { offsetInCU: 0x91EAA, offset: 0x91EAA, size: 0x8, addend: 0x0, symName: __ZNSt3__111regex_matchB7v160006INS_11char_traitsIcEENS_9allocatorIcEEcNS_12regex_traitsIcEEEEbRKNS_12basic_stringIT1_T_T0_EERKNS_11basic_regexIS8_T2_EENS_15regex_constants15match_flag_typeE, symObjAddr: 0xFD40, symBinAddr: 0x100012E30, symSize: 0x54 }
  - { offsetInCU: 0x920F7, offset: 0x920F7, size: 0x8, addend: 0x0, symName: __ZNSt3__1eqB7v160006ERKNS_20__map_const_iteratorINS_21__tree_const_iteratorINS_12__value_typeINS_12basic_stringIcNS_11char_traitsIcEENS_9allocatorIcEEEENS_10shared_ptrIN5Catch16IReporterFactoryEEEEEPNS_11__tree_nodeISD_PvEElEEEESL_, symObjAddr: 0x11C4C, symBinAddr: 0x100014D3C, symSize: 0x30 }
  - { offsetInCU: 0x92135, offset: 0x92135, size: 0x8, addend: 0x0, symName: __ZNSt3__16removeB7v160006INS_11__wrap_iterIPN5Catch11MessageInfoEEES3_EET_S6_S6_RKT0_, symObjAddr: 0x14754, symBinAddr: 0x100017844, symSize: 0xF4 }
  - { offsetInCU: 0x921B0, offset: 0x921B0, size: 0x8, addend: 0x0, symName: __ZNSt3__1neB7v160006INS_11__wrap_iterIPN5Catch14SectionEndInfoEEES5_EEbRKNS_16reverse_iteratorIT_EERKNS6_IT0_EE, symObjAddr: 0x1524C, symBinAddr: 0x10001833C, symSize: 0x54 }
  - { offsetInCU: 0x921FF, offset: 0x921FF, size: 0x8, addend: 0x0, symName: __ZNSt3__1neB7v160006IPKSt13exception_ptrEEbRKNS_11__wrap_iterIT_EES8_, symObjAddr: 0x1656C, symBinAddr: 0x10001965C, symSize: 0x34 }
  - { offsetInCU: 0x92244, offset: 0x92244, size: 0x8, addend: 0x0, symName: __ZNSt3__1lsB7v160006IcNS_11char_traitsIcEEEERNS_13basic_ostreamIT_T0_EES7_RKNS_8__iom_t6E, symObjAddr: 0x16AA0, symBinAddr: 0x100019B90, symSize: 0x40 }
  - { offsetInCU: 0x92293, offset: 0x92293, size: 0x8, addend: 0x0, symName: __ZNSt3__14leftB7v160006ERNS_8ios_baseE, symObjAddr: 0x16B20, symBinAddr: 0x100019C10, symSize: 0x30 }
  - { offsetInCU: 0x922C1, offset: 0x922C1, size: 0x8, addend: 0x0, symName: __ZNSt3__111make_sharedB7v160006IN5Catch6ConfigEJRNS1_10ConfigDataEEvEENS_10shared_ptrIT_EEDpOT0_, symObjAddr: 0x17630, symBinAddr: 0x10001A720, symSize: 0x40 }
  - { offsetInCU: 0x92307, offset: 0x92307, size: 0x8, addend: 0x0, symName: __ZNSt3__13minB7v160006IiEERKT_S3_S3_, symObjAddr: 0x178E4, symBinAddr: 0x10001A9D4, symSize: 0x2C }
  - { offsetInCU: 0x92A6A, offset: 0x92A6A, size: 0x8, addend: 0x0, symName: __ZNSt3__13maxB7v160006IiEERKT_S3_S3_, symObjAddr: 0x17C4C, symBinAddr: 0x10001AD3C, symSize: 0x2C }
  - { offsetInCU: 0x92AB0, offset: 0x92AB0, size: 0x8, addend: 0x0, symName: __ZNSt3__1neB7v160006IPPN5Catch10ISingletonEEEbRKNS_11__wrap_iterIT_EES9_, symObjAddr: 0x17E6C, symBinAddr: 0x10001AF5C, symSize: 0x34 }
  - { offsetInCU: 0x93752, offset: 0x93752, size: 0x8, addend: 0x0, symName: __ZNSt3__15equalB7v160006INS_11__wrap_iterIPKcEES4_EEbT_S5_T0_, symObjAddr: 0x18608, symBinAddr: 0x10001B6F8, symSize: 0x50 }
  - { offsetInCU: 0x937B0, offset: 0x937B0, size: 0x8, addend: 0x0, symName: __ZNSt3__15equalB7v160006INS_16reverse_iteratorINS_11__wrap_iterIPKcEEEES6_EEbT_S7_T0_, symObjAddr: 0x18728, symBinAddr: 0x10001B818, symSize: 0x68 }
  - { offsetInCU: 0x9380E, offset: 0x9380E, size: 0x8, addend: 0x0, symName: __ZNSt3__19transformB7v160006INS_11__wrap_iterIPcEES3_PFccEEET0_T_S7_S6_T1_, symObjAddr: 0x18964, symBinAddr: 0x10001BA54, symSize: 0x98 }
  - { offsetInCU: 0x93883, offset: 0x93883, size: 0x8, addend: 0x0, symName: __ZNSt3__1plB7v160006IcNS_11char_traitsIcEENS_9allocatorIcEEEENS_12basic_stringIT_T0_T1_EEOS9_RKS9_, symObjAddr: 0x18F3C, symBinAddr: 0x10001C02C, symSize: 0x40 }
  - { offsetInCU: 0x938DC, offset: 0x938DC, size: 0x8, addend: 0x0, symName: __ZNSt3__13minB7v160006ImEERKT_S3_S3_, symObjAddr: 0x191C0, symBinAddr: 0x10001C2B0, symSize: 0x2C }
  - { offsetInCU: 0x93921, offset: 0x93921, size: 0x8, addend: 0x0, symName: __ZNSt3__1neB7v160006ERKNS_20__map_const_iteratorINS_21__tree_const_iteratorINS_12__value_typeINS_12basic_stringIcNS_11char_traitsIcEENS_9allocatorIcEEEEN5Catch8TagAliasEEEPNS_11__tree_nodeISB_PvEElEEEESJ_, symObjAddr: 0x1958C, symBinAddr: 0x10001C67C, symSize: 0x30 }
  - { offsetInCU: 0x93A44, offset: 0x93A44, size: 0x8, addend: 0x0, symName: __ZNSt3__19make_pairB7v160006IRKNS_12basic_stringIcNS_11char_traitsIcEENS_9allocatorIcEEEEN5Catch8TagAliasEEENS_4pairINS_18__unwrap_ref_decayIT_E4typeENSC_IT0_E4typeEEEOSD_OSG_, symObjAddr: 0x19D00, symBinAddr: 0x10001CDF0, symSize: 0x40 }
  - { offsetInCU: 0x93A93, offset: 0x93A93, size: 0x8, addend: 0x0, symName: __ZNSt3__14sortB7v160006INS_11__wrap_iterIPNS_12basic_stringIcNS_11char_traitsIcEENS_9allocatorIcEEEEEEEEvT_SA_, symObjAddr: 0x1A8F8, symBinAddr: 0x10001D9E8, symSize: 0x3C }
  - { offsetInCU: 0x93AD6, offset: 0x93AD6, size: 0x8, addend: 0x0, symName: __ZNSt3__15beginB7v160006INS_6vectorINS_12basic_stringIcNS_11char_traitsIcEENS_9allocatorIcEEEENS5_IS7_EEEEEEDTcldtfp_5beginEERT_, symObjAddr: 0x1A934, symBinAddr: 0x10001DA24, symSize: 0x2C }
  - { offsetInCU: 0x93B0D, offset: 0x93B0D, size: 0x8, addend: 0x0, symName: __ZNSt3__13endB7v160006INS_6vectorINS_12basic_stringIcNS_11char_traitsIcEENS_9allocatorIcEEEENS5_IS7_EEEEEEDTcldtfp_3endEERT_, symObjAddr: 0x1A960, symBinAddr: 0x10001DA50, symSize: 0x2C }
  - { offsetInCU: 0x93B44, offset: 0x93B44, size: 0x8, addend: 0x0, symName: __ZNSt3__16uniqueB7v160006INS_11__wrap_iterIPNS_12basic_stringIcNS_11char_traitsIcEENS_9allocatorIcEEEEEEEET_SA_SA_, symObjAddr: 0x1AA7C, symBinAddr: 0x10001DB6C, symSize: 0x44 }
  - { offsetInCU: 0x93B89, offset: 0x93B89, size: 0x8, addend: 0x0, symName: __ZNSt3__1ltB7v160006IcNS_11char_traitsIcEENS_9allocatorIcEEEEbRKNS_12basic_stringIT_T0_T1_EESB_, symObjAddr: 0x1B100, symBinAddr: 0x10001E1F0, symSize: 0x38 }
  - { offsetInCU: 0x93BE1, offset: 0x93BE1, size: 0x8, addend: 0x0, symName: __ZNSt3__14sortB7v160006INS_11__wrap_iterIPN5Catch8TestCaseEEEEEvT_S6_, symObjAddr: 0x1B4A4, symBinAddr: 0x10001E594, symSize: 0x3C }
  - { offsetInCU: 0x93C24, offset: 0x93C24, size: 0x8, addend: 0x0, symName: __ZNSt3__1neB7v160006IPKN5Catch8TestCaseEEEbRKNS_11__wrap_iterIT_EES9_, symObjAddr: 0x1B688, symBinAddr: 0x10001E778, symSize: 0x34 }
  - { offsetInCU: 0x93C69, offset: 0x93C69, size: 0x8, addend: 0x0, symName: '__ZNSt3__14sortB7v160006INS_11__wrap_iterIPNS_4pairIyPKN5Catch8TestCaseEEEEEZNS3_9sortTestsERKNS3_7IConfigERKNS_6vectorIS4_NS_9allocatorIS4_EEEEE4$_15EEvT_SK_T0_', symObjAddr: 0x1B874, symBinAddr: 0x10001E964, symSize: 0x40 }
  - { offsetInCU: 0x93CC4, offset: 0x93CC4, size: 0x8, addend: 0x0, symName: __ZNSt3__1neB7v160006IPNS_4pairIyPKN5Catch8TestCaseEEEEEbRKNS_11__wrap_iterIT_EESC_, symObjAddr: 0x1BA50, symBinAddr: 0x10001EB40, symSize: 0x34 }
  - { offsetInCU: 0x943D7, offset: 0x943D7, size: 0x8, addend: 0x0, symName: __ZNSt3__111make_sharedB7v160006IN5Catch16TestCaseTracking14SectionTrackerEJNS2_15NameAndLocationERNS2_14TrackerContextEDnEvEENS_10shared_ptrIT_EEDpOT0_, symObjAddr: 0x1C6CC, symBinAddr: 0x10001F7BC, symSize: 0x50 }
  - { offsetInCU: 0x94447, offset: 0x94447, size: 0x8, addend: 0x0, symName: '__ZNSt3__17find_ifB7v160006INS_11__wrap_iterIPNS_10shared_ptrIN5Catch16TestCaseTracking8ITrackerEEEEEZNS4_11TrackerBase9findChildERKNS4_15NameAndLocationEE4$_16EET_SE_SE_T0_', symObjAddr: 0x1CC5C, symBinAddr: 0x10001FD4C, symSize: 0x78 }
  - { offsetInCU: 0x944A5, offset: 0x944A5, size: 0x8, addend: 0x0, symName: __ZNSt3__1neB7v160006IPNS_10shared_ptrIN5Catch16TestCaseTracking8ITrackerEEEEEbRKNS_11__wrap_iterIT_EESB_, symObjAddr: 0x1CD34, symBinAddr: 0x10001FE24, symSize: 0x34 }
  - { offsetInCU: 0x944EB, offset: 0x944EB, size: 0x8, addend: 0x0, symName: '__ZNSt3__16all_ofB7v160006INS_11__wrap_iterIPNS_10shared_ptrIN5Catch16TestCaseTracking8ITrackerEEEEEZNS4_11TrackerBase5closeEvE4$_17EEbT_SB_T0_', symObjAddr: 0x1D254, symBinAddr: 0x100020344, symSize: 0x94 }
  - { offsetInCU: 0x94548, offset: 0x94548, size: 0x8, addend: 0x0, symName: __ZNSt3__1eqB7v160006IcNS_11char_traitsIcEENS_9allocatorIcEEEEbRKNS_12basic_stringIT_T0_T1_EEPKS6_, symObjAddr: 0x1D7A0, symBinAddr: 0x100020890, symSize: 0xAC }
  - { offsetInCU: 0x945B0, offset: 0x945B0, size: 0x8, addend: 0x0, symName: __ZNSt3__14findB7v160006INS_11__wrap_iterIPKNS_12basic_stringIcNS_11char_traitsIcEENS_9allocatorIcEEEEEES7_EET_SB_SB_RKT0_, symObjAddr: 0x1D878, symBinAddr: 0x100020968, symSize: 0x74 }
  - { offsetInCU: 0x9460D, offset: 0x9460D, size: 0x8, addend: 0x0, symName: __ZNSt3__119static_pointer_castB7v160006IN5Catch16TestCaseTracking14SectionTrackerENS2_8ITrackerEEENS_10shared_ptrIT_EERKNS5_IT0_EE, symObjAddr: 0x1D978, symBinAddr: 0x100020A68, symSize: 0x44 }
  - { offsetInCU: 0x9464D, offset: 0x9464D, size: 0x8, addend: 0x0, symName: __ZNSt3__111make_sharedB7v160006IN5Catch16TestCaseTracking14SectionTrackerEJRKNS2_15NameAndLocationERNS2_14TrackerContextEPNS2_8ITrackerEEvEENS_10shared_ptrIT_EEDpOT0_, symObjAddr: 0x1DA0C, symBinAddr: 0x100020AFC, symSize: 0x50 }
  - { offsetInCU: 0x946BD, offset: 0x946BD, size: 0x8, addend: 0x0, symName: __ZNSt3__15beginB7v160006INS_6vectorINS_12basic_stringIcNS_11char_traitsIcEENS_9allocatorIcEEEENS5_IS7_EEEEEEDTcldtfp_5beginEERKT_, symObjAddr: 0x1E930, symBinAddr: 0x100021A20, symSize: 0x2C }
  - { offsetInCU: 0x946F4, offset: 0x946F4, size: 0x8, addend: 0x0, symName: __ZNSt3__13endB7v160006INS_6vectorINS_12basic_stringIcNS_11char_traitsIcEENS_9allocatorIcEEEENS5_IS7_EEEEEEDTcldtfp_3endEERKT_, symObjAddr: 0x1E95C, symBinAddr: 0x100021A4C, symSize: 0x2C }
  - { offsetInCU: 0x9472B, offset: 0x9472B, size: 0x8, addend: 0x0, symName: '__ZNSt3__16all_ofB7v160006INS_11__wrap_iterIPKNS_10shared_ptrIN5Catch8TestSpec7PatternEEEEEZNKS4_6Filter7matchesERKNS3_12TestCaseInfoEE4$_18EEbT_SF_T0_', symObjAddr: 0x1EB14, symBinAddr: 0x100021C04, symSize: 0x98 }
  - { offsetInCU: 0x94789, offset: 0x94789, size: 0x8, addend: 0x0, symName: __ZNSt3__1neB7v160006IPKNS_10shared_ptrIN5Catch8TestSpec7PatternEEEEEbRKNS_11__wrap_iterIT_EESC_, symObjAddr: 0x1ED14, symBinAddr: 0x100021E04, symSize: 0x34 }
  - { offsetInCU: 0x947CF, offset: 0x947CF, size: 0x8, addend: 0x0, symName: '__ZNSt3__16any_ofB7v160006INS_11__wrap_iterIPKN5Catch8TestSpec6FilterEEEZNKS3_7matchesERKNS2_12TestCaseInfoEE4$_19EEbT_SC_T0_', symObjAddr: 0x1EDA8, symBinAddr: 0x100021E98, symSize: 0x98 }
  - { offsetInCU: 0x9482D, offset: 0x9482D, size: 0x8, addend: 0x0, symName: '__ZNSt3__19transformB7v160006INS_11__wrap_iterIPKN5Catch8TestSpec6FilterEEENS1_IPNS3_11FilterMatchEEEZNKS3_15matchesByFilterERKNS_6vectorINS2_8TestCaseENS_9allocatorISC_EEEERKNS2_7IConfigEE4$_20EET0_T_SN_SM_T1_', symObjAddr: 0x1F000, symBinAddr: 0x1000220F0, symSize: 0x9C }
  - { offsetInCU: 0x948A2, offset: 0x948A2, size: 0x8, addend: 0x0, symName: __ZNSt3__111make_sharedB7v160006IN5Catch8TestSpec11NamePatternEJRNS_12basic_stringIcNS_11char_traitsIcEENS_9allocatorIcEEEESA_EvEENS_10shared_ptrIT_EEDpOT0_, symObjAddr: 0x20298, symBinAddr: 0x100023388, symSize: 0x48 }
  - { offsetInCU: 0x94AE8, offset: 0x94AE8, size: 0x8, addend: 0x0, symName: __ZNSt3__111make_sharedB7v160006IN5Catch8TestSpec15ExcludedPatternEJRNS_10shared_ptrINS2_7PatternEEEEvEENS4_IT_EEDpOT0_, symObjAddr: 0x20340, symBinAddr: 0x100023430, symSize: 0x40 }
  - { offsetInCU: 0x94D19, offset: 0x94D19, size: 0x8, addend: 0x0, symName: __ZNSt3__111make_sharedB7v160006IN5Catch8TestSpec10TagPatternEJRA2_KcRNS_12basic_stringIcNS_11char_traitsIcEENS_9allocatorIcEEEEEvEENS_10shared_ptrIT_EEDpOT0_, symObjAddr: 0x20548, symBinAddr: 0x100023638, symSize: 0x48 }
  - { offsetInCU: 0x94F5F, offset: 0x94F5F, size: 0x8, addend: 0x0, symName: __ZNSt3__111make_sharedB7v160006IN5Catch8TestSpec10TagPatternEJRNS_12basic_stringIcNS_11char_traitsIcEENS_9allocatorIcEEEESA_EvEENS_10shared_ptrIT_EEDpOT0_, symObjAddr: 0x205F0, symBinAddr: 0x1000236E0, symSize: 0x48 }
  - { offsetInCU: 0x94FBA, offset: 0x94FBA, size: 0x8, addend: 0x0, symName: __ZNSt3__17setfillB7v160006IcEENS_8__iom_t4IT_EES2_, symObjAddr: 0x20BC8, symBinAddr: 0x100023CB8, symSize: 0x2C }
  - { offsetInCU: 0x94FF0, offset: 0x94FF0, size: 0x8, addend: 0x0, symName: __ZNSt3__13hexB7v160006ERNS_8ios_baseE, symObjAddr: 0x20C2C, symBinAddr: 0x100023D1C, symSize: 0x30 }
  - { offsetInCU: 0x9501E, offset: 0x9501E, size: 0x8, addend: 0x0, symName: __ZNSt3__1plB7v160006IcNS_11char_traitsIcEENS_9allocatorIcEEEENS_12basic_stringIT_T0_T1_EES6_RKS9_, symObjAddr: 0x20E80, symBinAddr: 0x100023F70, symSize: 0x10C }
  - { offsetInCU: 0x950B1, offset: 0x950B1, size: 0x8, addend: 0x0, symName: __ZNSt3__1neB7v160006IPKcEEbRKNS_11__wrap_iterIT_EES7_, symObjAddr: 0x20F8C, symBinAddr: 0x10002407C, symSize: 0x34 }
  - { offsetInCU: 0x975F0, offset: 0x975F0, size: 0x8, addend: 0x0, symName: __ZNSt3__1neB7v160006IPKwEEbRKNS_11__wrap_iterIT_EES7_, symObjAddr: 0x21334, symBinAddr: 0x100024424, symSize: 0x34 }
  - { offsetInCU: 0x976BE, offset: 0x976BE, size: 0x8, addend: 0x0, symName: __ZNSt3__1lsB7v160006INS_11char_traitsIcEEEERNS_13basic_ostreamIcT_EES6_h, symObjAddr: 0x22AE4, symBinAddr: 0x100025BD4, symSize: 0x34 }
  - { offsetInCU: 0x97704, offset: 0x97704, size: 0x8, addend: 0x0, symName: __ZNSt3__15flushB7v160006IcNS_11char_traitsIcEEEERNS_13basic_ostreamIT_T0_EES7_, symObjAddr: 0x23764, symBinAddr: 0x100026854, symSize: 0x28 }
  - { offsetInCU: 0x97745, offset: 0x97745, size: 0x8, addend: 0x0, symName: __ZNSt3__1neB7v160006IPN5Catch11SectionInfoEEEbRKNS_11__wrap_iterIT_EES8_, symObjAddr: 0x27C14, symBinAddr: 0x10002AD04, symSize: 0x34 }
  - { offsetInCU: 0x9778B, offset: 0x9778B, size: 0x8, addend: 0x0, symName: __ZNSt3__1neB7v160006IPKN5Catch13SummaryColumnEEEbRKNS_11__wrap_iterIT_EES9_, symObjAddr: 0x28534, symBinAddr: 0x10002B624, symSize: 0x34 }
  - { offsetInCU: 0x977D0, offset: 0x977D0, size: 0x8, addend: 0x0, symName: __ZNSt3__1neB7v160006IcNS_11char_traitsIcEENS_9allocatorIcEEEEbRKNS_12basic_stringIT_T0_T1_EEPKS6_, symObjAddr: 0x285E0, symBinAddr: 0x10002B6D0, symSize: 0x34 }
  - { offsetInCU: 0x97829, offset: 0x97829, size: 0x8, addend: 0x0, symName: __ZNSt3__1neB7v160006IPKNS_10shared_ptrIN5Catch22CumulativeReporterBaseINS2_13JunitReporterEE4NodeINS2_13TestCaseStatsENS5_11SectionNodeEEEEEEEbRKNS_11__wrap_iterIT_EESH_, symObjAddr: 0x2A2CC, symBinAddr: 0x10002D3BC, symSize: 0x34 }
  - { offsetInCU: 0x9786E, offset: 0x9786E, size: 0x8, addend: 0x0, symName: __ZNSt3__1plB7v160006IcNS_11char_traitsIcEENS_9allocatorIcEEEENS_12basic_stringIT_T0_T1_EERKS9_S6_, symObjAddr: 0x2AEC4, symBinAddr: 0x10002DFB4, symSize: 0x110 }
  - { offsetInCU: 0x97901, offset: 0x97901, size: 0x8, addend: 0x0, symName: __ZNSt3__1neB7v160006IPKNS_10shared_ptrIN5Catch22CumulativeReporterBaseINS2_13JunitReporterEE11SectionNodeEEEEEbRKNS_11__wrap_iterIT_EESE_, symObjAddr: 0x2B1F4, symBinAddr: 0x10002E2E4, symSize: 0x34 }
  - { offsetInCU: 0x97947, offset: 0x97947, size: 0x8, addend: 0x0, symName: __ZNSt3__1neB7v160006IPKN5Catch14AssertionStatsEEEbRKNS_11__wrap_iterIT_EES9_, symObjAddr: 0x2B2C0, symBinAddr: 0x10002E3B0, symSize: 0x34 }
  - { offsetInCU: 0x9798D, offset: 0x9798D, size: 0x8, addend: 0x0, symName: __ZNSt3__1neB7v160006IPKN5Catch11MessageInfoEEEbRKNS_11__wrap_iterIT_EES9_, symObjAddr: 0x2BB2C, symBinAddr: 0x10002EC1C, symSize: 0x34 }
  - { offsetInCU: 0x979D3, offset: 0x979D3, size: 0x8, addend: 0x0, symName: __ZNSt3__1neB7v160006IPNS_10unique_ptrIN5Catch18IStreamingReporterENS_14default_deleteIS3_EEEEEEbRKNS_11__wrap_iterIT_EESC_, symObjAddr: 0x2C07C, symBinAddr: 0x10002F16C, symSize: 0x34 }
  - { offsetInCU: 0x97A19, offset: 0x97A19, size: 0x8, addend: 0x0, symName: __ZNSt3__119__debug_db_insert_cB7v160006INS_12basic_stringIcNS_11char_traitsIcEENS_9allocatorIcEEEEEEvPT_, symObjAddr: 0x32154, symBinAddr: 0x100035244, symSize: 0x10 }
  - { offsetInCU: 0x97A4B, offset: 0x97A4B, size: 0x8, addend: 0x0, symName: __ZNSt3__111make_sharedB7v160006IN5Catch5clara6detail13BoundValueRefINS_12basic_stringIcNS_11char_traitsIcEENS_9allocatorIcEEEEEEJRSA_EvEENS_10shared_ptrIT_EEDpOT0_, symObjAddr: 0x32278, symBinAddr: 0x100035368, symSize: 0x40 }
  - { offsetInCU: 0x97C7C, offset: 0x97C7C, size: 0x8, addend: 0x0, symName: __ZNSt3__111make_sharedB7v160006INS_12basic_stringIcNS_11char_traitsIcEENS_9allocatorIcEEEEJRA13_KcEvEENS_10shared_ptrIT_EEDpOT0_, symObjAddr: 0x32404, symBinAddr: 0x1000354F4, symSize: 0x40 }
  - { offsetInCU: 0x97CC1, offset: 0x97CC1, size: 0x8, addend: 0x0, symName: __ZNSt3__115allocate_sharedB7v160006INS_12basic_stringIcNS_11char_traitsIcEENS_9allocatorIcEEEENS4_IS6_EEJRA13_KcEvEENS_10shared_ptrIT_EERKT0_DpOT1_, symObjAddr: 0x325E4, symBinAddr: 0x1000356D4, symSize: 0x98 }
  - { offsetInCU: 0x97FF1, offset: 0x97FF1, size: 0x8, addend: 0x0, symName: __ZNSt3__117__libcpp_allocateB7v160006Emm, symObjAddr: 0x329EC, symBinAddr: 0x100035ADC, symSize: 0x28 }
  - { offsetInCU: 0x9802E, offset: 0x9802E, size: 0x8, addend: 0x0, symName: __ZNSt3__121__libcpp_operator_newB7v160006IJmEEEPvDpT_, symObjAddr: 0x32A2C, symBinAddr: 0x100035B1C, symSize: 0x24 }
  - { offsetInCU: 0x9809F, offset: 0x9809F, size: 0x8, addend: 0x0, symName: __ZNSt3__119__libcpp_deallocateB7v160006EPvmm, symObjAddr: 0x32E74, symBinAddr: 0x100035F64, symSize: 0x30 }
  - { offsetInCU: 0x980E7, offset: 0x980E7, size: 0x8, addend: 0x0, symName: __ZNSt3__127__do_deallocate_handle_sizeB7v160006IJEEEvPvmDpT_, symObjAddr: 0x32EA4, symBinAddr: 0x100035F94, symSize: 0x28 }
  - { offsetInCU: 0x98126, offset: 0x98126, size: 0x8, addend: 0x0, symName: __ZNSt3__124__libcpp_operator_deleteB7v160006IJPvEEEvDpT_, symObjAddr: 0x32ECC, symBinAddr: 0x100035FBC, symSize: 0x24 }
  - { offsetInCU: 0x9815E, offset: 0x9815E, size: 0x8, addend: 0x0, symName: __ZNSt3__134__libcpp_atomic_refcount_decrementB7v160006IlEET_RS1_, symObjAddr: 0x33080, symBinAddr: 0x100036170, symSize: 0x30 }
  - { offsetInCU: 0x98195, offset: 0x98195, size: 0x8, addend: 0x0, symName: __ZNSt3__122__make_exception_guardB7v160006INS_6vectorIN5Catch5clara6detail5TokenENS_9allocatorIS5_EEE16__destroy_vectorEEENS_28__exception_guard_exceptionsIT_EESB_, symObjAddr: 0x33A54, symBinAddr: 0x100036B44, symSize: 0x40 }
  - { offsetInCU: 0x981CC, offset: 0x981CC, size: 0x8, addend: 0x0, symName: __ZNSt3__119__debug_db_insert_cB7v160006INS_6vectorIN5Catch5clara6detail5TokenENS_9allocatorIS5_EEEEEEvPT_, symObjAddr: 0x33AC8, symBinAddr: 0x100036BB8, symSize: 0x10 }
  - { offsetInCU: 0x981FF, offset: 0x981FF, size: 0x8, addend: 0x0, symName: __ZNSt3__119__allocate_at_leastB7v160006INS_9allocatorIN5Catch5clara6detail5TokenEEEEENS_19__allocation_resultINS_16allocator_traitsIT_E7pointerEEERS9_m, symObjAddr: 0x33E24, symBinAddr: 0x100036F14, symSize: 0x40 }
  - { offsetInCU: 0x9845D, offset: 0x9845D, size: 0x8, addend: 0x0, symName: __ZNSt3__120__throw_length_errorB7v160006EPKc, symObjAddr: 0x33FB4, symBinAddr: 0x1000370A4, symSize: 0x64 }
  - { offsetInCU: 0x98487, offset: 0x98487, size: 0x8, addend: 0x0, symName: __ZNSt3__112__to_addressB7v160006IN5Catch5clara6detail5TokenEEEPT_S6_, symObjAddr: 0x341E8, symBinAddr: 0x1000372D8, symSize: 0x14 }
  - { offsetInCU: 0x984BD, offset: 0x984BD, size: 0x8, addend: 0x0, symName: __ZNSt3__130__uninitialized_allocator_copyB7v160006INS_9allocatorIN5Catch5clara6detail5TokenEEEPS5_S7_S7_EET2_RT_T0_T1_S8_, symObjAddr: 0x34298, symBinAddr: 0x100037388, symSize: 0xF4 }
  - { offsetInCU: 0x9855C, offset: 0x9855C, size: 0x8, addend: 0x0, symName: __ZNSt3__122__make_exception_guardB7v160006INS_29_AllocatorDestroyRangeReverseINS_9allocatorIN5Catch5clara6detail5TokenEEEPS6_EEEENS_28__exception_guard_exceptionsIT_EESB_, symObjAddr: 0x343FC, symBinAddr: 0x1000374EC, symSize: 0x4C }
  - { offsetInCU: 0x98593, offset: 0x98593, size: 0x8, addend: 0x0, symName: __ZNSt3__119__allocator_destroyB7v160006INS_9allocatorIN5Catch5clara6detail5TokenEEENS_16reverse_iteratorIPS5_EES9_EEvRT_T0_T1_, symObjAddr: 0x34708, symBinAddr: 0x1000377F8, symSize: 0x70 }
  - { offsetInCU: 0x985F7, offset: 0x985F7, size: 0x8, addend: 0x0, symName: __ZNSt3__1neB7v160006IPN5Catch5clara6detail5TokenES5_EEbRKNS_16reverse_iteratorIT_EERKNS6_IT0_EE, symObjAddr: 0x347AC, symBinAddr: 0x10003789C, symSize: 0x48 }
  - { offsetInCU: 0x98646, offset: 0x98646, size: 0x8, addend: 0x0, symName: __ZNSt3__112__to_addressB7v160006INS_16reverse_iteratorIPN5Catch5clara6detail5TokenEEEvEENS_5decayIDTclsr19__to_address_helperIT_EE6__callclsr3stdE7declvalIRKS9_EEEEE4typeESB_, symObjAddr: 0x34820, symBinAddr: 0x100037910, symSize: 0x24 }
  - { offsetInCU: 0x986A9, offset: 0x986A9, size: 0x8, addend: 0x0, symName: __ZNSt3__118__debug_db_erase_cB7v160006INS_6vectorIN5Catch5clara6detail5TokenENS_9allocatorIS5_EEEEEEvPT_, symObjAddr: 0x34B70, symBinAddr: 0x100037C60, symSize: 0x10 }
  - { offsetInCU: 0x986DB, offset: 0x986DB, size: 0x8, addend: 0x0, symName: __ZNSt3__115allocate_sharedB7v160006IN5Catch5clara6detail13BoundValueRefINS_12basic_stringIcNS_11char_traitsIcEENS_9allocatorIcEEEEEENS8_ISB_EEJRSA_EvEENS_10shared_ptrIT_EERKT0_DpOT1_, symObjAddr: 0x34DE8, symBinAddr: 0x100037ED8, symSize: 0x98 }
  - { offsetInCU: 0x98A42, offset: 0x98A42, size: 0x8, addend: 0x0, symName: __ZNSt3__14swapB7v160006IPN5Catch5clara6detail17BoundValueRefBaseEEENS_9enable_ifIXaasr21is_move_constructibleIT_EE5valuesr18is_move_assignableIS7_EE5valueEvE4typeERS7_SA_, symObjAddr: 0x35D88, symBinAddr: 0x100038E78, symSize: 0x3C }
  - { offsetInCU: 0x98A97, offset: 0x98A97, size: 0x8, addend: 0x0, symName: __ZNSt3__14swapB7v160006IPNS_19__shared_weak_countEEENS_9enable_ifIXaasr21is_move_constructibleIT_EE5valuesr18is_move_assignableIS4_EE5valueEvE4typeERS4_S7_, symObjAddr: 0x35DC4, symBinAddr: 0x100038EB4, symSize: 0x3C }
  - { offsetInCU: 0x98AEB, offset: 0x98AEB, size: 0x8, addend: 0x0, symName: __ZNSt3__111make_sharedB7v160006IN5Catch5clara6detail15BoundFlagLambdaIZNS3_4HelpC1ERbEUlbE_EEJRKS7_EvEENS_10shared_ptrIT_EEDpOT0_, symObjAddr: 0x369D8, symBinAddr: 0x100039AC8, symSize: 0x40 }
  - { offsetInCU: 0x98D1C, offset: 0x98D1C, size: 0x8, addend: 0x0, symName: __ZNSt3__115allocate_sharedB7v160006IN5Catch5clara6detail15BoundFlagLambdaIZNS3_4HelpC1ERbEUlbE_EENS_9allocatorIS8_EEJRKS7_EvEENS_10shared_ptrIT_EERKT0_DpOT1_, symObjAddr: 0x36B48, symBinAddr: 0x100039C38, symSize: 0x98 }
  - { offsetInCU: 0x99083, offset: 0x99083, size: 0x8, addend: 0x0, symName: __ZNSt3__134__libcpp_atomic_refcount_incrementB7v160006IlEET_RS1_, symObjAddr: 0x37854, symBinAddr: 0x10003A944, symSize: 0x30 }
  - { offsetInCU: 0x990BA, offset: 0x990BA, size: 0x8, addend: 0x0, symName: __ZNSt3__1miB7v160006IPKN5Catch5clara6detail5TokenES6_EEDTmicldtfp_4baseEcldtfp0_4baseEERKNS_11__wrap_iterIT_EERKNS8_IT0_EE, symObjAddr: 0x38840, symBinAddr: 0x10003B930, symSize: 0x48 }
  - { offsetInCU: 0x99109, offset: 0x99109, size: 0x8, addend: 0x0, symName: __ZNSt3__14moveB7v160006IPN5Catch5clara6detail5TokenES5_EET0_T_S7_S6_, symObjAddr: 0x38914, symBinAddr: 0x10003BA04, symSize: 0x40 }
  - { offsetInCU: 0x99167, offset: 0x99167, size: 0x8, addend: 0x0, symName: __ZNSt3__16__moveB7v160006INS_17_ClassicAlgPolicyEPN5Catch5clara6detail5TokenES6_S6_EENS_4pairIT0_T2_EES8_T1_S9_, symObjAddr: 0x38B2C, symBinAddr: 0x10003BC1C, symSize: 0x44 }
  - { offsetInCU: 0x991D7, offset: 0x991D7, size: 0x8, addend: 0x0, symName: __ZNSt3__123__dispatch_copy_or_moveB7v160006INS_17_ClassicAlgPolicyENS_11__move_loopIS1_EENS_14__move_trivialEPN5Catch5clara6detail5TokenES9_S9_EENS_4pairIT2_T4_EESB_T3_SC_, symObjAddr: 0x38B70, symBinAddr: 0x10003BC60, symSize: 0x44 }
  - { offsetInCU: 0x99259, offset: 0x99259, size: 0x8, addend: 0x0, symName: __ZNSt3__121__unwrap_and_dispatchB7v160006INS_10__overloadINS_11__move_loopINS_17_ClassicAlgPolicyEEENS_14__move_trivialEEEPN5Catch5clara6detail5TokenESB_SB_Li0EEENS_4pairIT0_T2_EESD_T1_SE_, symObjAddr: 0x38BB4, symBinAddr: 0x10003BCA4, symSize: 0xB4 }
  - { offsetInCU: 0x992EE, offset: 0x992EE, size: 0x8, addend: 0x0, symName: __ZNSt3__114__unwrap_rangeB7v160006IPN5Catch5clara6detail5TokenES5_EENS_4pairIT0_S7_EET_S9_, symObjAddr: 0x38C68, symBinAddr: 0x10003BD58, symSize: 0x60 }
  - { offsetInCU: 0x99676, offset: 0x99676, size: 0x8, addend: 0x0, symName: __ZNSt3__113__unwrap_iterB7v160006IPN5Catch5clara6detail5TokenENS_18__unwrap_iter_implIS5_Lb1EEELi0EEEDTclsrT0_8__unwrapclsr3stdE7declvalIT_EEEES9_, symObjAddr: 0x38D58, symBinAddr: 0x10003BE48, symSize: 0x24 }
  - { offsetInCU: 0x996BC, offset: 0x996BC, size: 0x8, addend: 0x0, symName: __ZNSt3__19make_pairB7v160006IPN5Catch5clara6detail5TokenES5_EENS_4pairINS_18__unwrap_ref_decayIT_E4typeENS7_IT0_E4typeEEEOS8_OSB_, symObjAddr: 0x38D7C, symBinAddr: 0x10003BE6C, symSize: 0x38 }
  - { offsetInCU: 0x9970C, offset: 0x9970C, size: 0x8, addend: 0x0, symName: __ZNSt3__114__rewrap_rangeB7v160006IPN5Catch5clara6detail5TokenES5_EET_S6_T0_, symObjAddr: 0x38DB4, symBinAddr: 0x10003BEA4, symSize: 0x2C }
  - { offsetInCU: 0x9975B, offset: 0x9975B, size: 0x8, addend: 0x0, symName: __ZNSt3__113__rewrap_iterB7v160006IPN5Catch5clara6detail5TokenES5_NS_18__unwrap_iter_implIS5_Lb1EEEEET_S8_T0_, symObjAddr: 0x38DE0, symBinAddr: 0x10003BED0, symSize: 0x3C }
  - { offsetInCU: 0x99C45, offset: 0x99C45, size: 0x8, addend: 0x0, symName: __ZNSt3__142__uninitialized_allocator_move_if_noexceptB7v160006INS_9allocatorIN5Catch5clara6detail5TokenEEENS_16reverse_iteratorIPS5_EES9_S9_EET2_RT_T0_T1_SA_, symObjAddr: 0x39A5C, symBinAddr: 0x10003CB4C, symSize: 0x11C }
  - { offsetInCU: 0x99CE6, offset: 0x99CE6, size: 0x8, addend: 0x0, symName: __ZNSt3__14swapB7v160006IPN5Catch5clara6detail5TokenEEENS_9enable_ifIXaasr21is_move_constructibleIT_EE5valuesr18is_move_assignableIS7_EE5valueEvE4typeERS7_SA_, symObjAddr: 0x39B78, symBinAddr: 0x10003CC68, symSize: 0x3C }
  - { offsetInCU: 0x99D3B, offset: 0x99D3B, size: 0x8, addend: 0x0, symName: __ZNSt3__125__debug_db_invalidate_allB7v160006INS_6vectorIN5Catch5clara6detail5TokenENS_9allocatorIS5_EEEEEEvPT_, symObjAddr: 0x39BB4, symBinAddr: 0x10003CCA4, symSize: 0x10 }
  - { offsetInCU: 0x99D6E, offset: 0x99D6E, size: 0x8, addend: 0x0, symName: __ZNSt3__122__make_exception_guardB7v160006INS_29_AllocatorDestroyRangeReverseINS_9allocatorIN5Catch5clara6detail5TokenEEENS_16reverse_iteratorIPS6_EEEEEENS_28__exception_guard_exceptionsIT_EESD_, symObjAddr: 0x39BC4, symBinAddr: 0x10003CCB4, symSize: 0x4C }
  - { offsetInCU: 0x99DA5, offset: 0x99DA5, size: 0x8, addend: 0x0, symName: __ZNSt3__119__allocator_destroyB7v160006INS_9allocatorIN5Catch5clara6detail5TokenEEENS_16reverse_iteratorINS7_IPS5_EEEESA_EEvRT_T0_T1_, symObjAddr: 0x39F1C, symBinAddr: 0x10003D00C, symSize: 0x70 }
  - { offsetInCU: 0x99E0B, offset: 0x99E0B, size: 0x8, addend: 0x0, symName: __ZNSt3__1neB7v160006INS_16reverse_iteratorIPN5Catch5clara6detail5TokenEEES7_EEbRKNS1_IT_EERKNS1_IT0_EE, symObjAddr: 0x39FC8, symBinAddr: 0x10003D0B8, symSize: 0x60 }
  - { offsetInCU: 0x99E5A, offset: 0x99E5A, size: 0x8, addend: 0x0, symName: __ZNSt3__112__to_addressB7v160006INS_16reverse_iteratorINS1_IPN5Catch5clara6detail5TokenEEEEEvEENS_5decayIDTclsr19__to_address_helperIT_EE6__callclsr3stdE7declvalIRKSA_EEEEE4typeESC_, symObjAddr: 0x3A028, symBinAddr: 0x10003D118, symSize: 0x24 }
  - { offsetInCU: 0x99EBD, offset: 0x99EBD, size: 0x8, addend: 0x0, symName: __ZNSt3__112__to_addressB7v160006IKNS_12basic_stringIcNS_11char_traitsIcEENS_9allocatorIcEEEEEEPT_S9_, symObjAddr: 0x3A368, symBinAddr: 0x10003D458, symSize: 0x14 }
  - { offsetInCU: 0x99EF3, offset: 0x99EF3, size: 0x8, addend: 0x0, symName: __ZNSt3__119__str_find_first_ofB7v160006IcmNS_11char_traitsIcEELm18446744073709551615EEET0_PKT_S3_S6_S3_S3_, symObjAddr: 0x3A37C, symBinAddr: 0x10003D46C, symSize: 0xF0 }
  - { offsetInCU: 0x99F9C, offset: 0x99F9C, size: 0x8, addend: 0x0, symName: __ZNSt3__118__find_first_of_ceB7v160006IPKcS2_RFbccEEET_S5_S5_T0_S6_OT1_, symObjAddr: 0x3A4C8, symBinAddr: 0x10003D5B8, symSize: 0xD0 }
  - { offsetInCU: 0x9A03E, offset: 0x9A03E, size: 0x8, addend: 0x0, symName: __ZNSt3__112__to_addressB7v160006IKcEEPT_S3_, symObjAddr: 0x3A5C0, symBinAddr: 0x10003D6B0, symSize: 0x14 }
  - { offsetInCU: 0x9A0AB, offset: 0x9A0AB, size: 0x8, addend: 0x0, symName: __ZNSt3__118__constexpr_strlenB7v160006EPKc, symObjAddr: 0x3A6FC, symBinAddr: 0x10003D7EC, symSize: 0x24 }
  - { offsetInCU: 0x9A0D8, offset: 0x9A0D8, size: 0x8, addend: 0x0, symName: __ZNSt3__111make_sharedB7v160006IN5Catch5clara6detail12BoundFlagRefEJRbEvEENS_10shared_ptrIT_EEDpOT0_, symObjAddr: 0x3AA44, symBinAddr: 0x10003DB34, symSize: 0x40 }
  - { offsetInCU: 0x9A309, offset: 0x9A309, size: 0x8, addend: 0x0, symName: __ZNSt3__115allocate_sharedB7v160006IN5Catch5clara6detail12BoundFlagRefENS_9allocatorIS4_EEJRbEvEENS_10shared_ptrIT_EERKT0_DpOT1_, symObjAddr: 0x3AAE4, symBinAddr: 0x10003DBD4, symSize: 0x98 }
  - { offsetInCU: 0x9A66F, offset: 0x9A66F, size: 0x8, addend: 0x0, symName: __ZNSt3__111make_sharedB7v160006IN5Catch5clara6detail13BoundValueRefINS_6vectorINS_12basic_stringIcNS_11char_traitsIcEENS_9allocatorIcEEEENS9_ISB_EEEEEEJRSD_EvEENS_10shared_ptrIT_EEDpOT0_, symObjAddr: 0x3BA80, symBinAddr: 0x10003EB70, symSize: 0x40 }
  - { offsetInCU: 0x9A8A0, offset: 0x9A8A0, size: 0x8, addend: 0x0, symName: __ZNSt3__115allocate_sharedB7v160006IN5Catch5clara6detail13BoundValueRefINS_6vectorINS_12basic_stringIcNS_11char_traitsIcEENS_9allocatorIcEEEENS9_ISB_EEEEEENS9_ISE_EEJRSD_EvEENS_10shared_ptrIT_EERKT0_DpOT1_, symObjAddr: 0x3BB8C, symBinAddr: 0x10003EC7C, symSize: 0x98 }
  - { offsetInCU: 0x9AC07, offset: 0x9AC07, size: 0x8, addend: 0x0, symName: __ZNSt3__118__debug_db_erase_cB7v160006INS_6vectorIN5Catch5clara6detail3ArgENS_9allocatorIS5_EEEEEEvPT_, symObjAddr: 0x3D284, symBinAddr: 0x100040374, symSize: 0x10 }
  - { offsetInCU: 0x9AC3A, offset: 0x9AC3A, size: 0x8, addend: 0x0, symName: __ZNSt3__112__to_addressB7v160006IN5Catch5clara6detail3ArgEEEPT_S6_, symObjAddr: 0x3D3C8, symBinAddr: 0x1000404B8, symSize: 0x14 }
  - { offsetInCU: 0x9AC71, offset: 0x9AC71, size: 0x8, addend: 0x0, symName: __ZNSt3__118__debug_db_erase_cB7v160006INS_6vectorIN5Catch5clara6detail3OptENS_9allocatorIS5_EEEEEEvPT_, symObjAddr: 0x3D7A8, symBinAddr: 0x100040898, symSize: 0x10 }
  - { offsetInCU: 0x9ACA4, offset: 0x9ACA4, size: 0x8, addend: 0x0, symName: __ZNSt3__112__to_addressB7v160006IN5Catch5clara6detail3OptEEEPT_S6_, symObjAddr: 0x3D8EC, symBinAddr: 0x1000409DC, symSize: 0x14 }
  - { offsetInCU: 0x9ACDB, offset: 0x9ACDB, size: 0x8, addend: 0x0, symName: __ZNSt3__1neB7v160006IPKN5Catch5clara6detail3OptEEEbRKNS_11__wrap_iterIT_EESB_, symObjAddr: 0x3DB24, symBinAddr: 0x100040C14, symSize: 0x34 }
  - { offsetInCU: 0x9AD21, offset: 0x9AD21, size: 0x8, addend: 0x0, symName: __ZNSt3__1neB7v160006IPKN5Catch5clara6detail3ArgEEEbRKNS_11__wrap_iterIT_EESB_, symObjAddr: 0x3DBF0, symBinAddr: 0x100040CE0, symSize: 0x34 }
  - { offsetInCU: 0x9AD67, offset: 0x9AD67, size: 0x8, addend: 0x0, symName: __ZNSt3__1eqB7v160006IPKN5Catch5clara6detail3OptEEEbRKNS_11__wrap_iterIT_EESB_, symObjAddr: 0x3DCF0, symBinAddr: 0x100040DE0, symSize: 0x48 }
  - { offsetInCU: 0x9ADAD, offset: 0x9ADAD, size: 0x8, addend: 0x0, symName: __ZNSt3__1eqB7v160006IPKN5Catch5clara6detail3ArgEEEbRKNS_11__wrap_iterIT_EESB_, symObjAddr: 0x3DDE4, symBinAddr: 0x100040ED4, symSize: 0x48 }
  - { offsetInCU: 0x9ADF2, offset: 0x9ADF2, size: 0x8, addend: 0x0, symName: __ZNSt3__118__str_find_last_ofB7v160006IcmNS_11char_traitsIcEELm18446744073709551615EEET0_PKT_S3_S6_S3_S3_, symObjAddr: 0x3E194, symBinAddr: 0x100041284, symSize: 0xFC }
  - { offsetInCU: 0x9AEC6, offset: 0x9AEC6, size: 0x8, addend: 0x0, symName: __ZNSt3__123__constexpr_char_memchrB7v160006EPKcim, symObjAddr: 0x3E300, symBinAddr: 0x1000413F0, symSize: 0x34 }
  - { offsetInCU: 0x9AF12, offset: 0x9AF12, size: 0x8, addend: 0x0, symName: __ZNSt3__119__debug_db_insert_cB7v160006INS_6vectorIN5Catch8TestSpec6FilterENS_9allocatorIS4_EEEEEEvPT_, symObjAddr: 0x3E820, symBinAddr: 0x100041910, symSize: 0x10 }
  - { offsetInCU: 0x9AF45, offset: 0x9AF45, size: 0x8, addend: 0x0, symName: __ZNSt3__1eqB7v160006IPNS_12basic_stringIcNS_11char_traitsIcEENS_9allocatorIcEEEEEEbRKNS_11__wrap_iterIT_EESC_, symObjAddr: 0x3E8F8, symBinAddr: 0x1000419E8, symSize: 0x48 }
  - { offsetInCU: 0x9AF8B, offset: 0x9AF8B, size: 0x8, addend: 0x0, symName: __ZNSt3__115__debug_db_swapB7v160006INS_6vectorIN5Catch8TestSpec6FilterENS_9allocatorIS4_EEEEEEvPT_S9_, symObjAddr: 0x3EB18, symBinAddr: 0x100041C08, symSize: 0x14 }
  - { offsetInCU: 0x9AFCD, offset: 0x9AFCD, size: 0x8, addend: 0x0, symName: __ZNSt3__125__debug_db_invalidate_allB7v160006INS_6vectorIN5Catch8TestSpec6FilterENS_9allocatorIS4_EEEEEEvPT_, symObjAddr: 0x3ED14, symBinAddr: 0x100041E04, symSize: 0x10 }
  - { offsetInCU: 0x9B000, offset: 0x9B000, size: 0x8, addend: 0x0, symName: __ZNSt3__112__to_addressB7v160006IN5Catch8TestSpec6FilterEEEPT_S5_, symObjAddr: 0x3EDDC, symBinAddr: 0x100041ECC, symSize: 0x14 }
  - { offsetInCU: 0x9B037, offset: 0x9B037, size: 0x8, addend: 0x0, symName: __ZNSt3__118__debug_db_erase_cB7v160006INS_6vectorIN5Catch8TestSpec6FilterENS_9allocatorIS4_EEEEEEvPT_, symObjAddr: 0x3F218, symBinAddr: 0x100042308, symSize: 0x10 }
  - { offsetInCU: 0x9B06A, offset: 0x9B06A, size: 0x8, addend: 0x0, symName: __ZNSt3__118__debug_db_erase_cB7v160006INS_6vectorImNS_9allocatorImEEEEEEvPT_, symObjAddr: 0x3F4AC, symBinAddr: 0x10004259C, symSize: 0x10 }
  - { offsetInCU: 0x9B09D, offset: 0x9B09D, size: 0x8, addend: 0x0, symName: __ZNSt3__112__to_addressB7v160006ImEEPT_S2_, symObjAddr: 0x3F5C8, symBinAddr: 0x1000426B8, symSize: 0x14 }
  - { offsetInCU: 0x9B0D4, offset: 0x9B0D4, size: 0x8, addend: 0x0, symName: __ZNSt3__1eqB7v160006IPN5Catch9StringRefEEEbRKNS_11__wrap_iterIT_EES8_, symObjAddr: 0x40044, symBinAddr: 0x100043134, symSize: 0x48 }
  - { offsetInCU: 0x9B11A, offset: 0x9B11A, size: 0x8, addend: 0x0, symName: __ZNSt3__1eqB7v160006IPKNS_4pairIiN5Catch9StringRefEEEEEbRKNS_11__wrap_iterIT_EESB_, symObjAddr: 0x400A4, symBinAddr: 0x100043194, symSize: 0x48 }
  - { offsetInCU: 0x9B160, offset: 0x9B160, size: 0x8, addend: 0x0, symName: __ZNSt3__119__debug_db_insert_cB7v160006INS_6vectorINS_4pairIiN5Catch9StringRefEEENS_9allocatorIS5_EEEEEEvPT_, symObjAddr: 0x401FC, symBinAddr: 0x1000432EC, symSize: 0x10 }
  - { offsetInCU: 0x9B193, offset: 0x9B193, size: 0x8, addend: 0x0, symName: __ZNSt3__1eqB7v160006IPKiEEbRKNS_11__wrap_iterIT_EES7_, symObjAddr: 0x402D4, symBinAddr: 0x1000433C4, symSize: 0x48 }
  - { offsetInCU: 0x9B1D9, offset: 0x9B1D9, size: 0x8, addend: 0x0, symName: __ZNSt3__13maxB7v160006ImNS_6__lessImmEEEERKT_S5_S5_T0_, symObjAddr: 0x40378, symBinAddr: 0x100043468, symSize: 0x54 }
  - { offsetInCU: 0x9B274, offset: 0x9B274, size: 0x8, addend: 0x0, symName: __ZNSt3__1eqB7v160006IPN5Catch8TestCaseEEEbRKNS_11__wrap_iterIT_EES8_, symObjAddr: 0x40820, symBinAddr: 0x100043910, symSize: 0x48 }
  - { offsetInCU: 0x9B2BA, offset: 0x9B2BA, size: 0x8, addend: 0x0, symName: __ZNSt3__1eqB7v160006IPKNS_12basic_stringIcNS_11char_traitsIcEENS_9allocatorIcEEEEEEbRKNS_11__wrap_iterIT_EESD_, symObjAddr: 0x41770, symBinAddr: 0x100044860, symSize: 0x48 }
  - { offsetInCU: 0x9B336, offset: 0x9B336, size: 0x8, addend: 0x0, symName: __ZNSt3__1neB7v160006IPKN5Catch5clara8TextFlow6ColumnEEEbRKNS_11__wrap_iterIT_EESB_, symObjAddr: 0x429CC, symBinAddr: 0x100045ABC, symSize: 0x34 }
  - { offsetInCU: 0x9B37C, offset: 0x9B37C, size: 0x8, addend: 0x0, symName: __ZNSt3__119__debug_db_insert_cB7v160006INS_6vectorIN5Catch5clara8TextFlow6Column8iteratorENS_9allocatorIS6_EEEEEEvPT_, symObjAddr: 0x42B64, symBinAddr: 0x100045C54, symSize: 0x10 }
  - { offsetInCU: 0x9B3AF, offset: 0x9B3AF, size: 0x8, addend: 0x0, symName: __ZNSt3__119__allocate_at_leastB7v160006INS_9allocatorIN5Catch5clara8TextFlow6Column8iteratorEEEEENS_19__allocation_resultINS_16allocator_traitsIT_E7pointerEEERSA_m, symObjAddr: 0x43120, symBinAddr: 0x100046210, symSize: 0x40 }
  - { offsetInCU: 0x9B3F4, offset: 0x9B3F4, size: 0x8, addend: 0x0, symName: __ZNSt3__142__uninitialized_allocator_move_if_noexceptB7v160006INS_9allocatorIN5Catch5clara8TextFlow6Column8iteratorEEENS_16reverse_iteratorIPS6_EESA_SA_EET2_RT_T0_T1_SB_, symObjAddr: 0x433C0, symBinAddr: 0x1000464B0, symSize: 0x12C }
  - { offsetInCU: 0x9B495, offset: 0x9B495, size: 0x8, addend: 0x0, symName: __ZNSt3__14swapB7v160006IPN5Catch5clara8TextFlow6Column8iteratorEEENS_9enable_ifIXaasr21is_move_constructibleIT_EE5valuesr18is_move_assignableIS8_EE5valueEvE4typeERS8_SB_, symObjAddr: 0x43538, symBinAddr: 0x100046628, symSize: 0x3C }
  - { offsetInCU: 0x9B4EA, offset: 0x9B4EA, size: 0x8, addend: 0x0, symName: __ZNSt3__125__debug_db_invalidate_allB7v160006INS_6vectorIN5Catch5clara8TextFlow6Column8iteratorENS_9allocatorIS6_EEEEEEvPT_, symObjAddr: 0x43664, symBinAddr: 0x100046754, symSize: 0x10 }
  - { offsetInCU: 0x9B51D, offset: 0x9B51D, size: 0x8, addend: 0x0, symName: __ZNSt3__112__to_addressB7v160006IN5Catch5clara8TextFlow6Column8iteratorEEEPT_S7_, symObjAddr: 0x436BC, symBinAddr: 0x1000467AC, symSize: 0x14 }
  - { offsetInCU: 0x9B554, offset: 0x9B554, size: 0x8, addend: 0x0, symName: __ZNSt3__122__make_exception_guardB7v160006INS_29_AllocatorDestroyRangeReverseINS_9allocatorIN5Catch5clara8TextFlow6Column8iteratorEEENS_16reverse_iteratorIPS7_EEEEEENS_28__exception_guard_exceptionsIT_EESE_, symObjAddr: 0x436D0, symBinAddr: 0x1000467C0, symSize: 0x4C }
  - { offsetInCU: 0x9B58C, offset: 0x9B58C, size: 0x8, addend: 0x0, symName: __ZNSt3__1neB7v160006IPN5Catch5clara8TextFlow6Column8iteratorES6_EEbRKNS_16reverse_iteratorIT_EERKNS7_IT0_EE, symObjAddr: 0x43760, symBinAddr: 0x100046850, symSize: 0x48 }
  - { offsetInCU: 0x9B5DB, offset: 0x9B5DB, size: 0x8, addend: 0x0, symName: __ZNSt3__112__to_addressB7v160006INS_16reverse_iteratorIPN5Catch5clara8TextFlow6Column8iteratorEEEvEENS_5decayIDTclsr19__to_address_helperIT_EE6__callclsr3stdE7declvalIRKSA_EEEEE4typeESC_, symObjAddr: 0x437DC, symBinAddr: 0x1000468CC, symSize: 0x24 }
  - { offsetInCU: 0x9B63D, offset: 0x9B63D, size: 0x8, addend: 0x0, symName: __ZNSt3__119__allocator_destroyB7v160006INS_9allocatorIN5Catch5clara8TextFlow6Column8iteratorEEENS_16reverse_iteratorINS8_IPS6_EEEESB_EEvRT_T0_T1_, symObjAddr: 0x43AC0, symBinAddr: 0x100046BB0, symSize: 0x70 }
  - { offsetInCU: 0x9B6A3, offset: 0x9B6A3, size: 0x8, addend: 0x0, symName: __ZNSt3__1neB7v160006INS_16reverse_iteratorIPN5Catch5clara8TextFlow6Column8iteratorEEES8_EEbRKNS1_IT_EERKNS1_IT0_EE, symObjAddr: 0x43B6C, symBinAddr: 0x100046C5C, symSize: 0x60 }
  - { offsetInCU: 0x9B6F2, offset: 0x9B6F2, size: 0x8, addend: 0x0, symName: __ZNSt3__112__to_addressB7v160006INS_16reverse_iteratorINS1_IPN5Catch5clara8TextFlow6Column8iteratorEEEEEvEENS_5decayIDTclsr19__to_address_helperIT_EE6__callclsr3stdE7declvalIRKSB_EEEEE4typeESD_, symObjAddr: 0x43BF8, symBinAddr: 0x100046CE8, symSize: 0x24 }
  - { offsetInCU: 0x9B755, offset: 0x9B755, size: 0x8, addend: 0x0, symName: __ZNSt3__1eqB7v160006IPKN5Catch5clara8TextFlow6ColumnEEEbRKNS_11__wrap_iterIT_EESB_, symObjAddr: 0x440A4, symBinAddr: 0x100047194, symSize: 0x48 }
  - { offsetInCU: 0x9B79B, offset: 0x9B79B, size: 0x8, addend: 0x0, symName: __ZNSt3__118__debug_db_erase_cB7v160006INS_6vectorIN5Catch5clara8TextFlow6Column8iteratorENS_9allocatorIS6_EEEEEEvPT_, symObjAddr: 0x44528, symBinAddr: 0x100047618, symSize: 0x10 }
  - { offsetInCU: 0x9B7CD, offset: 0x9B7CD, size: 0x8, addend: 0x0, symName: __ZNSt3__1neB7v160006IN5Catch5clara8TextFlow6Column8iteratorENS_9allocatorIS5_EEEEbRKNS_6vectorIT_T0_EESD_, symObjAddr: 0x44734, symBinAddr: 0x100047824, symSize: 0x34 }
  - { offsetInCU: 0x9B81C, offset: 0x9B81C, size: 0x8, addend: 0x0, symName: __ZNSt3__1eqB7v160006IN5Catch5clara8TextFlow6Column8iteratorENS_9allocatorIS5_EEEEbRKNS_6vectorIT_T0_EESD_, symObjAddr: 0x44768, symBinAddr: 0x100047858, symSize: 0x9C }
  - { offsetInCU: 0x9B87B, offset: 0x9B87B, size: 0x8, addend: 0x0, symName: __ZNSt3__15equalB7v160006INS_11__wrap_iterIPKN5Catch5clara8TextFlow6Column8iteratorEEES9_EEbT_SA_T0_, symObjAddr: 0x44804, symBinAddr: 0x1000478F4, symSize: 0x50 }
  - { offsetInCU: 0x9B8D9, offset: 0x9B8D9, size: 0x8, addend: 0x0, symName: __ZNSt3__15equalB7v160006INS_11__wrap_iterIPKN5Catch5clara8TextFlow6Column8iteratorEEES9_NS_10__equal_toEEEbT_SB_T0_T1_, symObjAddr: 0x448B4, symBinAddr: 0x1000479A4, symSize: 0xB0 }
  - { offsetInCU: 0x9B94F, offset: 0x9B94F, size: 0x8, addend: 0x0, symName: __ZNSt3__1neB7v160006IPKN5Catch5clara8TextFlow6Column8iteratorEEEbRKNS_11__wrap_iterIT_EESC_, symObjAddr: 0x44964, symBinAddr: 0x100047A54, symSize: 0x34 }
  - { offsetInCU: 0x9BA36, offset: 0x9BA36, size: 0x8, addend: 0x0, symName: __ZNSt3__1eqB7v160006IPKN5Catch5clara8TextFlow6Column8iteratorEEEbRKNS_11__wrap_iterIT_EESC_, symObjAddr: 0x44A04, symBinAddr: 0x100047AF4, symSize: 0x48 }
  - { offsetInCU: 0x9BA7B, offset: 0x9BA7B, size: 0x8, addend: 0x0, symName: __ZNSt3__1plB7v160006IcNS_11char_traitsIcEENS_9allocatorIcEEEENS_12basic_stringIT_T0_T1_EERKS9_SB_, symObjAddr: 0x44B68, symBinAddr: 0x100047C58, symSize: 0x134 }
  - { offsetInCU: 0x9BB1D, offset: 0x9BB1D, size: 0x8, addend: 0x0, symName: __ZNSt3__112__to_addressB7v160006IcEEPT_S2_, symObjAddr: 0x44D0C, symBinAddr: 0x100047DFC, symSize: 0x14 }
  - { offsetInCU: 0x9BDA3, offset: 0x9BDA3, size: 0x8, addend: 0x0, symName: __ZNSt3__14copyB7v160006IPKcPcEET0_T_S5_S4_, symObjAddr: 0x45524, symBinAddr: 0x100048614, symSize: 0x40 }
  - { offsetInCU: 0x9BE01, offset: 0x9BE01, size: 0x8, addend: 0x0, symName: __ZNSt3__16__copyB7v160006INS_17_ClassicAlgPolicyEPKcS3_PcEENS_4pairIT0_T2_EES6_T1_S7_, symObjAddr: 0x45564, symBinAddr: 0x100048654, symSize: 0x44 }
  - { offsetInCU: 0x9BE71, offset: 0x9BE71, size: 0x8, addend: 0x0, symName: __ZNSt3__123__dispatch_copy_or_moveB7v160006INS_17_ClassicAlgPolicyENS_11__copy_loopIS1_EENS_14__copy_trivialEPKcS6_PcEENS_4pairIT2_T4_EES9_T3_SA_, symObjAddr: 0x455A8, symBinAddr: 0x100048698, symSize: 0x44 }
  - { offsetInCU: 0x9BEF3, offset: 0x9BEF3, size: 0x8, addend: 0x0, symName: __ZNSt3__121__unwrap_and_dispatchB7v160006INS_10__overloadINS_11__copy_loopINS_17_ClassicAlgPolicyEEENS_14__copy_trivialEEEPKcS8_PcLi0EEENS_4pairIT0_T2_EESB_T1_SC_, symObjAddr: 0x455EC, symBinAddr: 0x1000486DC, symSize: 0xB4 }
  - { offsetInCU: 0x9BF88, offset: 0x9BF88, size: 0x8, addend: 0x0, symName: __ZNSt3__114__unwrap_rangeB7v160006IPKcS2_EENS_4pairIT0_S4_EET_S6_, symObjAddr: 0x456A0, symBinAddr: 0x100048790, symSize: 0x60 }
  - { offsetInCU: 0x9C16A, offset: 0x9C16A, size: 0x8, addend: 0x0, symName: __ZNSt3__113__unwrap_iterB7v160006IPcNS_18__unwrap_iter_implIS1_Lb1EEELi0EEEDTclsrT0_8__unwrapclsr3stdE7declvalIT_EEEES5_, symObjAddr: 0x45748, symBinAddr: 0x100048838, symSize: 0x24 }
  - { offsetInCU: 0x9C1B0, offset: 0x9C1B0, size: 0x8, addend: 0x0, symName: __ZNSt3__19make_pairB7v160006IPKcPcEENS_4pairINS_18__unwrap_ref_decayIT_E4typeENS5_IT0_E4typeEEEOS6_OS9_, symObjAddr: 0x4576C, symBinAddr: 0x10004885C, symSize: 0x38 }
  - { offsetInCU: 0x9C200, offset: 0x9C200, size: 0x8, addend: 0x0, symName: __ZNSt3__114__rewrap_rangeB7v160006IPKcS2_EET_S3_T0_, symObjAddr: 0x457A4, symBinAddr: 0x100048894, symSize: 0x2C }
  - { offsetInCU: 0x9C24F, offset: 0x9C24F, size: 0x8, addend: 0x0, symName: __ZNSt3__113__rewrap_iterB7v160006IPcS1_NS_18__unwrap_iter_implIS1_Lb1EEEEET_S4_T0_, symObjAddr: 0x457D0, symBinAddr: 0x1000488C0, symSize: 0x3C }
  - { offsetInCU: 0x9C2A6, offset: 0x9C2A6, size: 0x8, addend: 0x0, symName: __ZNSt3__19make_pairB7v160006IPKcS2_EENS_4pairINS_18__unwrap_ref_decayIT_E4typeENS4_IT0_E4typeEEEOS5_OS8_, symObjAddr: 0x4580C, symBinAddr: 0x1000488FC, symSize: 0x38 }
  - { offsetInCU: 0x9C2F6, offset: 0x9C2F6, size: 0x8, addend: 0x0, symName: __ZNSt3__113__unwrap_iterB7v160006IPKcNS_18__unwrap_iter_implIS2_Lb1EEELi0EEEDTclsrT0_8__unwrapclsr3stdE7declvalIT_EEEES6_, symObjAddr: 0x45844, symBinAddr: 0x100048934, symSize: 0x24 }
  - { offsetInCU: 0x9C395, offset: 0x9C395, size: 0x8, addend: 0x0, symName: __ZNSt3__119__copy_trivial_implB7v160006IKccEENS_4pairIPT_PT0_EES4_S4_S6_, symObjAddr: 0x458FC, symBinAddr: 0x1000489EC, symSize: 0x7C }
  - { offsetInCU: 0x9C401, offset: 0x9C401, size: 0x8, addend: 0x0, symName: __ZNSt3__19make_pairB7v160006IRPKcPcEENS_4pairINS_18__unwrap_ref_decayIT_E4typeENS6_IT0_E4typeEEEOS7_OSA_, symObjAddr: 0x45978, symBinAddr: 0x100048A68, symSize: 0x38 }
  - { offsetInCU: 0x9C4A9, offset: 0x9C4A9, size: 0x8, addend: 0x0, symName: __ZNSt3__113__rewrap_iterB7v160006IPKcS2_NS_18__unwrap_iter_implIS2_Lb1EEEEET_S5_T0_, symObjAddr: 0x45AB4, symBinAddr: 0x100048BA4, symSize: 0x3C }
  - { offsetInCU: 0x9C501, offset: 0x9C501, size: 0x8, addend: 0x0, symName: __ZNSt3__16fill_nB7v160006IPcmcEET_S2_T0_RKT1_, symObjAddr: 0x45B80, symBinAddr: 0x100048C70, symSize: 0x44 }
  - { offsetInCU: 0x9C568, offset: 0x9C568, size: 0x8, addend: 0x0, symName: __ZNSt3__18__fill_nB7v160006IPcmcEET_S2_T0_RKT1_, symObjAddr: 0x45BC4, symBinAddr: 0x100048CB4, symSize: 0x64 }
  - { offsetInCU: 0x9C5CF, offset: 0x9C5CF, size: 0x8, addend: 0x0, symName: __ZNSt3__121__convert_to_integralB7v160006Em, symObjAddr: 0x45C28, symBinAddr: 0x100048D18, symSize: 0x14 }
  - { offsetInCU: 0x9C5FD, offset: 0x9C5FD, size: 0x8, addend: 0x0, symName: __ZNSt3__119__debug_db_insert_cB7v160006INS_6vectorIN5Catch5clara8TextFlow6ColumnENS_9allocatorIS5_EEEEEEvPT_, symObjAddr: 0x45DE4, symBinAddr: 0x100048ED4, symSize: 0x10 }
  - { offsetInCU: 0x9C630, offset: 0x9C630, size: 0x8, addend: 0x0, symName: __ZNSt3__112__to_addressB7v160006IN5Catch5clara8TextFlow6ColumnEEEPT_S6_, symObjAddr: 0x46188, symBinAddr: 0x100049278, symSize: 0x14 }
  - { offsetInCU: 0x9C667, offset: 0x9C667, size: 0x8, addend: 0x0, symName: __ZNSt3__119__allocate_at_leastB7v160006INS_9allocatorIN5Catch5clara8TextFlow6ColumnEEEEENS_19__allocation_resultINS_16allocator_traitsIT_E7pointerEEERS9_m, symObjAddr: 0x467AC, symBinAddr: 0x10004989C, symSize: 0x40 }
  - { offsetInCU: 0x9C6AC, offset: 0x9C6AC, size: 0x8, addend: 0x0, symName: __ZNSt3__142__uninitialized_allocator_move_if_noexceptB7v160006INS_9allocatorIN5Catch5clara8TextFlow6ColumnEEENS_16reverse_iteratorIPS5_EES9_S9_EET2_RT_T0_T1_SA_, symObjAddr: 0x46A38, symBinAddr: 0x100049B28, symSize: 0x12C }
  - { offsetInCU: 0x9C74D, offset: 0x9C74D, size: 0x8, addend: 0x0, symName: __ZNSt3__14swapB7v160006IPN5Catch5clara8TextFlow6ColumnEEENS_9enable_ifIXaasr21is_move_constructibleIT_EE5valuesr18is_move_assignableIS7_EE5valueEvE4typeERS7_SA_, symObjAddr: 0x46BB0, symBinAddr: 0x100049CA0, symSize: 0x3C }
  - { offsetInCU: 0x9C7A2, offset: 0x9C7A2, size: 0x8, addend: 0x0, symName: __ZNSt3__125__debug_db_invalidate_allB7v160006INS_6vectorIN5Catch5clara8TextFlow6ColumnENS_9allocatorIS5_EEEEEEvPT_, symObjAddr: 0x46CB4, symBinAddr: 0x100049DA4, symSize: 0x10 }
  - { offsetInCU: 0x9C7D5, offset: 0x9C7D5, size: 0x8, addend: 0x0, symName: __ZNSt3__122__make_exception_guardB7v160006INS_29_AllocatorDestroyRangeReverseINS_9allocatorIN5Catch5clara8TextFlow6ColumnEEENS_16reverse_iteratorIPS6_EEEEEENS_28__exception_guard_exceptionsIT_EESD_, symObjAddr: 0x46D0C, symBinAddr: 0x100049DFC, symSize: 0x4C }
  - { offsetInCU: 0x9C80D, offset: 0x9C80D, size: 0x8, addend: 0x0, symName: __ZNSt3__1neB7v160006IPN5Catch5clara8TextFlow6ColumnES5_EEbRKNS_16reverse_iteratorIT_EERKNS6_IT0_EE, symObjAddr: 0x46D9C, symBinAddr: 0x100049E8C, symSize: 0x48 }
  - { offsetInCU: 0x9C85C, offset: 0x9C85C, size: 0x8, addend: 0x0, symName: __ZNSt3__112__to_addressB7v160006INS_16reverse_iteratorIPN5Catch5clara8TextFlow6ColumnEEEvEENS_5decayIDTclsr19__to_address_helperIT_EE6__callclsr3stdE7declvalIRKS9_EEEEE4typeESB_, symObjAddr: 0x46E18, symBinAddr: 0x100049F08, symSize: 0x24 }
  - { offsetInCU: 0x9C894, offset: 0x9C894, size: 0x8, addend: 0x0, symName: __ZNSt3__119__debug_db_insert_cB7v160006INS_6vectorINS_12basic_stringIcNS_11char_traitsIcEENS_9allocatorIcEEEENS5_IS7_EEEEEEvPT_, symObjAddr: 0x4718C, symBinAddr: 0x10004A27C, symSize: 0x10 }
  - { offsetInCU: 0x9C8C7, offset: 0x9C8C7, size: 0x8, addend: 0x0, symName: __ZNSt3__115__debug_db_swapB7v160006INS_6vectorINS_12basic_stringIcNS_11char_traitsIcEENS_9allocatorIcEEEENS5_IS7_EEEEEEvPT_SB_, symObjAddr: 0x4719C, symBinAddr: 0x10004A28C, symSize: 0x14 }
  - { offsetInCU: 0x9C933, offset: 0x9C933, size: 0x8, addend: 0x0, symName: __ZNSt3__119__allocator_destroyB7v160006INS_9allocatorIN5Catch5clara8TextFlow6ColumnEEENS_16reverse_iteratorINS7_IPS5_EEEESA_EEvRT_T0_T1_, symObjAddr: 0x47420, symBinAddr: 0x10004A510, symSize: 0x70 }
  - { offsetInCU: 0x9C999, offset: 0x9C999, size: 0x8, addend: 0x0, symName: __ZNSt3__1neB7v160006INS_16reverse_iteratorIPN5Catch5clara8TextFlow6ColumnEEES7_EEbRKNS1_IT_EERKNS1_IT0_EE, symObjAddr: 0x474CC, symBinAddr: 0x10004A5BC, symSize: 0x60 }
  - { offsetInCU: 0x9C9E8, offset: 0x9C9E8, size: 0x8, addend: 0x0, symName: __ZNSt3__112__to_addressB7v160006INS_16reverse_iteratorINS1_IPN5Catch5clara8TextFlow6ColumnEEEEEvEENS_5decayIDTclsr19__to_address_helperIT_EE6__callclsr3stdE7declvalIRKSA_EEEEE4typeESC_, symObjAddr: 0x47558, symBinAddr: 0x10004A648, symSize: 0x24 }
  - { offsetInCU: 0x9CA4B, offset: 0x9CA4B, size: 0x8, addend: 0x0, symName: __ZNSt3__118__debug_db_erase_cB7v160006INS_6vectorIN5Catch5clara8TextFlow6ColumnENS_9allocatorIS5_EEEEEEvPT_, symObjAddr: 0x47AEC, symBinAddr: 0x10004ABDC, symSize: 0x10 }
  - { offsetInCU: 0x9CA7E, offset: 0x9CA7E, size: 0x8, addend: 0x0, symName: __ZNSt3__13maxB7v160006IdNS_6__lessIddEEEERKT_S5_S5_T0_, symObjAddr: 0x47EEC, symBinAddr: 0x10004AFDC, symSize: 0x54 }
  - { offsetInCU: 0x9CB18, offset: 0x9CB18, size: 0x8, addend: 0x0, symName: __ZNSt3__1neB7v160006ERKNS_16__deque_iteratorIcPcRcPS1_lLl4096EEES6_, symObjAddr: 0x487A8, symBinAddr: 0x10004B898, symSize: 0x34 }
  - { offsetInCU: 0x9CB55, offset: 0x9CB55, size: 0x8, addend: 0x0, symName: __ZNSt3__1eqB7v160006ERKNS_16__deque_iteratorIcPcRcPS1_lLl4096EEES6_, symObjAddr: 0x48A34, symBinAddr: 0x10004BB24, symSize: 0x30 }
  - { offsetInCU: 0x9CB93, offset: 0x9CB93, size: 0x8, addend: 0x0, symName: __ZNSt3__112__to_addressB7v160006IPcEEPT_S3_, symObjAddr: 0x48D74, symBinAddr: 0x10004BE64, symSize: 0x14 }
  - { offsetInCU: 0x9CBCA, offset: 0x9CBCA, size: 0x8, addend: 0x0, symName: __ZNSt3__118__debug_db_erase_cB7v160006INS_6vectorINS_10shared_ptrIN5Catch16TestCaseTracking8ITrackerEEENS_9allocatorIS6_EEEEEEvPT_, symObjAddr: 0x4921C, symBinAddr: 0x10004C30C, symSize: 0x10 }
  - { offsetInCU: 0x9CBFD, offset: 0x9CBFD, size: 0x8, addend: 0x0, symName: __ZNSt3__112__to_addressB7v160006INS_10shared_ptrIN5Catch16TestCaseTracking8ITrackerEEEEEPT_S7_, symObjAddr: 0x49360, symBinAddr: 0x10004C450, symSize: 0x14 }
  - { offsetInCU: 0x9CC33, offset: 0x9CC33, size: 0x8, addend: 0x0, symName: __ZNSt3__119static_pointer_castB7v160006IN5Catch10Generators16GeneratorTrackerENS1_16TestCaseTracking8ITrackerEEENS_10shared_ptrIT_EERKNS6_IT0_EE, symObjAddr: 0x496C8, symBinAddr: 0x10004C7B8, symSize: 0x44 }
  - { offsetInCU: 0x9CC73, offset: 0x9CC73, size: 0x8, addend: 0x0, symName: __ZNSt3__111make_sharedB7v160006IN5Catch10Generators16GeneratorTrackerEJRKNS1_16TestCaseTracking15NameAndLocationERNS4_14TrackerContextEPNS4_8ITrackerEEvEENS_10shared_ptrIT_EEDpOT0_, symObjAddr: 0x49788, symBinAddr: 0x10004C878, symSize: 0x50 }
  - { offsetInCU: 0x9CCE3, offset: 0x9CCE3, size: 0x8, addend: 0x0, symName: __ZNSt3__14swapB7v160006IPN5Catch10Generators16GeneratorTrackerEEENS_9enable_ifIXaasr21is_move_constructibleIT_EE5valuesr18is_move_assignableIS6_EE5valueEvE4typeERS6_S9_, symObjAddr: 0x499BC, symBinAddr: 0x10004CAAC, symSize: 0x3C }
  - { offsetInCU: 0x9CD37, offset: 0x9CD37, size: 0x8, addend: 0x0, symName: __ZNSt3__115allocate_sharedB7v160006IN5Catch10Generators16GeneratorTrackerENS_9allocatorIS3_EEJRKNS1_16TestCaseTracking15NameAndLocationERNS6_14TrackerContextEPNS6_8ITrackerEEvEENS_10shared_ptrIT_EERKT0_DpOT1_, symObjAddr: 0x49A4C, symBinAddr: 0x10004CB3C, symSize: 0xA8 }
  - { offsetInCU: 0x9D0C9, offset: 0x9D0C9, size: 0x8, addend: 0x0, symName: __ZNSt3__119__debug_db_insert_cB7v160006INS_6vectorIN5Catch5clara6detail3OptENS_9allocatorIS5_EEEEEEvPT_, symObjAddr: 0x4A95C, symBinAddr: 0x10004DA4C, symSize: 0x10 }
  - { offsetInCU: 0x9D0FC, offset: 0x9D0FC, size: 0x8, addend: 0x0, symName: __ZNSt3__119__debug_db_insert_cB7v160006INS_6vectorIN5Catch5clara6detail3ArgENS_9allocatorIS5_EEEEEEvPT_, symObjAddr: 0x4AAC8, symBinAddr: 0x10004DBB8, symSize: 0x10 }
  - { offsetInCU: 0x9D12F, offset: 0x9D12F, size: 0x8, addend: 0x0, symName: __ZNSt3__1eqB7v160006IPKSt13exception_ptrEEbRKNS_11__wrap_iterIT_EES8_, symObjAddr: 0x4ACFC, symBinAddr: 0x10004DDEC, symSize: 0x48 }
  - { offsetInCU: 0x9D175, offset: 0x9D175, size: 0x8, addend: 0x0, symName: __ZNSt3__14swapB7v160006IPNS_12basic_stringIcNS_11char_traitsIcEENS_9allocatorIcEEEEEENS_9enable_ifIXaasr21is_move_constructibleIT_EE5valuesr18is_move_assignableIS9_EE5valueEvE4typeERS9_SC_, symObjAddr: 0x4AFC4, symBinAddr: 0x10004E0B4, symSize: 0x3C }
  - { offsetInCU: 0x9D1CA, offset: 0x9D1CA, size: 0x8, addend: 0x0, symName: __ZNSt3__115__debug_db_swapB7v160006INS_6vectorIN5Catch5clara6detail3OptENS_9allocatorIS5_EEEEEEvPT_SA_, symObjAddr: 0x4B200, symBinAddr: 0x10004E2F0, symSize: 0x14 }
  - { offsetInCU: 0x9D20C, offset: 0x9D20C, size: 0x8, addend: 0x0, symName: __ZNSt3__125__debug_db_invalidate_allB7v160006INS_6vectorIN5Catch5clara6detail3OptENS_9allocatorIS5_EEEEEEvPT_, symObjAddr: 0x4B338, symBinAddr: 0x10004E428, symSize: 0x10 }
  - { offsetInCU: 0x9D23F, offset: 0x9D23F, size: 0x8, addend: 0x0, symName: __ZNSt3__115__debug_db_swapB7v160006INS_6vectorIN5Catch5clara6detail3ArgENS_9allocatorIS5_EEEEEEvPT_SA_, symObjAddr: 0x4B544, symBinAddr: 0x10004E634, symSize: 0x14 }
  - { offsetInCU: 0x9D281, offset: 0x9D281, size: 0x8, addend: 0x0, symName: __ZNSt3__125__debug_db_invalidate_allB7v160006INS_6vectorIN5Catch5clara6detail3ArgENS_9allocatorIS5_EEEEEEvPT_, symObjAddr: 0x4B67C, symBinAddr: 0x10004E76C, symSize: 0x10 }
  - { offsetInCU: 0x9D2B4, offset: 0x9D2B4, size: 0x8, addend: 0x0, symName: __ZNSt3__1neB7v160006IPN5Catch5clara6detail11HelpColumnsEEEbRKNS_11__wrap_iterIT_EESA_, symObjAddr: 0x4BF10, symBinAddr: 0x10004F000, symSize: 0x34 }
  - { offsetInCU: 0x9D2FA, offset: 0x9D2FA, size: 0x8, addend: 0x0, symName: __ZNSt3__119__debug_db_insert_cB7v160006INS_6vectorIN5Catch5clara6detail11HelpColumnsENS_9allocatorIS5_EEEEEEvPT_, symObjAddr: 0x4C7B8, symBinAddr: 0x10004F8A8, symSize: 0x10 }
  - { offsetInCU: 0x9D32D, offset: 0x9D32D, size: 0x8, addend: 0x0, symName: __ZNSt3__122__make_exception_guardB7v160006INS_6vectorIN5Catch5clara6detail11HelpColumnsENS_9allocatorIS5_EEE16__destroy_vectorEEENS_28__exception_guard_exceptionsIT_EESB_, symObjAddr: 0x4CD2C, symBinAddr: 0x10004FE1C, symSize: 0x40 }
  - { offsetInCU: 0x9D364, offset: 0x9D364, size: 0x8, addend: 0x0, symName: __ZNSt3__119__allocate_at_leastB7v160006INS_9allocatorIN5Catch5clara6detail11HelpColumnsEEEEENS_19__allocation_resultINS_16allocator_traitsIT_E7pointerEEERS9_m, symObjAddr: 0x4D074, symBinAddr: 0x100050164, symSize: 0x40 }
  - { offsetInCU: 0x9D3AA, offset: 0x9D3AA, size: 0x8, addend: 0x0, symName: __ZNSt3__112__to_addressB7v160006IN5Catch5clara6detail11HelpColumnsEEEPT_S6_, symObjAddr: 0x4D3BC, symBinAddr: 0x1000504AC, symSize: 0x14 }
  - { offsetInCU: 0x9D3E0, offset: 0x9D3E0, size: 0x8, addend: 0x0, symName: __ZNSt3__130__uninitialized_allocator_copyB7v160006INS_9allocatorIN5Catch5clara6detail11HelpColumnsEEEPKS5_S8_PS5_EET2_RT_T0_T1_SA_, symObjAddr: 0x4D46C, symBinAddr: 0x10005055C, symSize: 0xF4 }
  - { offsetInCU: 0x9D47F, offset: 0x9D47F, size: 0x8, addend: 0x0, symName: __ZNSt3__122__make_exception_guardB7v160006INS_29_AllocatorDestroyRangeReverseINS_9allocatorIN5Catch5clara6detail11HelpColumnsEEEPS6_EEEENS_28__exception_guard_exceptionsIT_EESB_, symObjAddr: 0x4D5D8, symBinAddr: 0x1000506C8, symSize: 0x4C }
  - { offsetInCU: 0x9D4B6, offset: 0x9D4B6, size: 0x8, addend: 0x0, symName: __ZNSt3__119__allocator_destroyB7v160006INS_9allocatorIN5Catch5clara6detail11HelpColumnsEEENS_16reverse_iteratorIPS5_EES9_EEvRT_T0_T1_, symObjAddr: 0x4D90C, symBinAddr: 0x1000509FC, symSize: 0x70 }
  - { offsetInCU: 0x9D51A, offset: 0x9D51A, size: 0x8, addend: 0x0, symName: __ZNSt3__1neB7v160006IPN5Catch5clara6detail11HelpColumnsES5_EEbRKNS_16reverse_iteratorIT_EERKNS6_IT0_EE, symObjAddr: 0x4D9B0, symBinAddr: 0x100050AA0, symSize: 0x48 }
  - { offsetInCU: 0x9D569, offset: 0x9D569, size: 0x8, addend: 0x0, symName: __ZNSt3__112__to_addressB7v160006INS_16reverse_iteratorIPN5Catch5clara6detail11HelpColumnsEEEvEENS_5decayIDTclsr19__to_address_helperIT_EE6__callclsr3stdE7declvalIRKS9_EEEEE4typeESB_, symObjAddr: 0x4DA24, symBinAddr: 0x100050B14, symSize: 0x24 }
  - { offsetInCU: 0x9D5CC, offset: 0x9D5CC, size: 0x8, addend: 0x0, symName: __ZNSt3__118__debug_db_erase_cB7v160006INS_6vectorIN5Catch5clara6detail11HelpColumnsENS_9allocatorIS5_EEEEEEvPT_, symObjAddr: 0x4DD34, symBinAddr: 0x100050E24, symSize: 0x10 }
  - { offsetInCU: 0x9D5FF, offset: 0x9D5FF, size: 0x8, addend: 0x0, symName: __ZNSt3__1miB7v160006IPKN5Catch5clara6detail11HelpColumnsEPS4_EEDTmicldtfp_4baseEcldtfp0_4baseEERKNS_11__wrap_iterIT_EERKNS9_IT0_EE, symObjAddr: 0x4DF24, symBinAddr: 0x100051014, symSize: 0x48 }
  - { offsetInCU: 0x9D64E, offset: 0x9D64E, size: 0x8, addend: 0x0, symName: __ZNSt3__18distanceB7v160006INS_11__wrap_iterIPN5Catch5clara6detail11HelpColumnsEEEEENS_15iterator_traitsIT_E15difference_typeES9_S9_, symObjAddr: 0x4DF6C, symBinAddr: 0x10005105C, symSize: 0x3C }
  - { offsetInCU: 0x9D694, offset: 0x9D694, size: 0x8, addend: 0x0, symName: __ZNSt3__14copyB7v160006INS_11__wrap_iterIPN5Catch5clara6detail11HelpColumnsEEES6_EET0_T_S9_S8_, symObjAddr: 0x4E1D0, symBinAddr: 0x1000512C0, symSize: 0x50 }
  - { offsetInCU: 0x9D6F2, offset: 0x9D6F2, size: 0x8, addend: 0x0, symName: __ZNSt3__110__distanceB7v160006INS_11__wrap_iterIPN5Catch5clara6detail11HelpColumnsEEEEENS_15iterator_traitsIT_E15difference_typeES9_S9_NS_26random_access_iterator_tagE, symObjAddr: 0x4E5EC, symBinAddr: 0x1000516DC, symSize: 0x30 }
  - { offsetInCU: 0x9D743, offset: 0x9D743, size: 0x8, addend: 0x0, symName: __ZNSt3__1miB7v160006IPN5Catch5clara6detail11HelpColumnsES5_EEDTmicldtfp_4baseEcldtfp0_4baseEERKNS_11__wrap_iterIT_EERKNS7_IT0_EE, symObjAddr: 0x4E61C, symBinAddr: 0x10005170C, symSize: 0x48 }
  - { offsetInCU: 0x9D792, offset: 0x9D792, size: 0x8, addend: 0x0, symName: __ZNSt3__121__convert_to_integralB7v160006El, symObjAddr: 0x4E664, symBinAddr: 0x100051754, symSize: 0x14 }
  - { offsetInCU: 0x9D7C0, offset: 0x9D7C0, size: 0x8, addend: 0x0, symName: __ZNSt3__19__advanceB7v160006INS_11__wrap_iterIPN5Catch5clara6detail11HelpColumnsEEEEEvRT_NS_15iterator_traitsIS8_E15difference_typeENS_26random_access_iterator_tagE, symObjAddr: 0x4E678, symBinAddr: 0x100051768, symSize: 0x2C }
  - { offsetInCU: 0x9D80C, offset: 0x9D80C, size: 0x8, addend: 0x0, symName: __ZNSt3__130__uninitialized_allocator_copyB7v160006INS_9allocatorIN5Catch5clara6detail11HelpColumnsEEENS_11__wrap_iterIPS5_EES9_S8_EET2_RT_T0_T1_SA_, symObjAddr: 0x4E6D4, symBinAddr: 0x1000517C4, symSize: 0xF8 }
  - { offsetInCU: 0x9D8AB, offset: 0x9D8AB, size: 0x8, addend: 0x0, symName: __ZNSt3__113move_backwardB7v160006IPN5Catch5clara6detail11HelpColumnsES5_EET0_T_S7_S6_, symObjAddr: 0x4E864, symBinAddr: 0x100051954, symSize: 0x40 }
  - { offsetInCU: 0x9D909, offset: 0x9D909, size: 0x8, addend: 0x0, symName: __ZNSt3__115__move_backwardB7v160006INS_17_ClassicAlgPolicyEPN5Catch5clara6detail11HelpColumnsES6_S6_EENS_4pairIT0_T2_EES8_T1_S9_, symObjAddr: 0x4E950, symBinAddr: 0x100051A40, symSize: 0x44 }
  - { offsetInCU: 0x9D979, offset: 0x9D979, size: 0x8, addend: 0x0, symName: __ZNSt3__123__dispatch_copy_or_moveB7v160006INS_17_ClassicAlgPolicyENS_20__move_backward_loopIS1_EENS_23__move_backward_trivialEPN5Catch5clara6detail11HelpColumnsES9_S9_EENS_4pairIT2_T4_EESB_T3_SC_, symObjAddr: 0x4E994, symBinAddr: 0x100051A84, symSize: 0x44 }
  - { offsetInCU: 0x9D9FB, offset: 0x9D9FB, size: 0x8, addend: 0x0, symName: __ZNSt3__121__unwrap_and_dispatchB7v160006INS_10__overloadINS_20__move_backward_loopINS_17_ClassicAlgPolicyEEENS_23__move_backward_trivialEEEPN5Catch5clara6detail11HelpColumnsESB_SB_Li0EEENS_4pairIT0_T2_EESD_T1_SE_, symObjAddr: 0x4E9D8, symBinAddr: 0x100051AC8, symSize: 0xB4 }
  - { offsetInCU: 0x9DA90, offset: 0x9DA90, size: 0x8, addend: 0x0, symName: __ZNSt3__114__unwrap_rangeB7v160006IPN5Catch5clara6detail11HelpColumnsES5_EENS_4pairIT0_S7_EET_S9_, symObjAddr: 0x4EA8C, symBinAddr: 0x100051B7C, symSize: 0x60 }
  - { offsetInCU: 0x9DC4E, offset: 0x9DC4E, size: 0x8, addend: 0x0, symName: __ZNSt3__113__unwrap_iterB7v160006IPN5Catch5clara6detail11HelpColumnsENS_18__unwrap_iter_implIS5_Lb1EEELi0EEEDTclsrT0_8__unwrapclsr3stdE7declvalIT_EEEES9_, symObjAddr: 0x4EB90, symBinAddr: 0x100051C80, symSize: 0x24 }
  - { offsetInCU: 0x9DC94, offset: 0x9DC94, size: 0x8, addend: 0x0, symName: __ZNSt3__19make_pairB7v160006IPN5Catch5clara6detail11HelpColumnsES5_EENS_4pairINS_18__unwrap_ref_decayIT_E4typeENS7_IT0_E4typeEEEOS8_OSB_, symObjAddr: 0x4EBB4, symBinAddr: 0x100051CA4, symSize: 0x38 }
  - { offsetInCU: 0x9DCE4, offset: 0x9DCE4, size: 0x8, addend: 0x0, symName: __ZNSt3__114__rewrap_rangeB7v160006IPN5Catch5clara6detail11HelpColumnsES5_EET_S6_T0_, symObjAddr: 0x4EBEC, symBinAddr: 0x100051CDC, symSize: 0x2C }
  - { offsetInCU: 0x9DD33, offset: 0x9DD33, size: 0x8, addend: 0x0, symName: __ZNSt3__113__rewrap_iterB7v160006IPN5Catch5clara6detail11HelpColumnsES5_NS_18__unwrap_iter_implIS5_Lb1EEEEET_S8_T0_, symObjAddr: 0x4EC18, symBinAddr: 0x100051D08, symSize: 0x3C }
  - { offsetInCU: 0x9DE0A, offset: 0x9DE0A, size: 0x8, addend: 0x0, symName: __ZNSt3__16__copyB7v160006INS_17_ClassicAlgPolicyENS_11__wrap_iterIPN5Catch5clara6detail11HelpColumnsEEES8_S7_EENS_4pairIT0_T2_EESA_T1_SB_, symObjAddr: 0x4EDCC, symBinAddr: 0x100051EBC, symSize: 0x54 }
  - { offsetInCU: 0x9DE7A, offset: 0x9DE7A, size: 0x8, addend: 0x0, symName: __ZNSt3__123__dispatch_copy_or_moveB7v160006INS_17_ClassicAlgPolicyENS_11__copy_loopIS1_EENS_14__copy_trivialENS_11__wrap_iterIPN5Catch5clara6detail11HelpColumnsEEESB_SA_EENS_4pairIT2_T4_EESD_T3_SE_, symObjAddr: 0x4EE20, symBinAddr: 0x100051F10, symSize: 0x54 }
  - { offsetInCU: 0x9DEFC, offset: 0x9DEFC, size: 0x8, addend: 0x0, symName: __ZNSt3__121__unwrap_and_dispatchB7v160006INS_10__overloadINS_11__copy_loopINS_17_ClassicAlgPolicyEEENS_14__copy_trivialEEENS_11__wrap_iterIPN5Catch5clara6detail11HelpColumnsEEESD_SC_Li0EEENS_4pairIT0_T2_EESF_T1_SG_, symObjAddr: 0x4EE74, symBinAddr: 0x100051F64, symSize: 0xCC }
  - { offsetInCU: 0x9DF91, offset: 0x9DF91, size: 0x8, addend: 0x0, symName: __ZNSt3__114__unwrap_rangeB7v160006INS_11__wrap_iterIPN5Catch5clara6detail11HelpColumnsEEES6_EENS_4pairIT0_S9_EET_SB_, symObjAddr: 0x4EF40, symBinAddr: 0x100052030, symSize: 0x70 }
  - { offsetInCU: 0x9E1B3, offset: 0x9E1B3, size: 0x8, addend: 0x0, symName: __ZNSt3__19make_pairB7v160006INS_11__wrap_iterIPN5Catch5clara6detail11HelpColumnsEEES6_EENS_4pairINS_18__unwrap_ref_decayIT_E4typeENS9_IT0_E4typeEEEOSA_OSD_, symObjAddr: 0x4F038, symBinAddr: 0x100052128, symSize: 0x38 }
  - { offsetInCU: 0x9E203, offset: 0x9E203, size: 0x8, addend: 0x0, symName: __ZNSt3__114__rewrap_rangeB7v160006INS_11__wrap_iterIPN5Catch5clara6detail11HelpColumnsEEES6_EET_S8_T0_, symObjAddr: 0x4F070, symBinAddr: 0x100052160, symSize: 0x3C }
  - { offsetInCU: 0x9E252, offset: 0x9E252, size: 0x8, addend: 0x0, symName: __ZNSt3__113__unwrap_iterB7v160006INS_11__wrap_iterIPN5Catch5clara6detail11HelpColumnsEEENS_18__unwrap_iter_implIS7_Lb1EEELi0EEEDTclsrT0_8__unwrapclsr3stdE7declvalIT_EEEESB_, symObjAddr: 0x4F0AC, symBinAddr: 0x10005219C, symSize: 0x2C }
  - { offsetInCU: 0x9E2F1, offset: 0x9E2F1, size: 0x8, addend: 0x0, symName: __ZNSt3__112__to_addressB7v160006INS_11__wrap_iterIPN5Catch5clara6detail11HelpColumnsEEEvEENS_5decayIDTclsr19__to_address_helperIT_EE6__callclsr3stdE7declvalIRKS9_EEEEE4typeESB_, symObjAddr: 0x4F100, symBinAddr: 0x1000521F0, symSize: 0x24 }
  - { offsetInCU: 0x9E4B3, offset: 0x9E4B3, size: 0x8, addend: 0x0, symName: __ZNSt3__113__rewrap_iterB7v160006INS_11__wrap_iterIPN5Catch5clara6detail11HelpColumnsEEES6_NS_18__unwrap_iter_implIS7_Lb1EEEEET_SA_T0_, symObjAddr: 0x4F238, symBinAddr: 0x100052328, symSize: 0x4C }
  - { offsetInCU: 0x9E50A, offset: 0x9E50A, size: 0x8, addend: 0x0, symName: __ZNSt3__142__uninitialized_allocator_move_if_noexceptB7v160006INS_9allocatorIN5Catch5clara6detail11HelpColumnsEEENS_16reverse_iteratorIPS5_EES9_S9_EET2_RT_T0_T1_SA_, symObjAddr: 0x4F628, symBinAddr: 0x100052718, symSize: 0x11C }
  - { offsetInCU: 0x9E5AA, offset: 0x9E5AA, size: 0x8, addend: 0x0, symName: __ZNSt3__142__uninitialized_allocator_move_if_noexceptB7v160006INS_9allocatorIN5Catch5clara6detail11HelpColumnsEEEPS5_S7_S7_EET2_RT_T0_T1_S8_, symObjAddr: 0x4F744, symBinAddr: 0x100052834, symSize: 0xF4 }
  - { offsetInCU: 0x9E649, offset: 0x9E649, size: 0x8, addend: 0x0, symName: __ZNSt3__14swapB7v160006IPN5Catch5clara6detail11HelpColumnsEEENS_9enable_ifIXaasr21is_move_constructibleIT_EE5valuesr18is_move_assignableIS7_EE5valueEvE4typeERS7_SA_, symObjAddr: 0x4F838, symBinAddr: 0x100052928, symSize: 0x3C }
  - { offsetInCU: 0x9E69E, offset: 0x9E69E, size: 0x8, addend: 0x0, symName: __ZNSt3__125__debug_db_invalidate_allB7v160006INS_6vectorIN5Catch5clara6detail11HelpColumnsENS_9allocatorIS5_EEEEEEvPT_, symObjAddr: 0x4F874, symBinAddr: 0x100052964, symSize: 0x10 }
  - { offsetInCU: 0x9E6D1, offset: 0x9E6D1, size: 0x8, addend: 0x0, symName: __ZNSt3__122__make_exception_guardB7v160006INS_29_AllocatorDestroyRangeReverseINS_9allocatorIN5Catch5clara6detail11HelpColumnsEEENS_16reverse_iteratorIPS6_EEEEEENS_28__exception_guard_exceptionsIT_EESD_, symObjAddr: 0x4F884, symBinAddr: 0x100052974, symSize: 0x4C }
  - { offsetInCU: 0x9E708, offset: 0x9E708, size: 0x8, addend: 0x0, symName: __ZNSt3__119__allocator_destroyB7v160006INS_9allocatorIN5Catch5clara6detail11HelpColumnsEEENS_16reverse_iteratorINS7_IPS5_EEEESA_EEvRT_T0_T1_, symObjAddr: 0x4FAFC, symBinAddr: 0x100052BEC, symSize: 0x70 }
  - { offsetInCU: 0x9E76E, offset: 0x9E76E, size: 0x8, addend: 0x0, symName: __ZNSt3__1neB7v160006INS_16reverse_iteratorIPN5Catch5clara6detail11HelpColumnsEEES7_EEbRKNS1_IT_EERKNS1_IT0_EE, symObjAddr: 0x4FBA8, symBinAddr: 0x100052C98, symSize: 0x60 }
  - { offsetInCU: 0x9E7BD, offset: 0x9E7BD, size: 0x8, addend: 0x0, symName: __ZNSt3__112__to_addressB7v160006INS_16reverse_iteratorINS1_IPN5Catch5clara6detail11HelpColumnsEEEEEvEENS_5decayIDTclsr19__to_address_helperIT_EE6__callclsr3stdE7declvalIRKSA_EEEEE4typeESC_, symObjAddr: 0x4FC08, symBinAddr: 0x100052CF8, symSize: 0x24 }
  - { offsetInCU: 0x9E820, offset: 0x9E820, size: 0x8, addend: 0x0, symName: __ZNSt3__1eqB7v160006IPN5Catch5clara6detail11HelpColumnsEEEbRKNS_11__wrap_iterIT_EESA_, symObjAddr: 0x4FFE8, symBinAddr: 0x1000530D8, symSize: 0x48 }
  - { offsetInCU: 0x9E866, offset: 0x9E866, size: 0x8, addend: 0x0, symName: __ZNSt3__122__make_exception_guardB7v160006INS_6vectorIN5Catch5clara8TextFlow6ColumnENS_9allocatorIS5_EEE16__destroy_vectorEEENS_28__exception_guard_exceptionsIT_EESB_, symObjAddr: 0x502CC, symBinAddr: 0x1000533BC, symSize: 0x40 }
  - { offsetInCU: 0x9E89C, offset: 0x9E89C, size: 0x8, addend: 0x0, symName: __ZNSt3__130__uninitialized_allocator_copyB7v160006INS_9allocatorIN5Catch5clara8TextFlow6ColumnEEEPS5_S7_S7_EET2_RT_T0_T1_S8_, symObjAddr: 0x50548, symBinAddr: 0x100053638, symSize: 0xF4 }
  - { offsetInCU: 0x9E93B, offset: 0x9E93B, size: 0x8, addend: 0x0, symName: __ZNSt3__122__make_exception_guardB7v160006INS_29_AllocatorDestroyRangeReverseINS_9allocatorIN5Catch5clara8TextFlow6ColumnEEEPS6_EEEENS_28__exception_guard_exceptionsIT_EESB_, symObjAddr: 0x5063C, symBinAddr: 0x10005372C, symSize: 0x4C }
  - { offsetInCU: 0x9E972, offset: 0x9E972, size: 0x8, addend: 0x0, symName: __ZNSt3__119__allocator_destroyB7v160006INS_9allocatorIN5Catch5clara8TextFlow6ColumnEEENS_16reverse_iteratorIPS5_EES9_EEvRT_T0_T1_, symObjAddr: 0x508CC, symBinAddr: 0x1000539BC, symSize: 0x70 }
  - { offsetInCU: 0x9E9D6, offset: 0x9E9D6, size: 0x8, addend: 0x0, symName: __ZNSt3__122__make_exception_guardB7v160006INS_6vectorINS_12basic_stringIcNS_11char_traitsIcEENS_9allocatorIcEEEENS5_IS7_EEE16__destroy_vectorEEENS_28__exception_guard_exceptionsIT_EESC_, symObjAddr: 0x50F38, symBinAddr: 0x100054028, symSize: 0x40 }
  - { offsetInCU: 0x9EA0D, offset: 0x9EA0D, size: 0x8, addend: 0x0, symName: __ZNSt3__18distanceB7v160006IPKPKcEENS_15iterator_traitsIT_E15difference_typeES6_S6_, symObjAddr: 0x50FAC, symBinAddr: 0x10005409C, symSize: 0x2C }
  - { offsetInCU: 0x9EA53, offset: 0x9EA53, size: 0x8, addend: 0x0, symName: __ZNSt3__110__distanceB7v160006IPKPKcEENS_15iterator_traitsIT_E15difference_typeES6_S6_NS_26random_access_iterator_tagE, symObjAddr: 0x51244, symBinAddr: 0x100054334, symSize: 0x28 }
  - { offsetInCU: 0x9EAA4, offset: 0x9EAA4, size: 0x8, addend: 0x0, symName: __ZNSt3__119__allocate_at_leastB7v160006INS_9allocatorINS_12basic_stringIcNS_11char_traitsIcEENS1_IcEEEEEEEENS_19__allocation_resultINS_16allocator_traitsIT_E7pointerEEERSA_m, symObjAddr: 0x512E8, symBinAddr: 0x1000543D8, symSize: 0x40 }
  - { offsetInCU: 0x9EAEA, offset: 0x9EAEA, size: 0x8, addend: 0x0, symName: __ZNSt3__112__to_addressB7v160006INS_12basic_stringIcNS_11char_traitsIcEENS_9allocatorIcEEEEEEPT_S8_, symObjAddr: 0x51570, symBinAddr: 0x100054660, symSize: 0x14 }
  - { offsetInCU: 0x9EB20, offset: 0x9EB20, size: 0x8, addend: 0x0, symName: __ZNSt3__130__uninitialized_allocator_copyB7v160006INS_9allocatorINS_12basic_stringIcNS_11char_traitsIcEENS1_IcEEEEEEPKPKcSB_PS6_EET2_RT_T0_T1_SD_, symObjAddr: 0x51620, symBinAddr: 0x100054710, symSize: 0xF4 }
  - { offsetInCU: 0x9EBBF, offset: 0x9EBBF, size: 0x8, addend: 0x0, symName: __ZNSt3__122__make_exception_guardB7v160006INS_29_AllocatorDestroyRangeReverseINS_9allocatorINS_12basic_stringIcNS_11char_traitsIcEENS2_IcEEEEEEPS7_EEEENS_28__exception_guard_exceptionsIT_EESC_, symObjAddr: 0x5178C, symBinAddr: 0x10005487C, symSize: 0x4C }
  - { offsetInCU: 0x9EBF6, offset: 0x9EBF6, size: 0x8, addend: 0x0, symName: __ZNSt3__119__allocator_destroyB7v160006INS_9allocatorINS_12basic_stringIcNS_11char_traitsIcEENS1_IcEEEEEENS_16reverse_iteratorIPS6_EESA_EEvRT_T0_T1_, symObjAddr: 0x51A20, symBinAddr: 0x100054B10, symSize: 0x70 }
  - { offsetInCU: 0x9EC5A, offset: 0x9EC5A, size: 0x8, addend: 0x0, symName: __ZNSt3__1neB7v160006IPNS_12basic_stringIcNS_11char_traitsIcEENS_9allocatorIcEEEES7_EEbRKNS_16reverse_iteratorIT_EERKNS8_IT0_EE, symObjAddr: 0x51AC4, symBinAddr: 0x100054BB4, symSize: 0x48 }
  - { offsetInCU: 0x9ECA9, offset: 0x9ECA9, size: 0x8, addend: 0x0, symName: __ZNSt3__112__to_addressB7v160006INS_16reverse_iteratorIPNS_12basic_stringIcNS_11char_traitsIcEENS_9allocatorIcEEEEEEvEENS_5decayIDTclsr19__to_address_helperIT_EE6__callclsr3stdE7declvalIRKSB_EEEEE4typeESD_, symObjAddr: 0x51B38, symBinAddr: 0x100054C28, symSize: 0x24 }
  - { offsetInCU: 0x9ED0C, offset: 0x9ED0C, size: 0x8, addend: 0x0, symName: __ZNSt3__118__debug_db_erase_cB7v160006INS_6vectorINS_12basic_stringIcNS_11char_traitsIcEENS_9allocatorIcEEEENS5_IS7_EEEEEEvPT_, symObjAddr: 0x51E48, symBinAddr: 0x100054F38, symSize: 0x10 }
  - { offsetInCU: 0x9ED3F, offset: 0x9ED3F, size: 0x8, addend: 0x0, symName: __ZNSt3__18distanceB7v160006IPNS_12basic_stringIcNS_11char_traitsIcEENS_9allocatorIcEEEEEENS_15iterator_traitsIT_E15difference_typeES9_S9_, symObjAddr: 0x52228, symBinAddr: 0x100055318, symSize: 0x2C }
  - { offsetInCU: 0x9ED85, offset: 0x9ED85, size: 0x8, addend: 0x0, symName: __ZNSt3__14copyB7v160006IPNS_12basic_stringIcNS_11char_traitsIcEENS_9allocatorIcEEEES7_EET0_T_S9_S8_, symObjAddr: 0x522A4, symBinAddr: 0x100055394, symSize: 0x40 }
  - { offsetInCU: 0x9EDE3, offset: 0x9EDE3, size: 0x8, addend: 0x0, symName: __ZNSt3__125__debug_db_invalidate_allB7v160006INS_6vectorINS_12basic_stringIcNS_11char_traitsIcEENS_9allocatorIcEEEENS5_IS7_EEEEEEvPT_, symObjAddr: 0x52510, symBinAddr: 0x100055600, symSize: 0x10 }
  - { offsetInCU: 0x9EE16, offset: 0x9EE16, size: 0x8, addend: 0x0, symName: __ZNSt3__110__distanceB7v160006IPNS_12basic_stringIcNS_11char_traitsIcEENS_9allocatorIcEEEEEENS_15iterator_traitsIT_E15difference_typeES9_S9_NS_26random_access_iterator_tagE, symObjAddr: 0x52520, symBinAddr: 0x100055610, symSize: 0x28 }
  - { offsetInCU: 0x9EE67, offset: 0x9EE67, size: 0x8, addend: 0x0, symName: __ZNSt3__19__advanceB7v160006IPNS_12basic_stringIcNS_11char_traitsIcEENS_9allocatorIcEEEEEEvRT_NS_15iterator_traitsIS8_E15difference_typeENS_26random_access_iterator_tagE, symObjAddr: 0x52548, symBinAddr: 0x100055638, symSize: 0x30 }
  - { offsetInCU: 0x9EEB4, offset: 0x9EEB4, size: 0x8, addend: 0x0, symName: __ZNSt3__16__copyB7v160006INS_17_ClassicAlgPolicyEPNS_12basic_stringIcNS_11char_traitsIcEENS_9allocatorIcEEEES8_S8_EENS_4pairIT0_T2_EESA_T1_SB_, symObjAddr: 0x52578, symBinAddr: 0x100055668, symSize: 0x44 }
  - { offsetInCU: 0x9EF24, offset: 0x9EF24, size: 0x8, addend: 0x0, symName: __ZNSt3__123__dispatch_copy_or_moveB7v160006INS_17_ClassicAlgPolicyENS_11__copy_loopIS1_EENS_14__copy_trivialEPNS_12basic_stringIcNS_11char_traitsIcEENS_9allocatorIcEEEESB_SB_EENS_4pairIT2_T4_EESD_T3_SE_, symObjAddr: 0x525BC, symBinAddr: 0x1000556AC, symSize: 0x44 }
  - { offsetInCU: 0x9EFA6, offset: 0x9EFA6, size: 0x8, addend: 0x0, symName: __ZNSt3__121__unwrap_and_dispatchB7v160006INS_10__overloadINS_11__copy_loopINS_17_ClassicAlgPolicyEEENS_14__copy_trivialEEEPNS_12basic_stringIcNS_11char_traitsIcEENS_9allocatorIcEEEESD_SD_Li0EEENS_4pairIT0_T2_EESF_T1_SG_, symObjAddr: 0x52600, symBinAddr: 0x1000556F0, symSize: 0xB4 }
  - { offsetInCU: 0x9F03B, offset: 0x9F03B, size: 0x8, addend: 0x0, symName: __ZNSt3__114__unwrap_rangeB7v160006IPNS_12basic_stringIcNS_11char_traitsIcEENS_9allocatorIcEEEES7_EENS_4pairIT0_S9_EET_SB_, symObjAddr: 0x526B4, symBinAddr: 0x1000557A4, symSize: 0x60 }
  - { offsetInCU: 0x9F165, offset: 0x9F165, size: 0x8, addend: 0x0, symName: __ZNSt3__113__unwrap_iterB7v160006IPNS_12basic_stringIcNS_11char_traitsIcEENS_9allocatorIcEEEENS_18__unwrap_iter_implIS7_Lb1EEELi0EEEDTclsrT0_8__unwrapclsr3stdE7declvalIT_EEEESB_, symObjAddr: 0x5279C, symBinAddr: 0x10005588C, symSize: 0x24 }
  - { offsetInCU: 0x9F1AB, offset: 0x9F1AB, size: 0x8, addend: 0x0, symName: __ZNSt3__19make_pairB7v160006IPNS_12basic_stringIcNS_11char_traitsIcEENS_9allocatorIcEEEES7_EENS_4pairINS_18__unwrap_ref_decayIT_E4typeENS9_IT0_E4typeEEEOSA_OSD_, symObjAddr: 0x527C0, symBinAddr: 0x1000558B0, symSize: 0x38 }
  - { offsetInCU: 0x9F1FB, offset: 0x9F1FB, size: 0x8, addend: 0x0, symName: __ZNSt3__114__rewrap_rangeB7v160006IPNS_12basic_stringIcNS_11char_traitsIcEENS_9allocatorIcEEEES7_EET_S8_T0_, symObjAddr: 0x527F8, symBinAddr: 0x1000558E8, symSize: 0x2C }
  - { offsetInCU: 0x9F24A, offset: 0x9F24A, size: 0x8, addend: 0x0, symName: __ZNSt3__113__rewrap_iterB7v160006IPNS_12basic_stringIcNS_11char_traitsIcEENS_9allocatorIcEEEES7_NS_18__unwrap_iter_implIS7_Lb1EEEEET_SA_T0_, symObjAddr: 0x52824, symBinAddr: 0x100055914, symSize: 0x3C }
  - { offsetInCU: 0x9F2F9, offset: 0x9F2F9, size: 0x8, addend: 0x0, symName: __ZNSt3__130__uninitialized_allocator_copyB7v160006INS_9allocatorINS_12basic_stringIcNS_11char_traitsIcEENS1_IcEEEEEEPS6_S8_S8_EET2_RT_T0_T1_S9_, symObjAddr: 0x5294C, symBinAddr: 0x100055A3C, symSize: 0xF4 }
  - { offsetInCU: 0x9F398, offset: 0x9F398, size: 0x8, addend: 0x0, symName: __ZNSt3__18distanceB7v160006IPN5Catch5clara6detail3OptEEENS_15iterator_traitsIT_E15difference_typeES7_S7_, symObjAddr: 0x5308C, symBinAddr: 0x10005617C, symSize: 0x2C }
  - { offsetInCU: 0x9F3DE, offset: 0x9F3DE, size: 0x8, addend: 0x0, symName: __ZNSt3__14copyB7v160006IPN5Catch5clara6detail3OptES5_EET0_T_S7_S6_, symObjAddr: 0x53108, symBinAddr: 0x1000561F8, symSize: 0x40 }
  - { offsetInCU: 0x9F43C, offset: 0x9F43C, size: 0x8, addend: 0x0, symName: __ZNSt3__110__distanceB7v160006IPN5Catch5clara6detail3OptEEENS_15iterator_traitsIT_E15difference_typeES7_S7_NS_26random_access_iterator_tagE, symObjAddr: 0x5339C, symBinAddr: 0x10005648C, symSize: 0x28 }
  - { offsetInCU: 0x9F48D, offset: 0x9F48D, size: 0x8, addend: 0x0, symName: __ZNSt3__19__advanceB7v160006IPN5Catch5clara6detail3OptEEEvRT_NS_15iterator_traitsIS6_E15difference_typeENS_26random_access_iterator_tagE, symObjAddr: 0x533C4, symBinAddr: 0x1000564B4, symSize: 0x30 }
  - { offsetInCU: 0x9F4DA, offset: 0x9F4DA, size: 0x8, addend: 0x0, symName: __ZNSt3__16__copyB7v160006INS_17_ClassicAlgPolicyEPN5Catch5clara6detail3OptES6_S6_EENS_4pairIT0_T2_EES8_T1_S9_, symObjAddr: 0x533F4, symBinAddr: 0x1000564E4, symSize: 0x44 }
  - { offsetInCU: 0x9F54A, offset: 0x9F54A, size: 0x8, addend: 0x0, symName: __ZNSt3__123__dispatch_copy_or_moveB7v160006INS_17_ClassicAlgPolicyENS_11__copy_loopIS1_EENS_14__copy_trivialEPN5Catch5clara6detail3OptES9_S9_EENS_4pairIT2_T4_EESB_T3_SC_, symObjAddr: 0x53438, symBinAddr: 0x100056528, symSize: 0x44 }
  - { offsetInCU: 0x9F5CC, offset: 0x9F5CC, size: 0x8, addend: 0x0, symName: __ZNSt3__121__unwrap_and_dispatchB7v160006INS_10__overloadINS_11__copy_loopINS_17_ClassicAlgPolicyEEENS_14__copy_trivialEEEPN5Catch5clara6detail3OptESB_SB_Li0EEENS_4pairIT0_T2_EESD_T1_SE_, symObjAddr: 0x5347C, symBinAddr: 0x10005656C, symSize: 0xB4 }
  - { offsetInCU: 0x9F661, offset: 0x9F661, size: 0x8, addend: 0x0, symName: __ZNSt3__114__unwrap_rangeB7v160006IPN5Catch5clara6detail3OptES5_EENS_4pairIT0_S7_EET_S9_, symObjAddr: 0x53530, symBinAddr: 0x100056620, symSize: 0x60 }
  - { offsetInCU: 0x9F78B, offset: 0x9F78B, size: 0x8, addend: 0x0, symName: __ZNSt3__113__unwrap_iterB7v160006IPN5Catch5clara6detail3OptENS_18__unwrap_iter_implIS5_Lb1EEELi0EEEDTclsrT0_8__unwrapclsr3stdE7declvalIT_EEEES9_, symObjAddr: 0x53618, symBinAddr: 0x100056708, symSize: 0x24 }
  - { offsetInCU: 0x9F7D1, offset: 0x9F7D1, size: 0x8, addend: 0x0, symName: __ZNSt3__19make_pairB7v160006IPN5Catch5clara6detail3OptES5_EENS_4pairINS_18__unwrap_ref_decayIT_E4typeENS7_IT0_E4typeEEEOS8_OSB_, symObjAddr: 0x5363C, symBinAddr: 0x10005672C, symSize: 0x38 }
  - { offsetInCU: 0x9F821, offset: 0x9F821, size: 0x8, addend: 0x0, symName: __ZNSt3__114__rewrap_rangeB7v160006IPN5Catch5clara6detail3OptES5_EET_S6_T0_, symObjAddr: 0x53674, symBinAddr: 0x100056764, symSize: 0x2C }
  - { offsetInCU: 0x9F870, offset: 0x9F870, size: 0x8, addend: 0x0, symName: __ZNSt3__113__rewrap_iterB7v160006IPN5Catch5clara6detail3OptES5_NS_18__unwrap_iter_implIS5_Lb1EEEEET_S8_T0_, symObjAddr: 0x536A0, symBinAddr: 0x100056790, symSize: 0x3C }
  - { offsetInCU: 0x9F8C8, offset: 0x9F8C8, size: 0x8, addend: 0x0, symName: __ZNSt3__14swapB7v160006IPN5Catch5clara6detail8BoundRefEEENS_9enable_ifIXaasr21is_move_constructibleIT_EE5valuesr18is_move_assignableIS7_EE5valueEvE4typeERS7_SA_, symObjAddr: 0x53868, symBinAddr: 0x100056958, symSize: 0x3C }
  - { offsetInCU: 0x9F974, offset: 0x9F974, size: 0x8, addend: 0x0, symName: __ZNSt3__130__uninitialized_allocator_copyB7v160006INS_9allocatorIN5Catch5clara6detail3OptEEEPS5_S7_S7_EET2_RT_T0_T1_S8_, symObjAddr: 0x539CC, symBinAddr: 0x100056ABC, symSize: 0xF4 }
  - { offsetInCU: 0x9FA13, offset: 0x9FA13, size: 0x8, addend: 0x0, symName: __ZNSt3__122__make_exception_guardB7v160006INS_29_AllocatorDestroyRangeReverseINS_9allocatorIN5Catch5clara6detail3OptEEEPS6_EEEENS_28__exception_guard_exceptionsIT_EESB_, symObjAddr: 0x53B38, symBinAddr: 0x100056C28, symSize: 0x4C }
  - { offsetInCU: 0x9FA4A, offset: 0x9FA4A, size: 0x8, addend: 0x0, symName: __ZNSt3__119__allocator_destroyB7v160006INS_9allocatorIN5Catch5clara6detail3OptEEENS_16reverse_iteratorIPS5_EES9_EEvRT_T0_T1_, symObjAddr: 0x53FE4, symBinAddr: 0x1000570D4, symSize: 0x70 }
  - { offsetInCU: 0x9FAAE, offset: 0x9FAAE, size: 0x8, addend: 0x0, symName: __ZNSt3__1neB7v160006IPN5Catch5clara6detail3OptES5_EEbRKNS_16reverse_iteratorIT_EERKNS6_IT0_EE, symObjAddr: 0x54088, symBinAddr: 0x100057178, symSize: 0x48 }
  - { offsetInCU: 0x9FAFD, offset: 0x9FAFD, size: 0x8, addend: 0x0, symName: __ZNSt3__112__to_addressB7v160006INS_16reverse_iteratorIPN5Catch5clara6detail3OptEEEvEENS_5decayIDTclsr19__to_address_helperIT_EE6__callclsr3stdE7declvalIRKS9_EEEEE4typeESB_, symObjAddr: 0x540D0, symBinAddr: 0x1000571C0, symSize: 0x24 }
  - { offsetInCU: 0x9FB60, offset: 0x9FB60, size: 0x8, addend: 0x0, symName: __ZNSt3__119__allocate_at_leastB7v160006INS_9allocatorIN5Catch5clara6detail3OptEEEEENS_19__allocation_resultINS_16allocator_traitsIT_E7pointerEEERS9_m, symObjAddr: 0x54288, symBinAddr: 0x100057378, symSize: 0x40 }
  - { offsetInCU: 0x9FBA6, offset: 0x9FBA6, size: 0x8, addend: 0x0, symName: __ZNSt3__18distanceB7v160006IPN5Catch5clara6detail3ArgEEENS_15iterator_traitsIT_E15difference_typeES7_S7_, symObjAddr: 0x5464C, symBinAddr: 0x10005773C, symSize: 0x2C }
  - { offsetInCU: 0x9FBEC, offset: 0x9FBEC, size: 0x8, addend: 0x0, symName: __ZNSt3__14copyB7v160006IPN5Catch5clara6detail3ArgES5_EET0_T_S7_S6_, symObjAddr: 0x546C8, symBinAddr: 0x1000577B8, symSize: 0x40 }
  - { offsetInCU: 0x9FC4A, offset: 0x9FC4A, size: 0x8, addend: 0x0, symName: __ZNSt3__110__distanceB7v160006IPN5Catch5clara6detail3ArgEEENS_15iterator_traitsIT_E15difference_typeES7_S7_NS_26random_access_iterator_tagE, symObjAddr: 0x5495C, symBinAddr: 0x100057A4C, symSize: 0x28 }
  - { offsetInCU: 0x9FC9B, offset: 0x9FC9B, size: 0x8, addend: 0x0, symName: __ZNSt3__19__advanceB7v160006IPN5Catch5clara6detail3ArgEEEvRT_NS_15iterator_traitsIS6_E15difference_typeENS_26random_access_iterator_tagE, symObjAddr: 0x54984, symBinAddr: 0x100057A74, symSize: 0x30 }
  - { offsetInCU: 0x9FCE8, offset: 0x9FCE8, size: 0x8, addend: 0x0, symName: __ZNSt3__16__copyB7v160006INS_17_ClassicAlgPolicyEPN5Catch5clara6detail3ArgES6_S6_EENS_4pairIT0_T2_EES8_T1_S9_, symObjAddr: 0x549B4, symBinAddr: 0x100057AA4, symSize: 0x44 }
  - { offsetInCU: 0x9FD58, offset: 0x9FD58, size: 0x8, addend: 0x0, symName: __ZNSt3__123__dispatch_copy_or_moveB7v160006INS_17_ClassicAlgPolicyENS_11__copy_loopIS1_EENS_14__copy_trivialEPN5Catch5clara6detail3ArgES9_S9_EENS_4pairIT2_T4_EESB_T3_SC_, symObjAddr: 0x549F8, symBinAddr: 0x100057AE8, symSize: 0x44 }
  - { offsetInCU: 0x9FDDA, offset: 0x9FDDA, size: 0x8, addend: 0x0, symName: __ZNSt3__121__unwrap_and_dispatchB7v160006INS_10__overloadINS_11__copy_loopINS_17_ClassicAlgPolicyEEENS_14__copy_trivialEEEPN5Catch5clara6detail3ArgESB_SB_Li0EEENS_4pairIT0_T2_EESD_T1_SE_, symObjAddr: 0x54A3C, symBinAddr: 0x100057B2C, symSize: 0xB4 }
  - { offsetInCU: 0x9FE6F, offset: 0x9FE6F, size: 0x8, addend: 0x0, symName: __ZNSt3__114__unwrap_rangeB7v160006IPN5Catch5clara6detail3ArgES5_EENS_4pairIT0_S7_EET_S9_, symObjAddr: 0x54AF0, symBinAddr: 0x100057BE0, symSize: 0x60 }
  - { offsetInCU: 0x9FF99, offset: 0x9FF99, size: 0x8, addend: 0x0, symName: __ZNSt3__113__unwrap_iterB7v160006IPN5Catch5clara6detail3ArgENS_18__unwrap_iter_implIS5_Lb1EEELi0EEEDTclsrT0_8__unwrapclsr3stdE7declvalIT_EEEES9_, symObjAddr: 0x54BD8, symBinAddr: 0x100057CC8, symSize: 0x24 }
  - { offsetInCU: 0x9FFDF, offset: 0x9FFDF, size: 0x8, addend: 0x0, symName: __ZNSt3__19make_pairB7v160006IPN5Catch5clara6detail3ArgES5_EENS_4pairINS_18__unwrap_ref_decayIT_E4typeENS7_IT0_E4typeEEEOS8_OSB_, symObjAddr: 0x54BFC, symBinAddr: 0x100057CEC, symSize: 0x38 }
  - { offsetInCU: 0xA002F, offset: 0xA002F, size: 0x8, addend: 0x0, symName: __ZNSt3__114__rewrap_rangeB7v160006IPN5Catch5clara6detail3ArgES5_EET_S6_T0_, symObjAddr: 0x54C34, symBinAddr: 0x100057D24, symSize: 0x2C }
  - { offsetInCU: 0xA007E, offset: 0xA007E, size: 0x8, addend: 0x0, symName: __ZNSt3__113__rewrap_iterB7v160006IPN5Catch5clara6detail3ArgES5_NS_18__unwrap_iter_implIS5_Lb1EEEEET_S8_T0_, symObjAddr: 0x54C60, symBinAddr: 0x100057D50, symSize: 0x3C }
  - { offsetInCU: 0xA012D, offset: 0xA012D, size: 0x8, addend: 0x0, symName: __ZNSt3__130__uninitialized_allocator_copyB7v160006INS_9allocatorIN5Catch5clara6detail3ArgEEEPS5_S7_S7_EET2_RT_T0_T1_S8_, symObjAddr: 0x54EA8, symBinAddr: 0x100057F98, symSize: 0xF4 }
  - { offsetInCU: 0xA01CC, offset: 0xA01CC, size: 0x8, addend: 0x0, symName: __ZNSt3__122__make_exception_guardB7v160006INS_29_AllocatorDestroyRangeReverseINS_9allocatorIN5Catch5clara6detail3ArgEEEPS6_EEEENS_28__exception_guard_exceptionsIT_EESB_, symObjAddr: 0x55014, symBinAddr: 0x100058104, symSize: 0x4C }
  - { offsetInCU: 0xA0203, offset: 0xA0203, size: 0x8, addend: 0x0, symName: __ZNSt3__119__allocator_destroyB7v160006INS_9allocatorIN5Catch5clara6detail3ArgEEENS_16reverse_iteratorIPS5_EES9_EEvRT_T0_T1_, symObjAddr: 0x5545C, symBinAddr: 0x10005854C, symSize: 0x70 }
  - { offsetInCU: 0xA0267, offset: 0xA0267, size: 0x8, addend: 0x0, symName: __ZNSt3__1neB7v160006IPN5Catch5clara6detail3ArgES5_EEbRKNS_16reverse_iteratorIT_EERKNS6_IT0_EE, symObjAddr: 0x55500, symBinAddr: 0x1000585F0, symSize: 0x48 }
  - { offsetInCU: 0xA02B6, offset: 0xA02B6, size: 0x8, addend: 0x0, symName: __ZNSt3__112__to_addressB7v160006INS_16reverse_iteratorIPN5Catch5clara6detail3ArgEEEvEENS_5decayIDTclsr19__to_address_helperIT_EE6__callclsr3stdE7declvalIRKS9_EEEEE4typeESB_, symObjAddr: 0x55548, symBinAddr: 0x100058638, symSize: 0x24 }
  - { offsetInCU: 0xA0319, offset: 0xA0319, size: 0x8, addend: 0x0, symName: __ZNSt3__119__allocate_at_leastB7v160006INS_9allocatorIN5Catch5clara6detail3ArgEEEEENS_19__allocation_resultINS_16allocator_traitsIT_E7pointerEEERS9_m, symObjAddr: 0x55700, symBinAddr: 0x1000587F0, symSize: 0x40 }
  - { offsetInCU: 0xA035E, offset: 0xA035E, size: 0x8, addend: 0x0, symName: __ZNSt3__142__uninitialized_allocator_move_if_noexceptB7v160006INS_9allocatorINS_12basic_stringIcNS_11char_traitsIcEENS1_IcEEEEEENS_16reverse_iteratorIPS6_EESA_SA_EET2_RT_T0_T1_SB_, symObjAddr: 0x55F2C, symBinAddr: 0x10005901C, symSize: 0x11C }
  - { offsetInCU: 0xA03FF, offset: 0xA03FF, size: 0x8, addend: 0x0, symName: __ZNSt3__122__make_exception_guardB7v160006INS_29_AllocatorDestroyRangeReverseINS_9allocatorINS_12basic_stringIcNS_11char_traitsIcEENS2_IcEEEEEENS_16reverse_iteratorIPS7_EEEEEENS_28__exception_guard_exceptionsIT_EESE_, symObjAddr: 0x56048, symBinAddr: 0x100059138, symSize: 0x4C }
  - { offsetInCU: 0xA0436, offset: 0xA0436, size: 0x8, addend: 0x0, symName: __ZNSt3__119__allocator_destroyB7v160006INS_9allocatorINS_12basic_stringIcNS_11char_traitsIcEENS1_IcEEEEEENS_16reverse_iteratorINS8_IPS6_EEEESB_EEvRT_T0_T1_, symObjAddr: 0x562C0, symBinAddr: 0x1000593B0, symSize: 0x70 }
  - { offsetInCU: 0xA049C, offset: 0xA049C, size: 0x8, addend: 0x0, symName: __ZNSt3__1neB7v160006INS_16reverse_iteratorIPNS_12basic_stringIcNS_11char_traitsIcEENS_9allocatorIcEEEEEES9_EEbRKNS1_IT_EERKNS1_IT0_EE, symObjAddr: 0x5636C, symBinAddr: 0x10005945C, symSize: 0x60 }
  - { offsetInCU: 0xA04EB, offset: 0xA04EB, size: 0x8, addend: 0x0, symName: __ZNSt3__112__to_addressB7v160006INS_16reverse_iteratorINS1_IPNS_12basic_stringIcNS_11char_traitsIcEENS_9allocatorIcEEEEEEEEvEENS_5decayIDTclsr19__to_address_helperIT_EE6__callclsr3stdE7declvalIRKSC_EEEEE4typeESE_, symObjAddr: 0x563CC, symBinAddr: 0x1000594BC, symSize: 0x24 }
  - { offsetInCU: 0xA054E, offset: 0xA054E, size: 0x8, addend: 0x0, symName: __ZNSt3__13minB7v160006IiNS_6__lessIiiEEEERKT_S5_S5_T0_, symObjAddr: 0x5670C, symBinAddr: 0x1000597FC, symSize: 0x54 }
  - { offsetInCU: 0xA05E9, offset: 0xA05E9, size: 0x8, addend: 0x0, symName: __ZNSt3__1neB7v160006IPN5Catch8TestSpec11FilterMatchEEEbRKNS_11__wrap_iterIT_EES9_, symObjAddr: 0x56F50, symBinAddr: 0x10005A040, symSize: 0x34 }
  - { offsetInCU: 0xA062F, offset: 0xA062F, size: 0x8, addend: 0x0, symName: __ZNSt3__1neB7v160006IPKNS_10shared_ptrIN5Catch16IReporterFactoryEEEEEbRKNS_11__wrap_iterIT_EESB_, symObjAddr: 0x57360, symBinAddr: 0x10005A450, symSize: 0x34 }
  - { offsetInCU: 0xA0675, offset: 0xA0675, size: 0x8, addend: 0x0, symName: __ZNSt3__1eqB7v160006IPKNS_10shared_ptrIN5Catch16IReporterFactoryEEEEEbRKNS_11__wrap_iterIT_EESB_, symObjAddr: 0x5757C, symBinAddr: 0x10005A66C, symSize: 0x48 }
  - { offsetInCU: 0xA06BB, offset: 0xA06BB, size: 0x8, addend: 0x0, symName: __ZNSt3__119__debug_db_insert_cB7v160006INS_6vectorIN5Catch8TestSpec11FilterMatchENS_9allocatorIS4_EEEEEEvPT_, symObjAddr: 0x57918, symBinAddr: 0x10005AA08, symSize: 0x10 }
  - { offsetInCU: 0xA06EE, offset: 0xA06EE, size: 0x8, addend: 0x0, symName: __ZNSt3__115__debug_db_swapB7v160006INS_6vectorIN5Catch8TestSpec11FilterMatchENS_9allocatorIS4_EEEEEEvPT_S9_, symObjAddr: 0x57B7C, symBinAddr: 0x10005AC6C, symSize: 0x14 }
  - { offsetInCU: 0xA0730, offset: 0xA0730, size: 0x8, addend: 0x0, symName: __ZNSt3__125__debug_db_invalidate_allB7v160006INS_6vectorIN5Catch8TestSpec11FilterMatchENS_9allocatorIS4_EEEEEEvPT_, symObjAddr: 0x57DA0, symBinAddr: 0x10005AE90, symSize: 0x10 }
  - { offsetInCU: 0xA0763, offset: 0xA0763, size: 0x8, addend: 0x0, symName: __ZNSt3__112__to_addressB7v160006IN5Catch8TestSpec11FilterMatchEEEPT_S5_, symObjAddr: 0x57E68, symBinAddr: 0x10005AF58, symSize: 0x14 }
  - { offsetInCU: 0xA079A, offset: 0xA079A, size: 0x8, addend: 0x0, symName: __ZNSt3__118__debug_db_erase_cB7v160006INS_6vectorIPKN5Catch8TestCaseENS_9allocatorIS5_EEEEEEvPT_, symObjAddr: 0x58120, symBinAddr: 0x10005B210, symSize: 0x10 }
  - { offsetInCU: 0xA07CD, offset: 0xA07CD, size: 0x8, addend: 0x0, symName: __ZNSt3__112__to_addressB7v160006IPKN5Catch8TestCaseEEEPT_S6_, symObjAddr: 0x58264, symBinAddr: 0x10005B354, symSize: 0x14 }
  - { offsetInCU: 0xA082D, offset: 0xA082D, size: 0x8, addend: 0x0, symName: __ZNSt3__127__tree_balance_after_insertB7v160006IPNS_16__tree_node_baseIPvEEEEvT_S5_, symObjAddr: 0x5910C, symBinAddr: 0x10005C1FC, symSize: 0x32C }
  - { offsetInCU: 0xA08AA, offset: 0xA08AA, size: 0x8, addend: 0x0, symName: __ZNSt3__120__tree_is_left_childB7v160006IPNS_16__tree_node_baseIPvEEEEbT_, symObjAddr: 0x59478, symBinAddr: 0x10005C568, symSize: 0x2C }
  - { offsetInCU: 0xA08E0, offset: 0xA08E0, size: 0x8, addend: 0x0, symName: __ZNSt3__118__tree_left_rotateB7v160006IPNS_16__tree_node_baseIPvEEEEvT_, symObjAddr: 0x594A4, symBinAddr: 0x10005C594, symSize: 0xD8 }
  - { offsetInCU: 0xA0922, offset: 0xA0922, size: 0x8, addend: 0x0, symName: __ZNSt3__119__tree_right_rotateB7v160006IPNS_16__tree_node_baseIPvEEEEvT_, symObjAddr: 0x5957C, symBinAddr: 0x10005C66C, symSize: 0xCC }
  - { offsetInCU: 0xA0965, offset: 0xA0965, size: 0x8, addend: 0x0, symName: __ZNSt3__1eqB7v160006IPN5Catch8TestSpec11FilterMatchEEEbRKNS_11__wrap_iterIT_EES9_, symObjAddr: 0x59A18, symBinAddr: 0x10005CB08, symSize: 0x48 }
  - { offsetInCU: 0xA09AB, offset: 0xA09AB, size: 0x8, addend: 0x0, symName: __ZNSt3__1neB7v160006IPKPKN5Catch8TestCaseEEEbRKNS_11__wrap_iterIT_EESB_, symObjAddr: 0x59AA4, symBinAddr: 0x10005CB94, symSize: 0x34 }
  - { offsetInCU: 0xA09F1, offset: 0xA09F1, size: 0x8, addend: 0x0, symName: __ZNSt3__1eqB7v160006IPKPKN5Catch8TestCaseEEEbRKNS_11__wrap_iterIT_EESB_, symObjAddr: 0x59C28, symBinAddr: 0x10005CD18, symSize: 0x48 }
  - { offsetInCU: 0xA0A36, offset: 0xA0A36, size: 0x8, addend: 0x0, symName: __ZNSt3__1eqB7v160006ERKNS_21__tree_const_iteratorIPKN5Catch8TestCaseEPNS_11__tree_nodeIS4_PvEElEESB_, symObjAddr: 0x5A1AC, symBinAddr: 0x10005D29C, symSize: 0x30 }
  - { offsetInCU: 0xA0A74, offset: 0xA0A74, size: 0x8, addend: 0x0, symName: __ZNSt3__14nextB7v160006INS_21__tree_const_iteratorIPKN5Catch8TestCaseEPNS_11__tree_nodeIS5_PvEElEEEENS_9enable_ifIXsr25__is_cpp17_input_iteratorIT_EE5valueESC_E4typeESC_NS_15iterator_traitsISC_E15difference_typeE, symObjAddr: 0x5A2A4, symBinAddr: 0x10005D394, symSize: 0x50 }
  - { offsetInCU: 0xA0ABA, offset: 0xA0ABA, size: 0x8, addend: 0x0, symName: __ZNSt3__116__tree_prev_iterB7v160006IPNS_16__tree_node_baseIPvEEPNS_15__tree_end_nodeIS4_EEEET_T0_, symObjAddr: 0x5A360, symBinAddr: 0x10005D450, symSize: 0x88 }
  - { offsetInCU: 0xA0B09, offset: 0xA0B09, size: 0x8, addend: 0x0, symName: __ZNSt3__110__tree_maxB7v160006IPNS_16__tree_node_baseIPvEEEET_S5_, symObjAddr: 0x5A3E8, symBinAddr: 0x10005D4D8, symSize: 0x40 }
  - { offsetInCU: 0xA0B40, offset: 0xA0B40, size: 0x8, addend: 0x0, symName: __ZNSt3__19__advanceB7v160006INS_21__tree_const_iteratorIPKN5Catch8TestCaseEPNS_11__tree_nodeIS5_PvEElEEEEvRT_NS_15iterator_traitsISB_E15difference_typeENS_26bidirectional_iterator_tagE, symObjAddr: 0x5A478, symBinAddr: 0x10005D568, symSize: 0xA4 }
  - { offsetInCU: 0xA0B8D, offset: 0xA0B8D, size: 0x8, addend: 0x0, symName: __ZNSt3__116__tree_next_iterB7v160006IPNS_15__tree_end_nodeIPNS_16__tree_node_baseIPvEEEES5_EET_T0_, symObjAddr: 0x5A554, symBinAddr: 0x10005D644, symSize: 0x80 }
  - { offsetInCU: 0xA0BCD, offset: 0xA0BCD, size: 0x8, addend: 0x0, symName: __ZNSt3__110__tree_minB7v160006IPNS_16__tree_node_baseIPvEEEET_S5_, symObjAddr: 0x5A5D4, symBinAddr: 0x10005D6C4, symSize: 0x40 }
  - { offsetInCU: 0xA0C03, offset: 0xA0C03, size: 0x8, addend: 0x0, symName: __ZNSt3__1neB7v160006ERKNS_21__tree_const_iteratorIPKN5Catch8TestCaseEPNS_11__tree_nodeIS4_PvEElEESB_, symObjAddr: 0x5A8A0, symBinAddr: 0x10005D990, symSize: 0x34 }
  - { offsetInCU: 0xA0C41, offset: 0xA0C41, size: 0x8, addend: 0x0, symName: __ZNSt3__13maxB7v160006IiNS_6__lessIiiEEEERKT_S5_S5_T0_, symObjAddr: 0x5A8FC, symBinAddr: 0x10005D9EC, symSize: 0x54 }
  - { offsetInCU: 0xA0C9F, offset: 0xA0C9F, size: 0x8, addend: 0x0, symName: __ZNSt3__119__debug_db_insert_cB7v160006INS_6vectorIPN5Catch10ISingletonENS_9allocatorIS4_EEEEEEvPT_, symObjAddr: 0x5AA60, symBinAddr: 0x10005DB50, symSize: 0x10 }
  - { offsetInCU: 0xA0CD2, offset: 0xA0CD2, size: 0x8, addend: 0x0, symName: __ZNSt3__1eqB7v160006IPPN5Catch10ISingletonEEEbRKNS_11__wrap_iterIT_EES9_, symObjAddr: 0x5AB38, symBinAddr: 0x10005DC28, symSize: 0x48 }
  - { offsetInCU: 0xA0D18, offset: 0xA0D18, size: 0x8, addend: 0x0, symName: __ZNSt3__112__to_addressB7v160006INS_10unique_ptrINS_19basic_ostringstreamIcNS_11char_traitsIcEENS_9allocatorIcEEEENS_14default_deleteIS7_EEEEEEPT_SC_, symObjAddr: 0x5BF50, symBinAddr: 0x10005F040, symSize: 0x14 }
  - { offsetInCU: 0xA0D4F, offset: 0xA0D4F, size: 0x8, addend: 0x0, symName: __ZNSt3__119__allocate_at_leastB7v160006INS_9allocatorINS_10unique_ptrINS_19basic_ostringstreamIcNS_11char_traitsIcEENS1_IcEEEENS_14default_deleteIS7_EEEEEEEENS_19__allocation_resultINS_16allocator_traitsIT_E7pointerEEERSE_m, symObjAddr: 0x5C784, symBinAddr: 0x10005F874, symSize: 0x40 }
  - { offsetInCU: 0xA0D94, offset: 0xA0D94, size: 0x8, addend: 0x0, symName: __ZNSt3__142__uninitialized_allocator_move_if_noexceptB7v160006INS_9allocatorINS_10unique_ptrINS_19basic_ostringstreamIcNS_11char_traitsIcEENS1_IcEEEENS_14default_deleteIS7_EEEEEENS_16reverse_iteratorIPSA_EESE_SE_EET2_RT_T0_T1_SF_, symObjAddr: 0x5CA0C, symBinAddr: 0x10005FAFC, symSize: 0x12C }
  - { offsetInCU: 0xA0E35, offset: 0xA0E35, size: 0x8, addend: 0x0, symName: __ZNSt3__14swapB7v160006IPNS_10unique_ptrINS_19basic_ostringstreamIcNS_11char_traitsIcEENS_9allocatorIcEEEENS_14default_deleteIS7_EEEEEENS_9enable_ifIXaasr21is_move_constructibleIT_EE5valuesr18is_move_assignableISD_EE5valueEvE4typeERSD_SG_, symObjAddr: 0x5CB84, symBinAddr: 0x10005FC74, symSize: 0x3C }
  - { offsetInCU: 0xA0E8A, offset: 0xA0E8A, size: 0x8, addend: 0x0, symName: __ZNSt3__125__debug_db_invalidate_allB7v160006INS_6vectorINS_10unique_ptrINS_19basic_ostringstreamIcNS_11char_traitsIcEENS_9allocatorIcEEEENS_14default_deleteIS8_EEEENS6_ISB_EEEEEEvPT_, symObjAddr: 0x5CC6C, symBinAddr: 0x10005FD5C, symSize: 0x10 }
  - { offsetInCU: 0xA0EBD, offset: 0xA0EBD, size: 0x8, addend: 0x0, symName: __ZNSt3__122__make_exception_guardB7v160006INS_29_AllocatorDestroyRangeReverseINS_9allocatorINS_10unique_ptrINS_19basic_ostringstreamIcNS_11char_traitsIcEENS2_IcEEEENS_14default_deleteIS8_EEEEEENS_16reverse_iteratorIPSB_EEEEEENS_28__exception_guard_exceptionsIT_EESI_, symObjAddr: 0x5CCC4, symBinAddr: 0x10005FDB4, symSize: 0x4C }
  - { offsetInCU: 0xA0EF5, offset: 0xA0EF5, size: 0x8, addend: 0x0, symName: __ZNSt3__1neB7v160006IPNS_10unique_ptrINS_19basic_ostringstreamIcNS_11char_traitsIcEENS_9allocatorIcEEEENS_14default_deleteIS7_EEEESB_EEbRKNS_16reverse_iteratorIT_EERKNSC_IT0_EE, symObjAddr: 0x5CD54, symBinAddr: 0x10005FE44, symSize: 0x48 }
  - { offsetInCU: 0xA0F44, offset: 0xA0F44, size: 0x8, addend: 0x0, symName: __ZNSt3__112__to_addressB7v160006INS_16reverse_iteratorIPNS_10unique_ptrINS_19basic_ostringstreamIcNS_11char_traitsIcEENS_9allocatorIcEEEENS_14default_deleteIS8_EEEEEEvEENS_5decayIDTclsr19__to_address_helperIT_EE6__callclsr3stdE7declvalIRKSF_EEEEE4typeESH_, symObjAddr: 0x5CD9C, symBinAddr: 0x10005FE8C, symSize: 0x24 }
  - { offsetInCU: 0xA0FA6, offset: 0xA0FA6, size: 0x8, addend: 0x0, symName: __ZNSt3__119__allocator_destroyB7v160006INS_9allocatorINS_10unique_ptrINS_19basic_ostringstreamIcNS_11char_traitsIcEENS1_IcEEEENS_14default_deleteIS7_EEEEEENS_16reverse_iteratorINSC_IPSA_EEEESF_EEvRT_T0_T1_, symObjAddr: 0x5D04C, symBinAddr: 0x10006013C, symSize: 0x70 }
  - { offsetInCU: 0xA100C, offset: 0xA100C, size: 0x8, addend: 0x0, symName: __ZNSt3__1neB7v160006INS_16reverse_iteratorIPNS_10unique_ptrINS_19basic_ostringstreamIcNS_11char_traitsIcEENS_9allocatorIcEEEENS_14default_deleteIS8_EEEEEESD_EEbRKNS1_IT_EERKNS1_IT0_EE, symObjAddr: 0x5D0F8, symBinAddr: 0x1000601E8, symSize: 0x60 }
  - { offsetInCU: 0xA105B, offset: 0xA105B, size: 0x8, addend: 0x0, symName: __ZNSt3__112__to_addressB7v160006INS_16reverse_iteratorINS1_IPNS_10unique_ptrINS_19basic_ostringstreamIcNS_11char_traitsIcEENS_9allocatorIcEEEENS_14default_deleteIS8_EEEEEEEEvEENS_5decayIDTclsr19__to_address_helperIT_EE6__callclsr3stdE7declvalIRKSG_EEEEE4typeESI_, symObjAddr: 0x5D184, symBinAddr: 0x100060274, symSize: 0x24 }
  - { offsetInCU: 0xA10BE, offset: 0xA10BE, size: 0x8, addend: 0x0, symName: __ZNSt3__13minB7v160006ImNS_6__lessImmEEEERKT_S5_S5_T0_, symObjAddr: 0x5D920, symBinAddr: 0x100060A10, symSize: 0x54 }
  - { offsetInCU: 0xA111C, offset: 0xA111C, size: 0x8, addend: 0x0, symName: __ZNSt3__1eqB7v160006IPKN5Catch8TestCaseEEEbRKNS_11__wrap_iterIT_EES9_, symObjAddr: 0x5DE2C, symBinAddr: 0x100060F1C, symSize: 0x48 }
  - { offsetInCU: 0xA1162, offset: 0xA1162, size: 0x8, addend: 0x0, symName: __ZNSt3__1eqB7v160006IPNS_4pairIyPKN5Catch8TestCaseEEEEEbRKNS_11__wrap_iterIT_EESC_, symObjAddr: 0x5DE8C, symBinAddr: 0x100060F7C, symSize: 0x48 }
  - { offsetInCU: 0xA11A8, offset: 0xA11A8, size: 0x8, addend: 0x0, symName: __ZNSt3__1eqB7v160006IPNS_10shared_ptrIN5Catch16TestCaseTracking8ITrackerEEEEEbRKNS_11__wrap_iterIT_EESB_, symObjAddr: 0x5DF60, symBinAddr: 0x100061050, symSize: 0x48 }
  - { offsetInCU: 0xA11EE, offset: 0xA11EE, size: 0x8, addend: 0x0, symName: __ZNSt3__1eqB7v160006IPKNS_10shared_ptrIN5Catch8TestSpec7PatternEEEEEbRKNS_11__wrap_iterIT_EESC_, symObjAddr: 0x5E02C, symBinAddr: 0x10006111C, symSize: 0x48 }
  - { offsetInCU: 0xA1234, offset: 0xA1234, size: 0x8, addend: 0x0, symName: __ZNSt3__119__debug_db_insert_cB7v160006INS_6vectorINS_10shared_ptrIN5Catch8TestSpec7PatternEEENS_9allocatorIS6_EEEEEEvPT_, symObjAddr: 0x5E178, symBinAddr: 0x100061268, symSize: 0x10 }
  - { offsetInCU: 0xA1267, offset: 0xA1267, size: 0x8, addend: 0x0, symName: __ZNSt3__122__make_exception_guardB7v160006INS_6vectorIN5Catch8TestSpec6FilterENS_9allocatorIS4_EEE16__destroy_vectorEEENS_28__exception_guard_exceptionsIT_EESA_, symObjAddr: 0x5E478, symBinAddr: 0x100061568, symSize: 0x40 }
  - { offsetInCU: 0xA129E, offset: 0xA129E, size: 0x8, addend: 0x0, symName: __ZNSt3__119__allocate_at_leastB7v160006INS_9allocatorIN5Catch8TestSpec6FilterEEEEENS_19__allocation_resultINS_16allocator_traitsIT_E7pointerEEERS8_m, symObjAddr: 0x5E7A8, symBinAddr: 0x100061898, symSize: 0x40 }
  - { offsetInCU: 0xA12E3, offset: 0xA12E3, size: 0x8, addend: 0x0, symName: __ZNSt3__130__uninitialized_allocator_copyB7v160006INS_9allocatorIN5Catch8TestSpec6FilterEEEPS4_S6_S6_EET2_RT_T0_T1_S7_, symObjAddr: 0x5E984, symBinAddr: 0x100061A74, symSize: 0xF4 }
  - { offsetInCU: 0xA1382, offset: 0xA1382, size: 0x8, addend: 0x0, symName: __ZNSt3__122__make_exception_guardB7v160006INS_29_AllocatorDestroyRangeReverseINS_9allocatorIN5Catch8TestSpec6FilterEEEPS5_EEEENS_28__exception_guard_exceptionsIT_EESA_, symObjAddr: 0x5EAF0, symBinAddr: 0x100061BE0, symSize: 0x4C }
  - { offsetInCU: 0xA13BA, offset: 0xA13BA, size: 0x8, addend: 0x0, symName: __ZNSt3__122__make_exception_guardB7v160006INS_6vectorINS_10shared_ptrIN5Catch8TestSpec7PatternEEENS_9allocatorIS6_EEE16__destroy_vectorEEENS_28__exception_guard_exceptionsIT_EESC_, symObjAddr: 0x5EEE8, symBinAddr: 0x100061FD8, symSize: 0x40 }
  - { offsetInCU: 0xA13F1, offset: 0xA13F1, size: 0x8, addend: 0x0, symName: __ZNSt3__119__allocate_at_leastB7v160006INS_9allocatorINS_10shared_ptrIN5Catch8TestSpec7PatternEEEEEEENS_19__allocation_resultINS_16allocator_traitsIT_E7pointerEEERSA_m, symObjAddr: 0x5F28C, symBinAddr: 0x10006237C, symSize: 0x40 }
  - { offsetInCU: 0xA1437, offset: 0xA1437, size: 0x8, addend: 0x0, symName: __ZNSt3__112__to_addressB7v160006INS_10shared_ptrIN5Catch8TestSpec7PatternEEEEEPT_S7_, symObjAddr: 0x5F550, symBinAddr: 0x100062640, symSize: 0x14 }
  - { offsetInCU: 0xA146D, offset: 0xA146D, size: 0x8, addend: 0x0, symName: __ZNSt3__130__uninitialized_allocator_copyB7v160006INS_9allocatorINS_10shared_ptrIN5Catch8TestSpec7PatternEEEEEPS6_S8_S8_EET2_RT_T0_T1_S9_, symObjAddr: 0x5F600, symBinAddr: 0x1000626F0, symSize: 0xF4 }
  - { offsetInCU: 0xA150C, offset: 0xA150C, size: 0x8, addend: 0x0, symName: __ZNSt3__122__make_exception_guardB7v160006INS_29_AllocatorDestroyRangeReverseINS_9allocatorINS_10shared_ptrIN5Catch8TestSpec7PatternEEEEEPS7_EEEENS_28__exception_guard_exceptionsIT_EESC_, symObjAddr: 0x5F764, symBinAddr: 0x100062854, symSize: 0x4C }
  - { offsetInCU: 0xA1543, offset: 0xA1543, size: 0x8, addend: 0x0, symName: __ZNSt3__119__allocator_destroyB7v160006INS_9allocatorINS_10shared_ptrIN5Catch8TestSpec7PatternEEEEENS_16reverse_iteratorIPS6_EESA_EEvRT_T0_T1_, symObjAddr: 0x5F9F4, symBinAddr: 0x100062AE4, symSize: 0x70 }
  - { offsetInCU: 0xA15A7, offset: 0xA15A7, size: 0x8, addend: 0x0, symName: __ZNSt3__1neB7v160006IPNS_10shared_ptrIN5Catch8TestSpec7PatternEEES6_EEbRKNS_16reverse_iteratorIT_EERKNS7_IT0_EE, symObjAddr: 0x5FA98, symBinAddr: 0x100062B88, symSize: 0x48 }
  - { offsetInCU: 0xA15F6, offset: 0xA15F6, size: 0x8, addend: 0x0, symName: __ZNSt3__112__to_addressB7v160006INS_16reverse_iteratorIPNS_10shared_ptrIN5Catch8TestSpec7PatternEEEEEvEENS_5decayIDTclsr19__to_address_helperIT_EE6__callclsr3stdE7declvalIRKSA_EEEEE4typeESC_, symObjAddr: 0x5FB0C, symBinAddr: 0x100062BFC, symSize: 0x24 }
  - { offsetInCU: 0xA1659, offset: 0xA1659, size: 0x8, addend: 0x0, symName: __ZNSt3__118__debug_db_erase_cB7v160006INS_6vectorINS_10shared_ptrIN5Catch8TestSpec7PatternEEENS_9allocatorIS6_EEEEEEvPT_, symObjAddr: 0x5FE00, symBinAddr: 0x100062EF0, symSize: 0x10 }
  - { offsetInCU: 0xA168B, offset: 0xA168B, size: 0x8, addend: 0x0, symName: __ZNSt3__119__allocator_destroyB7v160006INS_9allocatorIN5Catch8TestSpec6FilterEEENS_16reverse_iteratorIPS4_EES8_EEvRT_T0_T1_, symObjAddr: 0x5FFF0, symBinAddr: 0x1000630E0, symSize: 0x70 }
  - { offsetInCU: 0xA16EF, offset: 0xA16EF, size: 0x8, addend: 0x0, symName: __ZNSt3__1neB7v160006IPN5Catch8TestSpec6FilterES4_EEbRKNS_16reverse_iteratorIT_EERKNS5_IT0_EE, symObjAddr: 0x60094, symBinAddr: 0x100063184, symSize: 0x48 }
  - { offsetInCU: 0xA173E, offset: 0xA173E, size: 0x8, addend: 0x0, symName: __ZNSt3__112__to_addressB7v160006INS_16reverse_iteratorIPN5Catch8TestSpec6FilterEEEvEENS_5decayIDTclsr19__to_address_helperIT_EE6__callclsr3stdE7declvalIRKS8_EEEEE4typeESA_, symObjAddr: 0x600DC, symBinAddr: 0x1000631CC, symSize: 0x24 }
  - { offsetInCU: 0xA17A1, offset: 0xA17A1, size: 0x8, addend: 0x0, symName: __ZNSt3__115__debug_db_swapB7v160006INS_6vectorINS_10shared_ptrIN5Catch8TestSpec7PatternEEENS_9allocatorIS6_EEEEEEvPT_SB_, symObjAddr: 0x603EC, symBinAddr: 0x1000634DC, symSize: 0x14 }
  - { offsetInCU: 0xA17E3, offset: 0xA17E3, size: 0x8, addend: 0x0, symName: __ZNSt3__125__debug_db_invalidate_allB7v160006INS_6vectorINS_10shared_ptrIN5Catch8TestSpec7PatternEEENS_9allocatorIS6_EEEEEEvPT_, symObjAddr: 0x60508, symBinAddr: 0x1000635F8, symSize: 0x10 }
  - { offsetInCU: 0xA188B, offset: 0xA188B, size: 0x8, addend: 0x0, symName: __ZNSt3__1eqB7v160006IPKcEEbRKNS_11__wrap_iterIT_EES7_, symObjAddr: 0x606E8, symBinAddr: 0x1000637D8, symSize: 0x48 }
  - { offsetInCU: 0xA18D1, offset: 0xA18D1, size: 0x8, addend: 0x0, symName: __ZNSt3__1eqB7v160006IPKwEEbRKNS_11__wrap_iterIT_EES7_, symObjAddr: 0x60748, symBinAddr: 0x100063838, symSize: 0x48 }
  - { offsetInCU: 0xA1917, offset: 0xA1917, size: 0x8, addend: 0x0, symName: __ZNSt3__1lsB7v160006INS_11char_traitsIcEEEERNS_13basic_ostreamIcT_EES6_RKNS_8__iom_t4IcEE, symObjAddr: 0x607C0, symBinAddr: 0x1000638B0, symSize: 0x40 }
  - { offsetInCU: 0xA195C, offset: 0xA195C, size: 0x8, addend: 0x0, symName: __ZNSt3__19uppercaseB7v160006ERNS_8ios_baseE, symObjAddr: 0x60800, symBinAddr: 0x1000638F0, symSize: 0x2C }
  - { offsetInCU: 0xA198A, offset: 0xA198A, size: 0x8, addend: 0x0, symName: __ZNSt3__19use_facetB7v160006INS_5ctypeIcEEEERKT_RKNS_6localeE, symObjAddr: 0x60978, symBinAddr: 0x100063A68, symSize: 0x2C }
  - { offsetInCU: 0xA19C2, offset: 0xA19C2, size: 0x8, addend: 0x0, symName: __ZNSt3__1eqB7v160006IPKN5Catch11MessageInfoEPS2_EEbRKNS_11__wrap_iterIT_EERKNS6_IT0_EE, symObjAddr: 0x61178, symBinAddr: 0x100064268, symSize: 0x48 }
  - { offsetInCU: 0xA1A11, offset: 0xA1A11, size: 0x8, addend: 0x0, symName: __ZNSt3__18distanceB7v160006INS_11__wrap_iterIPKN5Catch11MessageInfoEEEEENS_15iterator_traitsIT_E15difference_typeES8_S8_, symObjAddr: 0x611EC, symBinAddr: 0x1000642DC, symSize: 0x3C }
  - { offsetInCU: 0xA1A57, offset: 0xA1A57, size: 0x8, addend: 0x0, symName: __ZNSt3__110__distanceB7v160006INS_11__wrap_iterIPKN5Catch11MessageInfoEEEEENS_15iterator_traitsIT_E15difference_typeES8_S8_NS_26random_access_iterator_tagE, symObjAddr: 0x61268, symBinAddr: 0x100064358, symSize: 0x30 }
  - { offsetInCU: 0xA1AA8, offset: 0xA1AA8, size: 0x8, addend: 0x0, symName: __ZNSt3__1miB7v160006IPKN5Catch11MessageInfoES4_EEDTmicldtfp_4baseEcldtfp0_4baseEERKNS_11__wrap_iterIT_EERKNS6_IT0_EE, symObjAddr: 0x61298, symBinAddr: 0x100064388, symSize: 0x48 }
  - { offsetInCU: 0xA1AF7, offset: 0xA1AF7, size: 0x8, addend: 0x0, symName: __ZNSt3__112__to_addressB7v160006IKN5Catch11MessageInfoEEEPT_S5_, symObjAddr: 0x612E0, symBinAddr: 0x1000643D0, symSize: 0x14 }
  - { offsetInCU: 0xA1B2E, offset: 0xA1B2E, size: 0x8, addend: 0x0, symName: __ZNSt3__1neB7v160006IPKN5Catch11MessageInfoEPS2_EEbRKNS_11__wrap_iterIT_EERKNS6_IT0_EE, symObjAddr: 0x612F4, symBinAddr: 0x1000643E4, symSize: 0x34 }
  - { offsetInCU: 0xA1B7D, offset: 0xA1B7D, size: 0x8, addend: 0x0, symName: __ZNSt3__118__debug_db_erase_cB7v160006INS_6vectorIN5Catch11SectionInfoENS_9allocatorIS3_EEEEEEvPT_, symObjAddr: 0x616E0, symBinAddr: 0x1000647D0, symSize: 0x10 }
  - { offsetInCU: 0xA1BB0, offset: 0xA1BB0, size: 0x8, addend: 0x0, symName: __ZNSt3__112__to_addressB7v160006IN5Catch11SectionInfoEEEPT_S4_, symObjAddr: 0x617FC, symBinAddr: 0x1000648EC, symSize: 0x14 }
  - { offsetInCU: 0xA1BE7, offset: 0xA1BE7, size: 0x8, addend: 0x0, symName: __ZNSt3__122__make_exception_guardB7v160006INS_6vectorIN5Catch12_GLOBAL__N_110ColumnInfoENS_9allocatorIS4_EEE16__destroy_vectorEEENS_28__exception_guard_exceptionsIT_EESA_, symObjAddr: 0x61F20, symBinAddr: 0x100065010, symSize: 0x40 }
  - { offsetInCU: 0xA1C1E, offset: 0xA1C1E, size: 0x8, addend: 0x0, symName: __ZNSt3__119__debug_db_insert_cB7v160006INS_6vectorIN5Catch12_GLOBAL__N_110ColumnInfoENS_9allocatorIS4_EEEEEEvPT_, symObjAddr: 0x61F94, symBinAddr: 0x100065084, symSize: 0x10 }
  - { offsetInCU: 0xA1C51, offset: 0xA1C51, size: 0x8, addend: 0x0, symName: __ZNSt3__119__allocate_at_leastB7v160006INS_9allocatorIN5Catch12_GLOBAL__N_110ColumnInfoEEEEENS_19__allocation_resultINS_16allocator_traitsIT_E7pointerEEERS8_m, symObjAddr: 0x62330, symBinAddr: 0x100065420, symSize: 0x40 }
  - { offsetInCU: 0xA1C97, offset: 0xA1C97, size: 0x8, addend: 0x0, symName: __ZNSt3__112__to_addressB7v160006IN5Catch12_GLOBAL__N_110ColumnInfoEEEPT_S5_, symObjAddr: 0x62654, symBinAddr: 0x100065744, symSize: 0x14 }
  - { offsetInCU: 0xA1CCD, offset: 0xA1CCD, size: 0x8, addend: 0x0, symName: __ZNSt3__130__uninitialized_allocator_copyB7v160006INS_9allocatorIN5Catch12_GLOBAL__N_110ColumnInfoEEEPKS4_S7_PS4_EET2_RT_T0_T1_S9_, symObjAddr: 0x62704, symBinAddr: 0x1000657F4, symSize: 0xF4 }
  - { offsetInCU: 0xA1D6C, offset: 0xA1D6C, size: 0x8, addend: 0x0, symName: __ZNSt3__122__make_exception_guardB7v160006INS_29_AllocatorDestroyRangeReverseINS_9allocatorIN5Catch12_GLOBAL__N_110ColumnInfoEEEPS5_EEEENS_28__exception_guard_exceptionsIT_EESA_, symObjAddr: 0x62868, symBinAddr: 0x100065958, symSize: 0x4C }
  - { offsetInCU: 0xA1DA3, offset: 0xA1DA3, size: 0x8, addend: 0x0, symName: __ZNSt3__119__allocator_destroyB7v160006INS_9allocatorIN5Catch12_GLOBAL__N_110ColumnInfoEEENS_16reverse_iteratorIPS4_EES8_EEvRT_T0_T1_, symObjAddr: 0x62B6C, symBinAddr: 0x100065C5C, symSize: 0x70 }
  - { offsetInCU: 0xA1E07, offset: 0xA1E07, size: 0x8, addend: 0x0, symName: __ZNSt3__1neB7v160006IPN5Catch12_GLOBAL__N_110ColumnInfoES4_EEbRKNS_16reverse_iteratorIT_EERKNS5_IT0_EE, symObjAddr: 0x62C10, symBinAddr: 0x100065D00, symSize: 0x48 }
  - { offsetInCU: 0xA1E56, offset: 0xA1E56, size: 0x8, addend: 0x0, symName: __ZNSt3__112__to_addressB7v160006INS_16reverse_iteratorIPN5Catch12_GLOBAL__N_110ColumnInfoEEEvEENS_5decayIDTclsr19__to_address_helperIT_EE6__callclsr3stdE7declvalIRKS8_EEEEE4typeESA_, symObjAddr: 0x62C84, symBinAddr: 0x100065D74, symSize: 0x24 }
  - { offsetInCU: 0xA1EB9, offset: 0xA1EB9, size: 0x8, addend: 0x0, symName: __ZNSt3__118__debug_db_erase_cB7v160006INS_6vectorIN5Catch12_GLOBAL__N_110ColumnInfoENS_9allocatorIS4_EEEEEEvPT_, symObjAddr: 0x62F78, symBinAddr: 0x100066068, symSize: 0x10 }
  - { offsetInCU: 0xA1EEC, offset: 0xA1EEC, size: 0x8, addend: 0x0, symName: __ZNSt3__115__debug_db_swapB7v160006INS_6vectorIN5Catch12_GLOBAL__N_110ColumnInfoENS_9allocatorIS4_EEEEEEvPT_S9_, symObjAddr: 0x632B4, symBinAddr: 0x1000663A4, symSize: 0x14 }
  - { offsetInCU: 0xA1F2E, offset: 0xA1F2E, size: 0x8, addend: 0x0, symName: __ZNSt3__1eqB7v160006IPN5Catch11SectionInfoEEEbRKNS_11__wrap_iterIT_EES8_, symObjAddr: 0x63E7C, symBinAddr: 0x100066F6C, symSize: 0x48 }
  - { offsetInCU: 0xA1F74, offset: 0xA1F74, size: 0x8, addend: 0x0, symName: __ZNSt3__1eqB7v160006IPKN5Catch13SummaryColumnEEEbRKNS_11__wrap_iterIT_EES9_, symObjAddr: 0x63F60, symBinAddr: 0x100067050, symSize: 0x48 }
  - { offsetInCU: 0xA1FBA, offset: 0xA1FBA, size: 0x8, addend: 0x0, symName: __ZNSt3__118__debug_db_erase_cB7v160006INS_6vectorINS_10shared_ptrIN5Catch22CumulativeReporterBaseINS3_13JunitReporterEE11SectionNodeEEENS_9allocatorIS8_EEEEEEvPT_, symObjAddr: 0x64390, symBinAddr: 0x100067480, symSize: 0x10 }
  - { offsetInCU: 0xA1FED, offset: 0xA1FED, size: 0x8, addend: 0x0, symName: __ZNSt3__112__to_addressB7v160006INS_10shared_ptrIN5Catch22CumulativeReporterBaseINS2_13JunitReporterEE11SectionNodeEEEEEPT_S9_, symObjAddr: 0x644AC, symBinAddr: 0x10006759C, symSize: 0x14 }
  - { offsetInCU: 0xA2024, offset: 0xA2024, size: 0x8, addend: 0x0, symName: __ZNSt3__118__debug_db_erase_cB7v160006INS_6vectorINS_10shared_ptrIN5Catch22CumulativeReporterBaseINS3_13JunitReporterEE4NodeINS3_12TestRunStatsENS7_INS3_14TestGroupStatsENS7_INS3_13TestCaseStatsENS6_11SectionNodeEEEEEEEEENS_9allocatorISF_EEEEEEvPT_, symObjAddr: 0x648B8, symBinAddr: 0x1000679A8, symSize: 0x10 }
  - { offsetInCU: 0xA2057, offset: 0xA2057, size: 0x8, addend: 0x0, symName: __ZNSt3__112__to_addressB7v160006INS_10shared_ptrIN5Catch22CumulativeReporterBaseINS2_13JunitReporterEE4NodeINS2_12TestRunStatsENS6_INS2_14TestGroupStatsENS6_INS2_13TestCaseStatsENS5_11SectionNodeEEEEEEEEEEEPT_SG_, symObjAddr: 0x649FC, symBinAddr: 0x100067AEC, symSize: 0x14 }
  - { offsetInCU: 0xA208E, offset: 0xA208E, size: 0x8, addend: 0x0, symName: __ZNSt3__118__debug_db_erase_cB7v160006INS_6vectorINS_10shared_ptrIN5Catch22CumulativeReporterBaseINS3_13JunitReporterEE4NodeINS3_14TestGroupStatsENS7_INS3_13TestCaseStatsENS6_11SectionNodeEEEEEEENS_9allocatorISD_EEEEEEvPT_, symObjAddr: 0x64E34, symBinAddr: 0x100067F24, symSize: 0x10 }
  - { offsetInCU: 0xA20C1, offset: 0xA20C1, size: 0x8, addend: 0x0, symName: __ZNSt3__112__to_addressB7v160006INS_10shared_ptrIN5Catch22CumulativeReporterBaseINS2_13JunitReporterEE4NodeINS2_14TestGroupStatsENS6_INS2_13TestCaseStatsENS5_11SectionNodeEEEEEEEEEPT_SE_, symObjAddr: 0x64F78, symBinAddr: 0x100068068, symSize: 0x14 }
  - { offsetInCU: 0xA20F8, offset: 0xA20F8, size: 0x8, addend: 0x0, symName: __ZNSt3__118__debug_db_erase_cB7v160006INS_6vectorINS_10shared_ptrIN5Catch22CumulativeReporterBaseINS3_13JunitReporterEE4NodeINS3_13TestCaseStatsENS6_11SectionNodeEEEEENS_9allocatorISB_EEEEEEvPT_, symObjAddr: 0x653B0, symBinAddr: 0x1000684A0, symSize: 0x10 }
  - { offsetInCU: 0xA212B, offset: 0xA212B, size: 0x8, addend: 0x0, symName: __ZNSt3__112__to_addressB7v160006INS_10shared_ptrIN5Catch22CumulativeReporterBaseINS2_13JunitReporterEE4NodeINS2_13TestCaseStatsENS5_11SectionNodeEEEEEEEPT_SC_, symObjAddr: 0x654F4, symBinAddr: 0x1000685E4, symSize: 0x14 }
  - { offsetInCU: 0xA2162, offset: 0xA2162, size: 0x8, addend: 0x0, symName: __ZNSt3__118__debug_db_erase_cB7v160006INS_6vectorINS1_INS_10shared_ptrIN5Catch22CumulativeReporterBaseINS3_13JunitReporterEE11SectionNodeEEENS_9allocatorIS8_EEEENS9_ISB_EEEEEEvPT_, symObjAddr: 0x65948, symBinAddr: 0x100068A38, symSize: 0x10 }
  - { offsetInCU: 0xA2195, offset: 0xA2195, size: 0x8, addend: 0x0, symName: __ZNSt3__112__to_addressB7v160006INS_6vectorINS_10shared_ptrIN5Catch22CumulativeReporterBaseINS3_13JunitReporterEE11SectionNodeEEENS_9allocatorIS8_EEEEEEPT_SD_, symObjAddr: 0x65A8C, symBinAddr: 0x100068B7C, symSize: 0x14 }
  - { offsetInCU: 0xA21CC, offset: 0xA21CC, size: 0x8, addend: 0x0, symName: __ZNSt3__118__debug_db_erase_cB7v160006INS_6vectorIN5Catch14AssertionStatsENS_9allocatorIS3_EEEEEEvPT_, symObjAddr: 0x65E64, symBinAddr: 0x100068F54, symSize: 0x10 }
  - { offsetInCU: 0xA21FF, offset: 0xA21FF, size: 0x8, addend: 0x0, symName: __ZNSt3__112__to_addressB7v160006IN5Catch14AssertionStatsEEEPT_S4_, symObjAddr: 0x65FA8, symBinAddr: 0x100069098, symSize: 0x14 }
  - { offsetInCU: 0xA2235, offset: 0xA2235, size: 0x8, addend: 0x0, symName: __ZNSt3__15fixedB7v160006ERNS_8ios_baseE, symObjAddr: 0x66180, symBinAddr: 0x100069270, symSize: 0x30 }
  - { offsetInCU: 0xA2264, offset: 0xA2264, size: 0x8, addend: 0x0, symName: __ZNSt3__112setprecisionB7v160006Ei, symObjAddr: 0x661E8, symBinAddr: 0x1000692D8, symSize: 0x2C }
  - { offsetInCU: 0xA2292, offset: 0xA2292, size: 0x8, addend: 0x0, symName: __ZNSt3__1lsB7v160006IcNS_11char_traitsIcEEEERNS_13basic_ostreamIT_T0_EES7_RKNS_8__iom_t5E, symObjAddr: 0x66214, symBinAddr: 0x100069304, symSize: 0x40 }
  - { offsetInCU: 0xA22E1, offset: 0xA22E1, size: 0x8, addend: 0x0, symName: __ZNSt3__1eqB7v160006IPKNS_10shared_ptrIN5Catch22CumulativeReporterBaseINS2_13JunitReporterEE4NodeINS2_13TestCaseStatsENS5_11SectionNodeEEEEEEEbRKNS_11__wrap_iterIT_EESH_, symObjAddr: 0x662D4, symBinAddr: 0x1000693C4, symSize: 0x48 }
  - { offsetInCU: 0xA2327, offset: 0xA2327, size: 0x8, addend: 0x0, symName: '__ZNSt3__17find_ifB7v160006INS_11__wrap_iterIPKNS_12basic_stringIcNS_11char_traitsIcEENS_9allocatorIcEEEEEEZN5Catch12_GLOBAL__N_111fileNameTagERKNS_6vectorIS7_NS5_IS7_EEEEE4$_22EET_SJ_SJ_T0_', symObjAddr: 0x66334, symBinAddr: 0x100069424, symSize: 0x74 }
  - { offsetInCU: 0xA2385, offset: 0xA2385, size: 0x8, addend: 0x0, symName: __ZNSt3__1eqB7v160006IPKNS_10shared_ptrIN5Catch22CumulativeReporterBaseINS2_13JunitReporterEE11SectionNodeEEEEEbRKNS_11__wrap_iterIT_EESE_, symObjAddr: 0x66404, symBinAddr: 0x1000694F4, symSize: 0x48 }
  - { offsetInCU: 0xA23CB, offset: 0xA23CB, size: 0x8, addend: 0x0, symName: __ZNSt3__1eqB7v160006IPKN5Catch14AssertionStatsEEEbRKNS_11__wrap_iterIT_EES9_, symObjAddr: 0x66464, symBinAddr: 0x100069554, symSize: 0x48 }
  - { offsetInCU: 0xA2411, offset: 0xA2411, size: 0x8, addend: 0x0, symName: __ZNSt3__1eqB7v160006IPKN5Catch11MessageInfoEEEbRKNS_11__wrap_iterIT_EES9_, symObjAddr: 0x664C4, symBinAddr: 0x1000695B4, symSize: 0x48 }
  - { offsetInCU: 0xA2457, offset: 0xA2457, size: 0x8, addend: 0x0, symName: __ZNSt3__1eqB7v160006IPNS_10unique_ptrIN5Catch18IStreamingReporterENS_14default_deleteIS3_EEEEEEbRKNS_11__wrap_iterIT_EESC_, symObjAddr: 0x66528, symBinAddr: 0x100069618, symSize: 0x48 }
  - { offsetInCU: 0xA249D, offset: 0xA249D, size: 0x8, addend: 0x0, symName: __ZNSt3__122__make_exception_guardB7v160006INS_6vectorIiNS_9allocatorIiEEE16__destroy_vectorEEENS_28__exception_guard_exceptionsIT_EES7_, symObjAddr: 0x6699C, symBinAddr: 0x100069A8C, symSize: 0x40 }
  - { offsetInCU: 0xA24D4, offset: 0xA24D4, size: 0x8, addend: 0x0, symName: __ZNSt3__119__debug_db_insert_cB7v160006INS_6vectorIiNS_9allocatorIiEEEEEEvPT_, symObjAddr: 0x66A10, symBinAddr: 0x100069B00, symSize: 0x10 }
  - { offsetInCU: 0xA2507, offset: 0xA2507, size: 0x8, addend: 0x0, symName: __ZNSt3__119__allocate_at_leastB7v160006INS_9allocatorIiEEEENS_19__allocation_resultINS_16allocator_traitsIT_E7pointerEEERS5_m, symObjAddr: 0x66DAC, symBinAddr: 0x100069E9C, symSize: 0x40 }
  - { offsetInCU: 0xA254D, offset: 0xA254D, size: 0x8, addend: 0x0, symName: __ZNSt3__112__to_addressB7v160006IiEEPT_S2_, symObjAddr: 0x670D0, symBinAddr: 0x10006A1C0, symSize: 0x14 }
  - { offsetInCU: 0xA2583, offset: 0xA2583, size: 0x8, addend: 0x0, symName: __ZNSt3__130__uninitialized_allocator_copyB7v160006INS_9allocatorIiEEiiLPv0EEEPT0_RT_PKS4_S9_S5_, symObjAddr: 0x67180, symBinAddr: 0x10006A270, symSize: 0x38 }
  - { offsetInCU: 0xA25FD, offset: 0xA25FD, size: 0x8, addend: 0x0, symName: __ZNSt3__14copyB7v160006IPKiPiEET0_T_S5_S4_, symObjAddr: 0x67228, symBinAddr: 0x10006A318, symSize: 0x40 }
  - { offsetInCU: 0xA265B, offset: 0xA265B, size: 0x8, addend: 0x0, symName: __ZNSt3__16__copyB7v160006INS_17_ClassicAlgPolicyEPKiS3_PiEENS_4pairIT0_T2_EES6_T1_S7_, symObjAddr: 0x67268, symBinAddr: 0x10006A358, symSize: 0x44 }
  - { offsetInCU: 0xA26CB, offset: 0xA26CB, size: 0x8, addend: 0x0, symName: __ZNSt3__123__dispatch_copy_or_moveB7v160006INS_17_ClassicAlgPolicyENS_11__copy_loopIS1_EENS_14__copy_trivialEPKiS6_PiEENS_4pairIT2_T4_EES9_T3_SA_, symObjAddr: 0x672AC, symBinAddr: 0x10006A39C, symSize: 0x44 }
  - { offsetInCU: 0xA274D, offset: 0xA274D, size: 0x8, addend: 0x0, symName: __ZNSt3__121__unwrap_and_dispatchB7v160006INS_10__overloadINS_11__copy_loopINS_17_ClassicAlgPolicyEEENS_14__copy_trivialEEEPKiS8_PiLi0EEENS_4pairIT0_T2_EESB_T1_SC_, symObjAddr: 0x672F0, symBinAddr: 0x10006A3E0, symSize: 0xB4 }
  - { offsetInCU: 0xA27E2, offset: 0xA27E2, size: 0x8, addend: 0x0, symName: __ZNSt3__114__unwrap_rangeB7v160006IPKiS2_EENS_4pairIT0_S4_EET_S6_, symObjAddr: 0x673A4, symBinAddr: 0x10006A494, symSize: 0x60 }
  - { offsetInCU: 0xA293D, offset: 0xA293D, size: 0x8, addend: 0x0, symName: __ZNSt3__113__unwrap_iterB7v160006IPiNS_18__unwrap_iter_implIS1_Lb1EEELi0EEEDTclsrT0_8__unwrapclsr3stdE7declvalIT_EEEES5_, symObjAddr: 0x6744C, symBinAddr: 0x10006A53C, symSize: 0x24 }
  - { offsetInCU: 0xA2983, offset: 0xA2983, size: 0x8, addend: 0x0, symName: __ZNSt3__19make_pairB7v160006IPKiPiEENS_4pairINS_18__unwrap_ref_decayIT_E4typeENS5_IT0_E4typeEEEOS6_OS9_, symObjAddr: 0x67470, symBinAddr: 0x10006A560, symSize: 0x38 }
  - { offsetInCU: 0xA29D3, offset: 0xA29D3, size: 0x8, addend: 0x0, symName: __ZNSt3__114__rewrap_rangeB7v160006IPKiS2_EET_S3_T0_, symObjAddr: 0x674A8, symBinAddr: 0x10006A598, symSize: 0x2C }
  - { offsetInCU: 0xA2A22, offset: 0xA2A22, size: 0x8, addend: 0x0, symName: __ZNSt3__113__rewrap_iterB7v160006IPiS1_NS_18__unwrap_iter_implIS1_Lb1EEEEET_S4_T0_, symObjAddr: 0x674D4, symBinAddr: 0x10006A5C4, symSize: 0x3C }
  - { offsetInCU: 0xA2A79, offset: 0xA2A79, size: 0x8, addend: 0x0, symName: __ZNSt3__19make_pairB7v160006IPKiS2_EENS_4pairINS_18__unwrap_ref_decayIT_E4typeENS4_IT0_E4typeEEEOS5_OS8_, symObjAddr: 0x67510, symBinAddr: 0x10006A600, symSize: 0x38 }
  - { offsetInCU: 0xA2AC9, offset: 0xA2AC9, size: 0x8, addend: 0x0, symName: __ZNSt3__113__unwrap_iterB7v160006IPKiNS_18__unwrap_iter_implIS2_Lb1EEELi0EEEDTclsrT0_8__unwrapclsr3stdE7declvalIT_EEEES6_, symObjAddr: 0x67548, symBinAddr: 0x10006A638, symSize: 0x24 }
  - { offsetInCU: 0xA2C43, offset: 0xA2C43, size: 0x8, addend: 0x0, symName: __ZNSt3__112__to_addressB7v160006IKiEEPT_S3_, symObjAddr: 0x67600, symBinAddr: 0x10006A6F0, symSize: 0x14 }
  - { offsetInCU: 0xA2C7A, offset: 0xA2C7A, size: 0x8, addend: 0x0, symName: __ZNSt3__119__copy_trivial_implB7v160006IKiiEENS_4pairIPT_PT0_EES4_S4_S6_, symObjAddr: 0x67614, symBinAddr: 0x10006A704, symSize: 0x84 }
  - { offsetInCU: 0xA2CE6, offset: 0xA2CE6, size: 0x8, addend: 0x0, symName: __ZNSt3__19make_pairB7v160006IRPKiPiEENS_4pairINS_18__unwrap_ref_decayIT_E4typeENS6_IT0_E4typeEEEOS7_OSA_, symObjAddr: 0x67698, symBinAddr: 0x10006A788, symSize: 0x38 }
  - { offsetInCU: 0xA2D8E, offset: 0xA2D8E, size: 0x8, addend: 0x0, symName: __ZNSt3__113__rewrap_iterB7v160006IPKiS2_NS_18__unwrap_iter_implIS2_Lb1EEEEET_S5_T0_, symObjAddr: 0x677D4, symBinAddr: 0x10006A8C4, symSize: 0x3C }
  - { offsetInCU: 0xA2DE6, offset: 0xA2DE6, size: 0x8, addend: 0x0, symName: __ZNSt3__118__debug_db_erase_cB7v160006INS_6vectorIiNS_9allocatorIiEEEEEEvPT_, symObjAddr: 0x67A74, symBinAddr: 0x10006AB64, symSize: 0x10 }
  - { offsetInCU: 0xA2E18, offset: 0xA2E18, size: 0x8, addend: 0x0, symName: __ZNSt3__130__uninitialized_allocator_copyB7v160006INS_9allocatorIiEEPiS3_S3_EET2_RT_T0_T1_S4_, symObjAddr: 0x683E4, symBinAddr: 0x10006B4D4, symSize: 0xF4 }
  - { offsetInCU: 0xA2EB7, offset: 0xA2EB7, size: 0x8, addend: 0x0, symName: __ZNSt3__122__make_exception_guardB7v160006INS_29_AllocatorDestroyRangeReverseINS_9allocatorIiEEPiEEEENS_28__exception_guard_exceptionsIT_EES7_, symObjAddr: 0x684D8, symBinAddr: 0x10006B5C8, symSize: 0x4C }
  - { offsetInCU: 0xA2EEE, offset: 0xA2EEE, size: 0x8, addend: 0x0, symName: __ZNSt3__119__allocator_destroyB7v160006INS_9allocatorIiEENS_16reverse_iteratorIPiEES5_EEvRT_T0_T1_, symObjAddr: 0x68760, symBinAddr: 0x10006B850, symSize: 0x70 }
  - { offsetInCU: 0xA2F52, offset: 0xA2F52, size: 0x8, addend: 0x0, symName: __ZNSt3__1neB7v160006IPiS1_EEbRKNS_16reverse_iteratorIT_EERKNS2_IT0_EE, symObjAddr: 0x68804, symBinAddr: 0x10006B8F4, symSize: 0x48 }
  - { offsetInCU: 0xA2FA1, offset: 0xA2FA1, size: 0x8, addend: 0x0, symName: __ZNSt3__112__to_addressB7v160006INS_16reverse_iteratorIPiEEvEENS_5decayIDTclsr19__to_address_helperIT_EE6__callclsr3stdE7declvalIRKS5_EEEEE4typeES7_, symObjAddr: 0x6884C, symBinAddr: 0x10006B93C, symSize: 0x24 }
  - { offsetInCU: 0xA3004, offset: 0xA3004, size: 0x8, addend: 0x0, symName: __ZNSt3__14swapB7v160006IPKN5Catch7IConfigEEENS_9enable_ifIXaasr21is_move_constructibleIT_EE5valuesr18is_move_assignableIS6_EE5valueEvE4typeERS6_S9_, symObjAddr: 0x68AC4, symBinAddr: 0x10006BBB4, symSize: 0x3C }
  - { offsetInCU: 0xA3059, offset: 0xA3059, size: 0x8, addend: 0x0, symName: __ZNSt3__118__debug_db_erase_cB7v160006INS_6vectorINS_10unique_ptrIN5Catch6Detail8EnumInfoENS_14default_deleteIS5_EEEENS_9allocatorIS8_EEEEEEvPT_, symObjAddr: 0x68D60, symBinAddr: 0x10006BE50, symSize: 0x10 }
  - { offsetInCU: 0xA308C, offset: 0xA308C, size: 0x8, addend: 0x0, symName: __ZNSt3__112__to_addressB7v160006INS_10unique_ptrIN5Catch6Detail8EnumInfoENS_14default_deleteIS4_EEEEEEPT_S9_, symObjAddr: 0x68EA4, symBinAddr: 0x10006BF94, symSize: 0x14 }
  - { offsetInCU: 0xA30C3, offset: 0xA30C3, size: 0x8, addend: 0x0, symName: __ZNSt3__17find_ifB7v160006INS_11__wrap_iterIPNS_10shared_ptrIN5Catch16TestCaseTracking8ITrackerEEEEEZZNS3_10Generators16GeneratorTracker5closeEvENKUlvE_clEvEUlS6_E_EET_SD_SD_T0_, symObjAddr: 0x694F0, symBinAddr: 0x10006C5E0, symSize: 0xB8 }
  - { offsetInCU: 0xA3121, offset: 0xA3121, size: 0x8, addend: 0x0, symName: __ZNSt3__125__debug_db_invalidate_allB7v160006INS_6vectorINS_10shared_ptrIN5Catch16TestCaseTracking8ITrackerEEENS_9allocatorIS6_EEEEEEvPT_, symObjAddr: 0x696F4, symBinAddr: 0x10006C7E4, symSize: 0x10 }
  - { offsetInCU: 0xA3154, offset: 0xA3154, size: 0x8, addend: 0x0, symName: __ZNSt3__118__debug_db_erase_cB7v160006INS_6vectorINS_10unique_ptrIN5Catch18IStreamingReporterENS_14default_deleteIS4_EEEENS_9allocatorIS7_EEEEEEvPT_, symObjAddr: 0x69E4C, symBinAddr: 0x10006CF3C, symSize: 0x10 }
  - { offsetInCU: 0xA3187, offset: 0xA3187, size: 0x8, addend: 0x0, symName: __ZNSt3__112__to_addressB7v160006INS_10unique_ptrIN5Catch18IStreamingReporterENS_14default_deleteIS3_EEEEEEPT_S8_, symObjAddr: 0x69F90, symBinAddr: 0x10006D080, symSize: 0x14 }
  - { offsetInCU: 0xA31BE, offset: 0xA31BE, size: 0x8, addend: 0x0, symName: __ZNSt3__115__debug_db_swapB7v160006INS_12basic_stringIcNS_11char_traitsIcEENS_9allocatorIcEEEEEEvPT_S8_, symObjAddr: 0x6A220, symBinAddr: 0x10006D310, symSize: 0x14 }
  - { offsetInCU: 0xA3200, offset: 0xA3200, size: 0x8, addend: 0x0, symName: __ZNSt3__118__constexpr_memcmpB7v160006IcEEiPKT_S3_m, symObjAddr: 0x6A3A8, symBinAddr: 0x10006D498, symSize: 0x34 }
  - { offsetInCU: 0xA3254, offset: 0xA3254, size: 0x8, addend: 0x0, symName: __ZNSt3__116__pad_and_outputB7v160006IcNS_11char_traitsIcEEEENS_19ostreambuf_iteratorIT_T0_EES6_PKS4_S8_S8_RNS_8ios_baseES4_, symObjAddr: 0x6A5D8, symBinAddr: 0x10006D6C8, symSize: 0x240 }
  - { offsetInCU: 0xA3324, offset: 0xA3324, size: 0x8, addend: 0x0, symName: __ZNSt3__125__debug_db_invalidate_allB7v160006INS_12basic_stringIcNS_11char_traitsIcEENS_9allocatorIcEEEEEEvPT_, symObjAddr: 0x6B160, symBinAddr: 0x10006E250, symSize: 0x10 }
  - { offsetInCU: 0xA3356, offset: 0xA3356, size: 0x8, addend: 0x0, symName: __ZNSt3__1neB7v160006ERKNS_21__tree_const_iteratorINS_12__value_typeINS_12basic_stringIcNS_11char_traitsIcEENS_9allocatorIcEEEENS_10shared_ptrIN5Catch16IReporterFactoryEEEEEPNS_11__tree_nodeISC_PvEElEESJ_, symObjAddr: 0x6B428, symBinAddr: 0x10006E518, symSize: 0x34 }
  - { offsetInCU: 0xA3393, offset: 0xA3393, size: 0x8, addend: 0x0, symName: __ZNSt3__1eqB7v160006ERKNS_21__tree_const_iteratorINS_12__value_typeINS_12basic_stringIcNS_11char_traitsIcEENS_9allocatorIcEEEENS_10shared_ptrIN5Catch16IReporterFactoryEEEEEPNS_11__tree_nodeISC_PvEElEESJ_, symObjAddr: 0x6B638, symBinAddr: 0x10006E728, symSize: 0x30 }
  - { offsetInCU: 0xA33D1, offset: 0xA33D1, size: 0x8, addend: 0x0, symName: __ZNSt3__122__make_exception_guardB7v160006INS_6vectorIN5Catch5clara6detail3OptENS_9allocatorIS5_EEE16__destroy_vectorEEENS_28__exception_guard_exceptionsIT_EESB_, symObjAddr: 0x6BBF4, symBinAddr: 0x10006ECE4, symSize: 0x40 }
  - { offsetInCU: 0xA3408, offset: 0xA3408, size: 0x8, addend: 0x0, symName: __ZNSt3__122__make_exception_guardB7v160006INS_6vectorIN5Catch5clara6detail3ArgENS_9allocatorIS5_EEE16__destroy_vectorEEENS_28__exception_guard_exceptionsIT_EESB_, symObjAddr: 0x6BEDC, symBinAddr: 0x10006EFCC, symSize: 0x40 }
  - { offsetInCU: 0xA343E, offset: 0xA343E, size: 0x8, addend: 0x0, symName: __ZNSt3__142__uninitialized_allocator_move_if_noexceptB7v160006INS_9allocatorIN5Catch5clara6detail3OptEEENS_16reverse_iteratorIPS5_EES9_S9_EET2_RT_T0_T1_SA_, symObjAddr: 0x6C698, symBinAddr: 0x10006F788, symSize: 0x11C }
  - { offsetInCU: 0xA34DF, offset: 0xA34DF, size: 0x8, addend: 0x0, symName: __ZNSt3__14swapB7v160006IPN5Catch5clara6detail3OptEEENS_9enable_ifIXaasr21is_move_constructibleIT_EE5valuesr18is_move_assignableIS7_EE5valueEvE4typeERS7_SA_, symObjAddr: 0x6C7B4, symBinAddr: 0x10006F8A4, symSize: 0x3C }
  - { offsetInCU: 0xA3534, offset: 0xA3534, size: 0x8, addend: 0x0, symName: __ZNSt3__122__make_exception_guardB7v160006INS_29_AllocatorDestroyRangeReverseINS_9allocatorIN5Catch5clara6detail3OptEEENS_16reverse_iteratorIPS6_EEEEEENS_28__exception_guard_exceptionsIT_EESD_, symObjAddr: 0x6C7F0, symBinAddr: 0x10006F8E0, symSize: 0x4C }
  - { offsetInCU: 0xA356B, offset: 0xA356B, size: 0x8, addend: 0x0, symName: __ZNSt3__119__allocator_destroyB7v160006INS_9allocatorIN5Catch5clara6detail3OptEEENS_16reverse_iteratorINS7_IPS5_EEEESA_EEvRT_T0_T1_, symObjAddr: 0x6CCB4, symBinAddr: 0x10006FDA4, symSize: 0x70 }
  - { offsetInCU: 0xA35D1, offset: 0xA35D1, size: 0x8, addend: 0x0, symName: __ZNSt3__1neB7v160006INS_16reverse_iteratorIPN5Catch5clara6detail3OptEEES7_EEbRKNS1_IT_EERKNS1_IT0_EE, symObjAddr: 0x6CD60, symBinAddr: 0x10006FE50, symSize: 0x60 }
  - { offsetInCU: 0xA3620, offset: 0xA3620, size: 0x8, addend: 0x0, symName: __ZNSt3__112__to_addressB7v160006INS_16reverse_iteratorINS1_IPN5Catch5clara6detail3OptEEEEEvEENS_5decayIDTclsr19__to_address_helperIT_EE6__callclsr3stdE7declvalIRKSA_EEEEE4typeESC_, symObjAddr: 0x6CDC0, symBinAddr: 0x10006FEB0, symSize: 0x24 }
  - { offsetInCU: 0xA3682, offset: 0xA3682, size: 0x8, addend: 0x0, symName: '__ZNSt3__111make_sharedB7v160006IN5Catch5clara6detail11BoundLambdaIZNS1_21makeCommandLineParserERNS1_10ConfigDataEE3$_1EEJRKS7_EvEENS_10shared_ptrIT_EEDpOT0_', symObjAddr: 0x6D3FC, symBinAddr: 0x1000704EC, symSize: 0x40 }
  - { offsetInCU: 0xA38B4, offset: 0xA38B4, size: 0x8, addend: 0x0, symName: '__ZNSt3__115allocate_sharedB7v160006IN5Catch5clara6detail11BoundLambdaIZNS1_21makeCommandLineParserERNS1_10ConfigDataEE3$_1EENS_9allocatorIS8_EEJRKS7_EvEENS_10shared_ptrIT_EERKT0_DpOT1_', symObjAddr: 0x6D49C, symBinAddr: 0x10007058C, symSize: 0x98 }
  - { offsetInCU: 0xA3C1A, offset: 0xA3C1A, size: 0x8, addend: 0x0, symName: '__ZNSt3__111make_sharedB7v160006IN5Catch5clara6detail15BoundFlagLambdaIZNS1_21makeCommandLineParserERNS1_10ConfigDataEE3$_2EEJRKS7_EvEENS_10shared_ptrIT_EEDpOT0_', symObjAddr: 0x6E57C, symBinAddr: 0x10007166C, symSize: 0x40 }
  - { offsetInCU: 0xA3E4C, offset: 0xA3E4C, size: 0x8, addend: 0x0, symName: '__ZNSt3__115allocate_sharedB7v160006IN5Catch5clara6detail15BoundFlagLambdaIZNS1_21makeCommandLineParserERNS1_10ConfigDataEE3$_2EENS_9allocatorIS8_EEJRKS7_EvEENS_10shared_ptrIT_EERKT0_DpOT1_', symObjAddr: 0x6E61C, symBinAddr: 0x10007170C, symSize: 0x98 }
  - { offsetInCU: 0xA41B2, offset: 0xA41B2, size: 0x8, addend: 0x0, symName: '__ZNSt3__111make_sharedB7v160006IN5Catch5clara6detail11BoundLambdaIZNS1_21makeCommandLineParserERNS1_10ConfigDataEE3$_3EEJRKS7_EvEENS_10shared_ptrIT_EEDpOT0_', symObjAddr: 0x6F288, symBinAddr: 0x100072378, symSize: 0x40 }
  - { offsetInCU: 0xA43E4, offset: 0xA43E4, size: 0x8, addend: 0x0, symName: '__ZNSt3__115allocate_sharedB7v160006IN5Catch5clara6detail11BoundLambdaIZNS1_21makeCommandLineParserERNS1_10ConfigDataEE3$_3EENS_9allocatorIS8_EEJRKS7_EvEENS_10shared_ptrIT_EERKT0_DpOT1_', symObjAddr: 0x6F328, symBinAddr: 0x100072418, symSize: 0x98 }
  - { offsetInCU: 0xA474A, offset: 0xA474A, size: 0x8, addend: 0x0, symName: '__ZNSt3__111make_sharedB7v160006IN5Catch5clara6detail11BoundLambdaIZNS1_21makeCommandLineParserERNS1_10ConfigDataEE3$_4EEJRKS7_EvEENS_10shared_ptrIT_EEDpOT0_', symObjAddr: 0x70190, symBinAddr: 0x100073280, symSize: 0x40 }
  - { offsetInCU: 0xA497C, offset: 0xA497C, size: 0x8, addend: 0x0, symName: '__ZNSt3__115allocate_sharedB7v160006IN5Catch5clara6detail11BoundLambdaIZNS1_21makeCommandLineParserERNS1_10ConfigDataEE3$_4EENS_9allocatorIS8_EEJRKS7_EvEENS_10shared_ptrIT_EERKT0_DpOT1_', symObjAddr: 0x70230, symBinAddr: 0x100073320, symSize: 0x98 }
  - { offsetInCU: 0xA4CE2, offset: 0xA4CE2, size: 0x8, addend: 0x0, symName: '__ZNSt3__111make_sharedB7v160006IN5Catch5clara6detail11BoundLambdaIZNS1_21makeCommandLineParserERNS1_10ConfigDataEE3$_5EEJRKS7_EvEENS_10shared_ptrIT_EEDpOT0_', symObjAddr: 0x710BC, symBinAddr: 0x1000741AC, symSize: 0x40 }
  - { offsetInCU: 0xA4F14, offset: 0xA4F14, size: 0x8, addend: 0x0, symName: '__ZNSt3__115allocate_sharedB7v160006IN5Catch5clara6detail11BoundLambdaIZNS1_21makeCommandLineParserERNS1_10ConfigDataEE3$_5EENS_9allocatorIS8_EEJRKS7_EvEENS_10shared_ptrIT_EERKT0_DpOT1_', symObjAddr: 0x7115C, symBinAddr: 0x10007424C, symSize: 0x98 }
  - { offsetInCU: 0xA5245, offset: 0xA5245, size: 0x8, addend: 0x0, symName: __ZNSt3__19transformB7v160006INS_11__wrap_iterIPcEES3_ZN5Catch5clara6detail11convertIntoERKNS_12basic_stringIcNS_11char_traitsIcEENS_9allocatorIcEEEERbEUlhE_EET0_T_SI_SH_T1_, symObjAddr: 0x71C70, symBinAddr: 0x100074D60, symSize: 0x8C }
  - { offsetInCU: 0xA52BB, offset: 0xA52BB, size: 0x8, addend: 0x0, symName: __ZNSt3__1neB7v160006IPcEEbRKNS_11__wrap_iterIT_EES6_, symObjAddr: 0x71CFC, symBinAddr: 0x100074DEC, symSize: 0x34 }
  - { offsetInCU: 0xA5301, offset: 0xA5301, size: 0x8, addend: 0x0, symName: __ZNSt3__1eqB7v160006IPcEEbRKNS_11__wrap_iterIT_EES6_, symObjAddr: 0x71D94, symBinAddr: 0x100074E84, symSize: 0x48 }
  - { offsetInCU: 0xA537C, offset: 0xA537C, size: 0x8, addend: 0x0, symName: __ZNSt3__111make_sharedB7v160006IN5Catch5clara6detail13BoundValueRefIdEEJRdEvEENS_10shared_ptrIT_EEDpOT0_, symObjAddr: 0x72258, symBinAddr: 0x100075348, symSize: 0x40 }
  - { offsetInCU: 0xA55AD, offset: 0xA55AD, size: 0x8, addend: 0x0, symName: __ZNSt3__115allocate_sharedB7v160006IN5Catch5clara6detail13BoundValueRefIdEENS_9allocatorIS5_EEJRdEvEENS_10shared_ptrIT_EERKT0_DpOT1_, symObjAddr: 0x722F8, symBinAddr: 0x1000753E8, symSize: 0x98 }
  - { offsetInCU: 0xA5913, offset: 0xA5913, size: 0x8, addend: 0x0, symName: '__ZNSt3__111make_sharedB7v160006IN5Catch5clara6detail11BoundLambdaIZNS1_21makeCommandLineParserERNS1_10ConfigDataEE3$_6EEJRKS7_EvEENS_10shared_ptrIT_EEDpOT0_', symObjAddr: 0x7304C, symBinAddr: 0x10007613C, symSize: 0x40 }
  - { offsetInCU: 0xA5B45, offset: 0xA5B45, size: 0x8, addend: 0x0, symName: '__ZNSt3__115allocate_sharedB7v160006IN5Catch5clara6detail11BoundLambdaIZNS1_21makeCommandLineParserERNS1_10ConfigDataEE3$_6EENS_9allocatorIS8_EEJRKS7_EvEENS_10shared_ptrIT_EERKT0_DpOT1_', symObjAddr: 0x730EC, symBinAddr: 0x1000761DC, symSize: 0x98 }
  - { offsetInCU: 0xA5FE0, offset: 0xA5FE0, size: 0x8, addend: 0x0, symName: __ZNSt3__17getlineB7v160006IcNS_11char_traitsIcEENS_9allocatorIcEEEERNS_13basic_istreamIT_T0_EES9_RNS_12basic_stringIS6_S7_T1_EE, symObjAddr: 0x73ED4, symBinAddr: 0x100076FC4, symSize: 0x5C }
  - { offsetInCU: 0xA6044, offset: 0xA6044, size: 0x8, addend: 0x0, symName: __ZNSt3__17getlineB7v160006IcNS_11char_traitsIcEENS_9allocatorIcEEEERNS_13basic_istreamIT_T0_EES9_RNS_12basic_stringIS6_S7_T1_EES6_, symObjAddr: 0x74178, symBinAddr: 0x100077268, symSize: 0x238 }
  - { offsetInCU: 0xA6103, offset: 0xA6103, size: 0x8, addend: 0x0, symName: __ZNSt3__1miB7v160006IPKNS_12basic_stringIcNS_11char_traitsIcEENS_9allocatorIcEEEES8_EEDTmicldtfp_4baseEcldtfp0_4baseEERKNS_11__wrap_iterIT_EERKNSA_IT0_EE, symObjAddr: 0x746C8, symBinAddr: 0x1000777B8, symSize: 0x48 }
  - { offsetInCU: 0xA6152, offset: 0xA6152, size: 0x8, addend: 0x0, symName: __ZNSt3__14moveB7v160006IPNS_12basic_stringIcNS_11char_traitsIcEENS_9allocatorIcEEEES7_EET0_T_S9_S8_, symObjAddr: 0x7473C, symBinAddr: 0x10007782C, symSize: 0x40 }
  - { offsetInCU: 0xA61B0, offset: 0xA61B0, size: 0x8, addend: 0x0, symName: __ZNSt3__16__moveB7v160006INS_17_ClassicAlgPolicyEPNS_12basic_stringIcNS_11char_traitsIcEENS_9allocatorIcEEEES8_S8_EENS_4pairIT0_T2_EESA_T1_SB_, symObjAddr: 0x7477C, symBinAddr: 0x10007786C, symSize: 0x44 }
  - { offsetInCU: 0xA6220, offset: 0xA6220, size: 0x8, addend: 0x0, symName: __ZNSt3__123__dispatch_copy_or_moveB7v160006INS_17_ClassicAlgPolicyENS_11__move_loopIS1_EENS_14__move_trivialEPNS_12basic_stringIcNS_11char_traitsIcEENS_9allocatorIcEEEESB_SB_EENS_4pairIT2_T4_EESD_T3_SE_, symObjAddr: 0x747C0, symBinAddr: 0x1000778B0, symSize: 0x44 }
  - { offsetInCU: 0xA62A2, offset: 0xA62A2, size: 0x8, addend: 0x0, symName: __ZNSt3__121__unwrap_and_dispatchB7v160006INS_10__overloadINS_11__move_loopINS_17_ClassicAlgPolicyEEENS_14__move_trivialEEEPNS_12basic_stringIcNS_11char_traitsIcEENS_9allocatorIcEEEESD_SD_Li0EEENS_4pairIT0_T2_EESF_T1_SG_, symObjAddr: 0x74804, symBinAddr: 0x1000778F4, symSize: 0xB4 }
  - { offsetInCU: 0xA6393, offset: 0xA6393, size: 0x8, addend: 0x0, symName: '__ZNSt3__111make_sharedB7v160006IN5Catch5clara6detail11BoundLambdaIZNS1_21makeCommandLineParserERNS1_10ConfigDataEE3$_7EEJRKS7_EvEENS_10shared_ptrIT_EEDpOT0_', symObjAddr: 0x74FF0, symBinAddr: 0x1000780E0, symSize: 0x40 }
  - { offsetInCU: 0xA65C5, offset: 0xA65C5, size: 0x8, addend: 0x0, symName: '__ZNSt3__115allocate_sharedB7v160006IN5Catch5clara6detail11BoundLambdaIZNS1_21makeCommandLineParserERNS1_10ConfigDataEE3$_7EENS_9allocatorIS8_EEJRKS7_EvEENS_10shared_ptrIT_EERKT0_DpOT1_', symObjAddr: 0x75090, symBinAddr: 0x100078180, symSize: 0x98 }
  - { offsetInCU: 0xA692B, offset: 0xA692B, size: 0x8, addend: 0x0, symName: '__ZNSt3__111make_sharedB7v160006IN5Catch5clara6detail11BoundLambdaIZNS1_21makeCommandLineParserERNS1_10ConfigDataEE3$_8EEJRKS7_EvEENS_10shared_ptrIT_EEDpOT0_', symObjAddr: 0x75F2C, symBinAddr: 0x10007901C, symSize: 0x40 }
  - { offsetInCU: 0xA6B5D, offset: 0xA6B5D, size: 0x8, addend: 0x0, symName: '__ZNSt3__115allocate_sharedB7v160006IN5Catch5clara6detail11BoundLambdaIZNS1_21makeCommandLineParserERNS1_10ConfigDataEE3$_8EENS_9allocatorIS8_EEJRKS7_EvEENS_10shared_ptrIT_EERKT0_DpOT1_', symObjAddr: 0x75FCC, symBinAddr: 0x1000790BC, symSize: 0x98 }
  - { offsetInCU: 0xA6EC3, offset: 0xA6EC3, size: 0x8, addend: 0x0, symName: '__ZNSt3__111make_sharedB7v160006IN5Catch5clara6detail11BoundLambdaIZNS1_21makeCommandLineParserERNS1_10ConfigDataEE3$_9EEJRKS7_EvEENS_10shared_ptrIT_EEDpOT0_', symObjAddr: 0x76EFC, symBinAddr: 0x100079FEC, symSize: 0x40 }
  - { offsetInCU: 0xA70F5, offset: 0xA70F5, size: 0x8, addend: 0x0, symName: '__ZNSt3__115allocate_sharedB7v160006IN5Catch5clara6detail11BoundLambdaIZNS1_21makeCommandLineParserERNS1_10ConfigDataEE3$_9EENS_9allocatorIS8_EEJRKS7_EvEENS_10shared_ptrIT_EERKT0_DpOT1_', symObjAddr: 0x76F9C, symBinAddr: 0x10007A08C, symSize: 0x98 }
  - { offsetInCU: 0xA745B, offset: 0xA745B, size: 0x8, addend: 0x0, symName: '__ZNSt3__111make_sharedB7v160006IN5Catch5clara6detail11BoundLambdaIZNS1_21makeCommandLineParserERNS1_10ConfigDataEE4$_10EEJRKS7_EvEENS_10shared_ptrIT_EEDpOT0_', symObjAddr: 0x77E88, symBinAddr: 0x10007AF78, symSize: 0x40 }
  - { offsetInCU: 0xA768D, offset: 0xA768D, size: 0x8, addend: 0x0, symName: '__ZNSt3__115allocate_sharedB7v160006IN5Catch5clara6detail11BoundLambdaIZNS1_21makeCommandLineParserERNS1_10ConfigDataEE4$_10EENS_9allocatorIS8_EEJRKS7_EvEENS_10shared_ptrIT_EERKT0_DpOT1_', symObjAddr: 0x77F28, symBinAddr: 0x10007B018, symSize: 0x98 }
  - { offsetInCU: 0xA79F3, offset: 0xA79F3, size: 0x8, addend: 0x0, symName: '__ZNSt3__111make_sharedB7v160006IN5Catch5clara6detail11BoundLambdaIZNS1_21makeCommandLineParserERNS1_10ConfigDataEE4$_11EEJRKS7_EvEENS_10shared_ptrIT_EEDpOT0_', symObjAddr: 0x78DC4, symBinAddr: 0x10007BEB4, symSize: 0x40 }
  - { offsetInCU: 0xA7C25, offset: 0xA7C25, size: 0x8, addend: 0x0, symName: '__ZNSt3__115allocate_sharedB7v160006IN5Catch5clara6detail11BoundLambdaIZNS1_21makeCommandLineParserERNS1_10ConfigDataEE4$_11EENS_9allocatorIS8_EEJRKS7_EvEENS_10shared_ptrIT_EERKT0_DpOT1_', symObjAddr: 0x78E64, symBinAddr: 0x10007BF54, symSize: 0x98 }
  - { offsetInCU: 0xA7F8B, offset: 0xA7F8B, size: 0x8, addend: 0x0, symName: __ZNSt3__111make_sharedB7v160006IN5Catch5clara6detail13BoundValueRefIjEEJRjEvEENS_10shared_ptrIT_EEDpOT0_, symObjAddr: 0x79D30, symBinAddr: 0x10007CE20, symSize: 0x40 }
  - { offsetInCU: 0xA81BC, offset: 0xA81BC, size: 0x8, addend: 0x0, symName: __ZNSt3__115allocate_sharedB7v160006IN5Catch5clara6detail13BoundValueRefIjEENS_9allocatorIS5_EEJRjEvEENS_10shared_ptrIT_EERKT0_DpOT1_, symObjAddr: 0x79DD0, symBinAddr: 0x10007CEC0, symSize: 0x98 }
  - { offsetInCU: 0xA8522, offset: 0xA8522, size: 0x8, addend: 0x0, symName: __ZNSt3__111make_sharedB7v160006IN5Catch5clara6detail13BoundValueRefIxEEJRxEvEENS_10shared_ptrIT_EEDpOT0_, symObjAddr: 0x7A9C0, symBinAddr: 0x10007DAB0, symSize: 0x40 }
  - { offsetInCU: 0xA8753, offset: 0xA8753, size: 0x8, addend: 0x0, symName: __ZNSt3__115allocate_sharedB7v160006IN5Catch5clara6detail13BoundValueRefIxEENS_9allocatorIS5_EEJRxEvEENS_10shared_ptrIT_EERKT0_DpOT1_, symObjAddr: 0x7AA60, symBinAddr: 0x10007DB50, symSize: 0x98 }
  - { offsetInCU: 0xA8AB9, offset: 0xA8AB9, size: 0x8, addend: 0x0, symName: __ZNSt3__142__uninitialized_allocator_move_if_noexceptB7v160006INS_9allocatorIN5Catch5clara6detail3ArgEEENS_16reverse_iteratorIPS5_EES9_S9_EET2_RT_T0_T1_SA_, symObjAddr: 0x7BCA0, symBinAddr: 0x10007ED90, symSize: 0x11C }
  - { offsetInCU: 0xA8B5A, offset: 0xA8B5A, size: 0x8, addend: 0x0, symName: __ZNSt3__14swapB7v160006IPN5Catch5clara6detail3ArgEEENS_9enable_ifIXaasr21is_move_constructibleIT_EE5valuesr18is_move_assignableIS7_EE5valueEvE4typeERS7_SA_, symObjAddr: 0x7BDBC, symBinAddr: 0x10007EEAC, symSize: 0x3C }
  - { offsetInCU: 0xA8BAF, offset: 0xA8BAF, size: 0x8, addend: 0x0, symName: __ZNSt3__122__make_exception_guardB7v160006INS_29_AllocatorDestroyRangeReverseINS_9allocatorIN5Catch5clara6detail3ArgEEENS_16reverse_iteratorIPS6_EEEEEENS_28__exception_guard_exceptionsIT_EESD_, symObjAddr: 0x7BDF8, symBinAddr: 0x10007EEE8, symSize: 0x4C }
  - { offsetInCU: 0xA8BE6, offset: 0xA8BE6, size: 0x8, addend: 0x0, symName: __ZNSt3__119__allocator_destroyB7v160006INS_9allocatorIN5Catch5clara6detail3ArgEEENS_16reverse_iteratorINS7_IPS5_EEEESA_EEvRT_T0_T1_, symObjAddr: 0x7C234, symBinAddr: 0x10007F324, symSize: 0x70 }
  - { offsetInCU: 0xA8C4C, offset: 0xA8C4C, size: 0x8, addend: 0x0, symName: __ZNSt3__1neB7v160006INS_16reverse_iteratorIPN5Catch5clara6detail3ArgEEES7_EEbRKNS1_IT_EERKNS1_IT0_EE, symObjAddr: 0x7C2E0, symBinAddr: 0x10007F3D0, symSize: 0x60 }
  - { offsetInCU: 0xA8C9B, offset: 0xA8C9B, size: 0x8, addend: 0x0, symName: __ZNSt3__112__to_addressB7v160006INS_16reverse_iteratorINS1_IPN5Catch5clara6detail3ArgEEEEEvEENS_5decayIDTclsr19__to_address_helperIT_EE6__callclsr3stdE7declvalIRKSA_EEEEE4typeESC_, symObjAddr: 0x7C340, symBinAddr: 0x10007F430, symSize: 0x24 }
  - { offsetInCU: 0xA8CFE, offset: 0xA8CFE, size: 0x8, addend: 0x0, symName: __ZNSt3__118__debug_db_erase_cB7v160006INS_6vectorIN5Catch9StringRefENS_9allocatorIS3_EEEEEEvPT_, symObjAddr: 0x7CE6C, symBinAddr: 0x10007FF5C, symSize: 0x10 }
  - { offsetInCU: 0xA8D31, offset: 0xA8D31, size: 0x8, addend: 0x0, symName: __ZNSt3__112__to_addressB7v160006IN5Catch9StringRefEEEPT_S4_, symObjAddr: 0x7CF88, symBinAddr: 0x100080078, symSize: 0x14 }
  - { offsetInCU: 0xA8D68, offset: 0xA8D68, size: 0x8, addend: 0x0, symName: __ZNSt3__119__debug_db_insert_cB7v160006INS_6vectorIN5Catch9StringRefENS_9allocatorIS3_EEEEEEvPT_, symObjAddr: 0x7D1D4, symBinAddr: 0x1000802C4, symSize: 0x10 }
  - { offsetInCU: 0xA8D9B, offset: 0xA8D9B, size: 0x8, addend: 0x0, symName: __ZNSt3__119__allocate_at_leastB7v160006INS_9allocatorIN5Catch9StringRefEEEEENS_19__allocation_resultINS_16allocator_traitsIT_E7pointerEEERS7_m, symObjAddr: 0x7D658, symBinAddr: 0x100080748, symSize: 0x40 }
  - { offsetInCU: 0xA8DE0, offset: 0xA8DE0, size: 0x8, addend: 0x0, symName: __ZNSt3__142__uninitialized_allocator_move_if_noexceptB7v160006INS_9allocatorIN5Catch9StringRefEEENS_16reverse_iteratorIPS3_EES7_S3_vEET1_RT_T0_SB_S8_, symObjAddr: 0x7D820, symBinAddr: 0x100080910, symSize: 0x78 }
  - { offsetInCU: 0xA8E5E, offset: 0xA8E5E, size: 0x8, addend: 0x0, symName: __ZNSt3__14swapB7v160006IPN5Catch9StringRefEEENS_9enable_ifIXaasr21is_move_constructibleIT_EE5valuesr18is_move_assignableIS5_EE5valueEvE4typeERS5_S8_, symObjAddr: 0x7D8E4, symBinAddr: 0x1000809D4, symSize: 0x3C }
  - { offsetInCU: 0xA8EB3, offset: 0xA8EB3, size: 0x8, addend: 0x0, symName: __ZNSt3__125__debug_db_invalidate_allB7v160006INS_6vectorIN5Catch9StringRefENS_9allocatorIS3_EEEEEEvPT_, symObjAddr: 0x7D9F4, symBinAddr: 0x100080AE4, symSize: 0x10 }
  - { offsetInCU: 0xA8EE6, offset: 0xA8EE6, size: 0x8, addend: 0x0, symName: __ZNSt3__14moveB7v160006INS_16reverse_iteratorIPN5Catch9StringRefEEES5_EET0_T_S7_S6_, symObjAddr: 0x7DA04, symBinAddr: 0x100080AF4, symSize: 0x78 }
  - { offsetInCU: 0xA8F44, offset: 0xA8F44, size: 0x8, addend: 0x0, symName: __ZNSt3__16__moveB7v160006INS_17_ClassicAlgPolicyENS_16reverse_iteratorIPN5Catch9StringRefEEES6_S6_EENS_4pairIT0_T2_EES8_T1_S9_, symObjAddr: 0x7DA7C, symBinAddr: 0x100080B6C, symSize: 0x64 }
  - { offsetInCU: 0xA8FB4, offset: 0xA8FB4, size: 0x8, addend: 0x0, symName: __ZNSt3__123__dispatch_copy_or_moveB7v160006INS_17_ClassicAlgPolicyENS_11__move_loopIS1_EENS_14__move_trivialENS_16reverse_iteratorIPN5Catch9StringRefEEES9_S9_EENS_4pairIT2_T4_EESB_T3_SC_, symObjAddr: 0x7DAE0, symBinAddr: 0x100080BD0, symSize: 0x64 }
  - { offsetInCU: 0xA9036, offset: 0xA9036, size: 0x8, addend: 0x0, symName: __ZNSt3__121__unwrap_and_dispatchB7v160006INS_10__overloadINS_11__move_loopINS_17_ClassicAlgPolicyEEENS_14__move_trivialEEENS_16reverse_iteratorIPN5Catch9StringRefEEESB_SB_Li0EEENS_4pairIT0_T2_EESD_T1_SE_, symObjAddr: 0x7DB44, symBinAddr: 0x100080C34, symSize: 0x12C }
  - { offsetInCU: 0xA90CD, offset: 0xA90CD, size: 0x8, addend: 0x0, symName: __ZNSt3__114__unwrap_rangeB7v160006INS_16reverse_iteratorIPN5Catch9StringRefEEES5_EENS_4pairIT0_S7_EET_S9_, symObjAddr: 0x7DC70, symBinAddr: 0x100080D60, symSize: 0x84 }
  - { offsetInCU: 0xA91F7, offset: 0xA91F7, size: 0x8, addend: 0x0, symName: __ZNSt3__113__unwrap_iterB7v160006INS_16reverse_iteratorIPN5Catch9StringRefEEENS_18__unwrap_iter_implIS5_Lb0EEELi0EEEDTclsrT0_8__unwrapclsr3stdE7declvalIT_EEEES9_, symObjAddr: 0x7DD94, symBinAddr: 0x100080E84, symSize: 0x44 }
  - { offsetInCU: 0xA923D, offset: 0xA923D, size: 0x8, addend: 0x0, symName: __ZNSt3__19make_pairB7v160006INS_16reverse_iteratorIPN5Catch9StringRefEEES5_EENS_4pairINS_18__unwrap_ref_decayIT_E4typeENS7_IT0_E4typeEEEOS8_OSB_, symObjAddr: 0x7DDD8, symBinAddr: 0x100080EC8, symSize: 0x38 }
  - { offsetInCU: 0xA928D, offset: 0xA928D, size: 0x8, addend: 0x0, symName: __ZNSt3__114__rewrap_rangeB7v160006INS_16reverse_iteratorIPN5Catch9StringRefEEES5_EET_S6_T0_, symObjAddr: 0x7DE10, symBinAddr: 0x100080F00, symSize: 0x5C }
  - { offsetInCU: 0xA92DC, offset: 0xA92DC, size: 0x8, addend: 0x0, symName: __ZNSt3__113__rewrap_iterB7v160006INS_16reverse_iteratorIPN5Catch9StringRefEEES5_NS_18__unwrap_iter_implIS5_Lb0EEEEET_S8_T0_, symObjAddr: 0x7DE6C, symBinAddr: 0x100080F5C, symSize: 0x74 }
  - { offsetInCU: 0xA9334, offset: 0xA9334, size: 0x8, addend: 0x0, symName: __ZNSt3__1neB7v160006IPN5Catch9StringRefES3_EEbRKNS_16reverse_iteratorIT_EERKNS4_IT0_EE, symObjAddr: 0x7DEE0, symBinAddr: 0x100080FD0, symSize: 0x48 }
  - { offsetInCU: 0xA93F6, offset: 0xA93F6, size: 0x8, addend: 0x0, symName: __ZNSt3__118__debug_db_erase_cB7v160006INS_6vectorINS_4pairIiN5Catch9StringRefEEENS_9allocatorIS5_EEEEEEvPT_, symObjAddr: 0x7E874, symBinAddr: 0x100081964, symSize: 0x10 }
  - { offsetInCU: 0xA9429, offset: 0xA9429, size: 0x8, addend: 0x0, symName: __ZNSt3__112__to_addressB7v160006INS_4pairIiN5Catch9StringRefEEEEEPT_S6_, symObjAddr: 0x7E9B8, symBinAddr: 0x100081AA8, symSize: 0x14 }
  - { offsetInCU: 0xA9460, offset: 0xA9460, size: 0x8, addend: 0x0, symName: __ZNSt3__119__allocate_at_leastB7v160006INS_9allocatorINS_4pairIiN5Catch9StringRefEEEEEEENS_19__allocation_resultINS_16allocator_traitsIT_E7pointerEEERS9_m, symObjAddr: 0x7F258, symBinAddr: 0x100082348, symSize: 0x40 }
  - { offsetInCU: 0xA94A5, offset: 0xA94A5, size: 0x8, addend: 0x0, symName: __ZNSt3__142__uninitialized_allocator_move_if_noexceptB7v160006INS_9allocatorINS_4pairIiN5Catch9StringRefEEEEENS_16reverse_iteratorIPS5_EES9_S9_EET2_RT_T0_T1_SA_, symObjAddr: 0x7F424, symBinAddr: 0x100082514, symSize: 0x12C }
  - { offsetInCU: 0xA9546, offset: 0xA9546, size: 0x8, addend: 0x0, symName: __ZNSt3__14swapB7v160006IPNS_4pairIiN5Catch9StringRefEEEEENS_9enable_ifIXaasr21is_move_constructibleIT_EE5valuesr18is_move_assignableIS7_EE5valueEvE4typeERS7_SA_, symObjAddr: 0x7F59C, symBinAddr: 0x10008268C, symSize: 0x3C }
  - { offsetInCU: 0xA959B, offset: 0xA959B, size: 0x8, addend: 0x0, symName: __ZNSt3__125__debug_db_invalidate_allB7v160006INS_6vectorINS_4pairIiN5Catch9StringRefEEENS_9allocatorIS5_EEEEEEvPT_, symObjAddr: 0x7F6C8, symBinAddr: 0x1000827B8, symSize: 0x10 }
  - { offsetInCU: 0xA95CE, offset: 0xA95CE, size: 0x8, addend: 0x0, symName: __ZNSt3__122__make_exception_guardB7v160006INS_29_AllocatorDestroyRangeReverseINS_9allocatorINS_4pairIiN5Catch9StringRefEEEEENS_16reverse_iteratorIPS6_EEEEEENS_28__exception_guard_exceptionsIT_EESD_, symObjAddr: 0x7F6D8, symBinAddr: 0x1000827C8, symSize: 0x4C }
  - { offsetInCU: 0xA9606, offset: 0xA9606, size: 0x8, addend: 0x0, symName: __ZNSt3__1neB7v160006IPNS_4pairIiN5Catch9StringRefEEES5_EEbRKNS_16reverse_iteratorIT_EERKNS6_IT0_EE, symObjAddr: 0x7F768, symBinAddr: 0x100082858, symSize: 0x48 }
  - { offsetInCU: 0xA9655, offset: 0xA9655, size: 0x8, addend: 0x0, symName: __ZNSt3__112__to_addressB7v160006INS_16reverse_iteratorIPNS_4pairIiN5Catch9StringRefEEEEEvEENS_5decayIDTclsr19__to_address_helperIT_EE6__callclsr3stdE7declvalIRKS9_EEEEE4typeESB_, symObjAddr: 0x7F7E4, symBinAddr: 0x1000828D4, symSize: 0x24 }
  - { offsetInCU: 0xA96B7, offset: 0xA96B7, size: 0x8, addend: 0x0, symName: __ZNSt3__119__allocator_destroyB7v160006INS_9allocatorINS_4pairIiN5Catch9StringRefEEEEENS_16reverse_iteratorINS7_IPS5_EEEESA_EEvRT_T0_T1_, symObjAddr: 0x7FAC4, symBinAddr: 0x100082BB4, symSize: 0x70 }
  - { offsetInCU: 0xA971D, offset: 0xA971D, size: 0x8, addend: 0x0, symName: __ZNSt3__1neB7v160006INS_16reverse_iteratorIPNS_4pairIiN5Catch9StringRefEEEEES7_EEbRKNS1_IT_EERKNS1_IT0_EE, symObjAddr: 0x7FB70, symBinAddr: 0x100082C60, symSize: 0x60 }
  - { offsetInCU: 0xA976C, offset: 0xA976C, size: 0x8, addend: 0x0, symName: __ZNSt3__112__to_addressB7v160006INS_16reverse_iteratorINS1_IPNS_4pairIiN5Catch9StringRefEEEEEEEvEENS_5decayIDTclsr19__to_address_helperIT_EE6__callclsr3stdE7declvalIRKSA_EEEEE4typeESC_, symObjAddr: 0x7FBD0, symBinAddr: 0x100082CC0, symSize: 0x24 }
  - { offsetInCU: 0xA97CF, offset: 0xA97CF, size: 0x8, addend: 0x0, symName: __ZNSt3__119__allocate_at_leastB7v160006INS_9allocatorINS_10unique_ptrIN5Catch6Detail8EnumInfoENS_14default_deleteIS5_EEEEEEEENS_19__allocation_resultINS_16allocator_traitsIT_E7pointerEEERSC_m, symObjAddr: 0x80CE4, symBinAddr: 0x100083DD4, symSize: 0x40 }
  - { offsetInCU: 0xA9814, offset: 0xA9814, size: 0x8, addend: 0x0, symName: __ZNSt3__142__uninitialized_allocator_move_if_noexceptB7v160006INS_9allocatorINS_10unique_ptrIN5Catch6Detail8EnumInfoENS_14default_deleteIS5_EEEEEENS_16reverse_iteratorIPS8_EESC_SC_EET2_RT_T0_T1_SD_, symObjAddr: 0x80EB4, symBinAddr: 0x100083FA4, symSize: 0x12C }
  - { offsetInCU: 0xA98B5, offset: 0xA98B5, size: 0x8, addend: 0x0, symName: __ZNSt3__14swapB7v160006IPNS_10unique_ptrIN5Catch6Detail8EnumInfoENS_14default_deleteIS4_EEEEEENS_9enable_ifIXaasr21is_move_constructibleIT_EE5valuesr18is_move_assignableISA_EE5valueEvE4typeERSA_SD_, symObjAddr: 0x8102C, symBinAddr: 0x10008411C, symSize: 0x3C }
  - { offsetInCU: 0xA990A, offset: 0xA990A, size: 0x8, addend: 0x0, symName: __ZNSt3__125__debug_db_invalidate_allB7v160006INS_6vectorINS_10unique_ptrIN5Catch6Detail8EnumInfoENS_14default_deleteIS5_EEEENS_9allocatorIS8_EEEEEEvPT_, symObjAddr: 0x81114, symBinAddr: 0x100084204, symSize: 0x10 }
  - { offsetInCU: 0xA993D, offset: 0xA993D, size: 0x8, addend: 0x0, symName: __ZNSt3__122__make_exception_guardB7v160006INS_29_AllocatorDestroyRangeReverseINS_9allocatorINS_10unique_ptrIN5Catch6Detail8EnumInfoENS_14default_deleteIS6_EEEEEENS_16reverse_iteratorIPS9_EEEEEENS_28__exception_guard_exceptionsIT_EESG_, symObjAddr: 0x81124, symBinAddr: 0x100084214, symSize: 0x4C }
  - { offsetInCU: 0xA9975, offset: 0xA9975, size: 0x8, addend: 0x0, symName: __ZNSt3__1neB7v160006IPNS_10unique_ptrIN5Catch6Detail8EnumInfoENS_14default_deleteIS4_EEEES8_EEbRKNS_16reverse_iteratorIT_EERKNS9_IT0_EE, symObjAddr: 0x811B4, symBinAddr: 0x1000842A4, symSize: 0x48 }
  - { offsetInCU: 0xA99C4, offset: 0xA99C4, size: 0x8, addend: 0x0, symName: __ZNSt3__112__to_addressB7v160006INS_16reverse_iteratorIPNS_10unique_ptrIN5Catch6Detail8EnumInfoENS_14default_deleteIS5_EEEEEEvEENS_5decayIDTclsr19__to_address_helperIT_EE6__callclsr3stdE7declvalIRKSC_EEEEE4typeESE_, symObjAddr: 0x811FC, symBinAddr: 0x1000842EC, symSize: 0x24 }
  - { offsetInCU: 0xA9A26, offset: 0xA9A26, size: 0x8, addend: 0x0, symName: __ZNSt3__119__allocator_destroyB7v160006INS_9allocatorINS_10unique_ptrIN5Catch6Detail8EnumInfoENS_14default_deleteIS5_EEEEEENS_16reverse_iteratorINSA_IPS8_EEEESD_EEvRT_T0_T1_, symObjAddr: 0x814AC, symBinAddr: 0x10008459C, symSize: 0x70 }
  - { offsetInCU: 0xA9A8C, offset: 0xA9A8C, size: 0x8, addend: 0x0, symName: __ZNSt3__1neB7v160006INS_16reverse_iteratorIPNS_10unique_ptrIN5Catch6Detail8EnumInfoENS_14default_deleteIS5_EEEEEESA_EEbRKNS1_IT_EERKNS1_IT0_EE, symObjAddr: 0x81558, symBinAddr: 0x100084648, symSize: 0x60 }
  - { offsetInCU: 0xA9ADB, offset: 0xA9ADB, size: 0x8, addend: 0x0, symName: __ZNSt3__112__to_addressB7v160006INS_16reverse_iteratorINS1_IPNS_10unique_ptrIN5Catch6Detail8EnumInfoENS_14default_deleteIS5_EEEEEEEEvEENS_5decayIDTclsr19__to_address_helperIT_EE6__callclsr3stdE7declvalIRKSD_EEEEE4typeESF_, symObjAddr: 0x815B8, symBinAddr: 0x1000846A8, symSize: 0x24 }
  - { offsetInCU: 0xA9B3E, offset: 0xA9B3E, size: 0x8, addend: 0x0, symName: __ZNSt3__118__debug_db_erase_cB7v160006INS_6vectorINS_10unique_ptrIKN5Catch20IExceptionTranslatorENS_14default_deleteIS5_EEEENS_9allocatorIS8_EEEEEEvPT_, symObjAddr: 0x81B0C, symBinAddr: 0x100084BFC, symSize: 0x10 }
  - { offsetInCU: 0xA9B71, offset: 0xA9B71, size: 0x8, addend: 0x0, symName: __ZNSt3__112__to_addressB7v160006INS_10unique_ptrIKN5Catch20IExceptionTranslatorENS_14default_deleteIS4_EEEEEEPT_S9_, symObjAddr: 0x81C50, symBinAddr: 0x100084D40, symSize: 0x14 }
  - { offsetInCU: 0xA9BA8, offset: 0xA9BA8, size: 0x8, addend: 0x0, symName: __ZNSt3__119__allocate_at_leastB7v160006INS_9allocatorINS_10unique_ptrIKN5Catch20IExceptionTranslatorENS_14default_deleteIS5_EEEEEEEENS_19__allocation_resultINS_16allocator_traitsIT_E7pointerEEERSC_m, symObjAddr: 0x82988, symBinAddr: 0x100085A78, symSize: 0x40 }
  - { offsetInCU: 0xA9BED, offset: 0xA9BED, size: 0x8, addend: 0x0, symName: __ZNSt3__142__uninitialized_allocator_move_if_noexceptB7v160006INS_9allocatorINS_10unique_ptrIKN5Catch20IExceptionTranslatorENS_14default_deleteIS5_EEEEEENS_16reverse_iteratorIPS8_EESC_SC_EET2_RT_T0_T1_SD_, symObjAddr: 0x82B58, symBinAddr: 0x100085C48, symSize: 0x12C }
  - { offsetInCU: 0xA9C8E, offset: 0xA9C8E, size: 0x8, addend: 0x0, symName: __ZNSt3__14swapB7v160006IPNS_10unique_ptrIKN5Catch20IExceptionTranslatorENS_14default_deleteIS4_EEEEEENS_9enable_ifIXaasr21is_move_constructibleIT_EE5valuesr18is_move_assignableISA_EE5valueEvE4typeERSA_SD_, symObjAddr: 0x82CD0, symBinAddr: 0x100085DC0, symSize: 0x3C }
  - { offsetInCU: 0xA9CE3, offset: 0xA9CE3, size: 0x8, addend: 0x0, symName: __ZNSt3__125__debug_db_invalidate_allB7v160006INS_6vectorINS_10unique_ptrIKN5Catch20IExceptionTranslatorENS_14default_deleteIS5_EEEENS_9allocatorIS8_EEEEEEvPT_, symObjAddr: 0x82DB8, symBinAddr: 0x100085EA8, symSize: 0x10 }
  - { offsetInCU: 0xA9D16, offset: 0xA9D16, size: 0x8, addend: 0x0, symName: __ZNSt3__122__make_exception_guardB7v160006INS_29_AllocatorDestroyRangeReverseINS_9allocatorINS_10unique_ptrIKN5Catch20IExceptionTranslatorENS_14default_deleteIS6_EEEEEENS_16reverse_iteratorIPS9_EEEEEENS_28__exception_guard_exceptionsIT_EESG_, symObjAddr: 0x82DC8, symBinAddr: 0x100085EB8, symSize: 0x4C }
  - { offsetInCU: 0xA9D4E, offset: 0xA9D4E, size: 0x8, addend: 0x0, symName: __ZNSt3__1neB7v160006IPNS_10unique_ptrIKN5Catch20IExceptionTranslatorENS_14default_deleteIS4_EEEES8_EEbRKNS_16reverse_iteratorIT_EERKNS9_IT0_EE, symObjAddr: 0x82E58, symBinAddr: 0x100085F48, symSize: 0x48 }
  - { offsetInCU: 0xA9D9D, offset: 0xA9D9D, size: 0x8, addend: 0x0, symName: __ZNSt3__112__to_addressB7v160006INS_16reverse_iteratorIPNS_10unique_ptrIKN5Catch20IExceptionTranslatorENS_14default_deleteIS5_EEEEEEvEENS_5decayIDTclsr19__to_address_helperIT_EE6__callclsr3stdE7declvalIRKSC_EEEEE4typeESE_, symObjAddr: 0x82EA0, symBinAddr: 0x100085F90, symSize: 0x24 }
  - { offsetInCU: 0xA9DFF, offset: 0xA9DFF, size: 0x8, addend: 0x0, symName: __ZNSt3__119__allocator_destroyB7v160006INS_9allocatorINS_10unique_ptrIKN5Catch20IExceptionTranslatorENS_14default_deleteIS5_EEEEEENS_16reverse_iteratorINSA_IPS8_EEEESD_EEvRT_T0_T1_, symObjAddr: 0x83150, symBinAddr: 0x100086240, symSize: 0x70 }
  - { offsetInCU: 0xA9E65, offset: 0xA9E65, size: 0x8, addend: 0x0, symName: __ZNSt3__1neB7v160006INS_16reverse_iteratorIPNS_10unique_ptrIKN5Catch20IExceptionTranslatorENS_14default_deleteIS5_EEEEEESA_EEbRKNS1_IT_EERKNS1_IT0_EE, symObjAddr: 0x831FC, symBinAddr: 0x1000862EC, symSize: 0x60 }
  - { offsetInCU: 0xA9EB4, offset: 0xA9EB4, size: 0x8, addend: 0x0, symName: __ZNSt3__112__to_addressB7v160006INS_16reverse_iteratorINS1_IPNS_10unique_ptrIKN5Catch20IExceptionTranslatorENS_14default_deleteIS5_EEEEEEEEvEENS_5decayIDTclsr19__to_address_helperIT_EE6__callclsr3stdE7declvalIRKSD_EEEEE4typeESF_, symObjAddr: 0x8325C, symBinAddr: 0x10008634C, symSize: 0x24 }
  - { offsetInCU: 0xA9F17, offset: 0xA9F17, size: 0x8, addend: 0x0, symName: __ZNSt3__122__make_exception_guardB7v160006INS_6vectorIN5Catch11MessageInfoENS_9allocatorIS3_EEE16__destroy_vectorEEENS_28__exception_guard_exceptionsIT_EES9_, symObjAddr: 0x83B00, symBinAddr: 0x100086BF0, symSize: 0x40 }
  - { offsetInCU: 0xA9F4E, offset: 0xA9F4E, size: 0x8, addend: 0x0, symName: __ZNSt3__119__debug_db_insert_cB7v160006INS_6vectorIN5Catch11MessageInfoENS_9allocatorIS3_EEEEEEvPT_, symObjAddr: 0x83B74, symBinAddr: 0x100086C64, symSize: 0x10 }
  - { offsetInCU: 0xA9F81, offset: 0xA9F81, size: 0x8, addend: 0x0, symName: __ZNSt3__119__allocate_at_leastB7v160006INS_9allocatorIN5Catch11MessageInfoEEEEENS_19__allocation_resultINS_16allocator_traitsIT_E7pointerEEERS7_m, symObjAddr: 0x83EA8, symBinAddr: 0x100086F98, symSize: 0x40 }
  - { offsetInCU: 0xA9FC7, offset: 0xA9FC7, size: 0x8, addend: 0x0, symName: __ZNSt3__112__to_addressB7v160006IN5Catch11MessageInfoEEEPT_S4_, symObjAddr: 0x8416C, symBinAddr: 0x10008725C, symSize: 0x14 }
  - { offsetInCU: 0xA9FFD, offset: 0xA9FFD, size: 0x8, addend: 0x0, symName: __ZNSt3__130__uninitialized_allocator_copyB7v160006INS_9allocatorIN5Catch11MessageInfoEEEPS3_S5_S5_EET2_RT_T0_T1_S6_, symObjAddr: 0x8421C, symBinAddr: 0x10008730C, symSize: 0xF4 }
  - { offsetInCU: 0xAA09C, offset: 0xAA09C, size: 0x8, addend: 0x0, symName: __ZNSt3__122__make_exception_guardB7v160006INS_29_AllocatorDestroyRangeReverseINS_9allocatorIN5Catch11MessageInfoEEEPS4_EEEENS_28__exception_guard_exceptionsIT_EES9_, symObjAddr: 0x84380, symBinAddr: 0x100087470, symSize: 0x4C }
  - { offsetInCU: 0xAA0D3, offset: 0xAA0D3, size: 0x8, addend: 0x0, symName: __ZNSt3__119__allocator_destroyB7v160006INS_9allocatorIN5Catch11MessageInfoEEENS_16reverse_iteratorIPS3_EES7_EEvRT_T0_T1_, symObjAddr: 0x84610, symBinAddr: 0x100087700, symSize: 0x70 }
  - { offsetInCU: 0xAA137, offset: 0xAA137, size: 0x8, addend: 0x0, symName: __ZNSt3__1neB7v160006IPN5Catch11MessageInfoES3_EEbRKNS_16reverse_iteratorIT_EERKNS4_IT0_EE, symObjAddr: 0x846B4, symBinAddr: 0x1000877A4, symSize: 0x48 }
  - { offsetInCU: 0xAA186, offset: 0xAA186, size: 0x8, addend: 0x0, symName: __ZNSt3__112__to_addressB7v160006INS_16reverse_iteratorIPN5Catch11MessageInfoEEEvEENS_5decayIDTclsr19__to_address_helperIT_EE6__callclsr3stdE7declvalIRKS7_EEEEE4typeES9_, symObjAddr: 0x84728, symBinAddr: 0x100087818, symSize: 0x24 }
  - { offsetInCU: 0xAA1E9, offset: 0xAA1E9, size: 0x8, addend: 0x0, symName: __ZNSt3__118__debug_db_erase_cB7v160006INS_6vectorIN5Catch11MessageInfoENS_9allocatorIS3_EEEEEEvPT_, symObjAddr: 0x84A1C, symBinAddr: 0x100087B0C, symSize: 0x10 }
  - { offsetInCU: 0xAA21B, offset: 0xAA21B, size: 0x8, addend: 0x0, symName: __ZNSt3__142__uninitialized_allocator_move_if_noexceptB7v160006INS_9allocatorIN5Catch11MessageInfoEEENS_16reverse_iteratorIPS3_EES7_S7_EET2_RT_T0_T1_S8_, symObjAddr: 0x851CC, symBinAddr: 0x1000882BC, symSize: 0x11C }
  - { offsetInCU: 0xAA2BC, offset: 0xAA2BC, size: 0x8, addend: 0x0, symName: __ZNSt3__14swapB7v160006IPN5Catch11MessageInfoEEENS_9enable_ifIXaasr21is_move_constructibleIT_EE5valuesr18is_move_assignableIS5_EE5valueEvE4typeERS5_S8_, symObjAddr: 0x852E8, symBinAddr: 0x1000883D8, symSize: 0x3C }
  - { offsetInCU: 0xAA311, offset: 0xAA311, size: 0x8, addend: 0x0, symName: __ZNSt3__125__debug_db_invalidate_allB7v160006INS_6vectorIN5Catch11MessageInfoENS_9allocatorIS3_EEEEEEvPT_, symObjAddr: 0x85324, symBinAddr: 0x100088414, symSize: 0x10 }
  - { offsetInCU: 0xAA344, offset: 0xAA344, size: 0x8, addend: 0x0, symName: __ZNSt3__122__make_exception_guardB7v160006INS_29_AllocatorDestroyRangeReverseINS_9allocatorIN5Catch11MessageInfoEEENS_16reverse_iteratorIPS4_EEEEEENS_28__exception_guard_exceptionsIT_EESB_, symObjAddr: 0x85334, symBinAddr: 0x100088424, symSize: 0x4C }
  - { offsetInCU: 0xAA37B, offset: 0xAA37B, size: 0x8, addend: 0x0, symName: __ZNSt3__119__allocator_destroyB7v160006INS_9allocatorIN5Catch11MessageInfoEEENS_16reverse_iteratorINS5_IPS3_EEEES8_EEvRT_T0_T1_, symObjAddr: 0x856A0, symBinAddr: 0x100088790, symSize: 0x70 }
  - { offsetInCU: 0xAA3E1, offset: 0xAA3E1, size: 0x8, addend: 0x0, symName: __ZNSt3__1neB7v160006INS_16reverse_iteratorIPN5Catch11MessageInfoEEES5_EEbRKNS1_IT_EERKNS1_IT0_EE, symObjAddr: 0x8574C, symBinAddr: 0x10008883C, symSize: 0x60 }
  - { offsetInCU: 0xAA430, offset: 0xAA430, size: 0x8, addend: 0x0, symName: __ZNSt3__112__to_addressB7v160006INS_16reverse_iteratorINS1_IPN5Catch11MessageInfoEEEEEvEENS_5decayIDTclsr19__to_address_helperIT_EE6__callclsr3stdE7declvalIRKS8_EEEEE4typeESA_, symObjAddr: 0x857AC, symBinAddr: 0x10008889C, symSize: 0x24 }
  - { offsetInCU: 0xAA493, offset: 0xAA493, size: 0x8, addend: 0x0, symName: __ZNSt3__118__debug_db_erase_cB7v160006INS_6vectorIN5Catch8TestCaseENS_9allocatorIS3_EEEEEEvPT_, symObjAddr: 0x85CF4, symBinAddr: 0x100088DE4, symSize: 0x10 }
  - { offsetInCU: 0xAA4C6, offset: 0xAA4C6, size: 0x8, addend: 0x0, symName: __ZNSt3__112__to_addressB7v160006IN5Catch8TestCaseEEEPT_S4_, symObjAddr: 0x85E10, symBinAddr: 0x100088F00, symSize: 0x14 }
  - { offsetInCU: 0xAA543, offset: 0xAA543, size: 0x8, addend: 0x0, symName: __ZNSt3__1eqB7v160006ERKNS_21__tree_const_iteratorINS_12basic_stringIcNS_11char_traitsIcEENS_9allocatorIcEEEEPNS_11__tree_nodeIS6_PvEElEESD_, symObjAddr: 0x86E4C, symBinAddr: 0x100089F3C, symSize: 0x30 }
  - { offsetInCU: 0xAA580, offset: 0xAA580, size: 0x8, addend: 0x0, symName: __ZNSt3__1neB7v160006ERKNS_15__tree_iteratorINS_12__value_typeINS_12basic_stringIcNS_11char_traitsIcEENS_9allocatorIcEEEEN5Catch7TagInfoEEEPNS_11__tree_nodeISA_PvEElEESH_, symObjAddr: 0x876AC, symBinAddr: 0x10008A79C, symSize: 0x34 }
  - { offsetInCU: 0xAA5BD, offset: 0xAA5BD, size: 0x8, addend: 0x0, symName: __ZNSt3__1eqB7v160006ERKNS_15__tree_iteratorINS_12__value_typeINS_12basic_stringIcNS_11char_traitsIcEENS_9allocatorIcEEEEN5Catch7TagInfoEEEPNS_11__tree_nodeISA_PvEElEESH_, symObjAddr: 0x87864, symBinAddr: 0x10008A954, symSize: 0x30 }
  - { offsetInCU: 0xAA6C6, offset: 0xAA6C6, size: 0x8, addend: 0x0, symName: __ZNSt3__110scientificB7v160006ERNS_8ios_baseE, symObjAddr: 0x88A64, symBinAddr: 0x10008BB54, symSize: 0x30 }
  - { offsetInCU: 0xAA6F4, offset: 0xAA6F4, size: 0x8, addend: 0x0, symName: __ZNSt3__19use_facetB7v160006INS_7collateIcEEEERKT_RKNS_6localeE, symObjAddr: 0x88D3C, symBinAddr: 0x10008BE2C, symSize: 0x2C }
  - { offsetInCU: 0xAA72B, offset: 0xAA72B, size: 0x8, addend: 0x0, symName: __ZNSt3__119__throw_regex_errorB7v160006ILNS_15regex_constants10error_typeE17EEEvv, symObjAddr: 0x89038, symBinAddr: 0x10008C128, symSize: 0x60 }
  - { offsetInCU: 0xAABE2, offset: 0xAABE2, size: 0x8, addend: 0x0, symName: __ZNSt3__119__throw_regex_errorB7v160006ILNS_15regex_constants10error_typeE14EEEvv, symObjAddr: 0x899DC, symBinAddr: 0x10008CACC, symSize: 0x60 }
  - { offsetInCU: 0xAB82D, offset: 0xAB82D, size: 0x8, addend: 0x0, symName: __ZNSt3__14swapB7v160006IPNS_13__empty_stateIcEEEENS_9enable_ifIXaasr21is_move_constructibleIT_EE5valuesr18is_move_assignableIS5_EE5valueEvE4typeERS5_S8_, symObjAddr: 0x8A8AC, symBinAddr: 0x10008D99C, symSize: 0x3C }
  - { offsetInCU: 0xAB882, offset: 0xAB882, size: 0x8, addend: 0x0, symName: __ZNSt3__14nextB7v160006INS_11__wrap_iterIPKcEEEENS_9enable_ifIXsr25__is_cpp17_input_iteratorIT_EE5valueES6_E4typeES6_NS_15iterator_traitsIS6_E15difference_typeE, symObjAddr: 0x8C168, symBinAddr: 0x10008F258, symSize: 0x50 }
  - { offsetInCU: 0xAB8C7, offset: 0xAB8C7, size: 0x8, addend: 0x0, symName: __ZNSt3__119__throw_regex_errorB7v160006ILNS_15regex_constants10error_typeE6EEEvv, symObjAddr: 0x8C378, symBinAddr: 0x10008F468, symSize: 0x60 }
  - { offsetInCU: 0xAB973, offset: 0xAB973, size: 0x8, addend: 0x0, symName: __ZNSt3__18__is_eolB7v160006IcEEbT_, symObjAddr: 0x8C6CC, symBinAddr: 0x10008F7BC, symSize: 0x48 }
  - { offsetInCU: 0xAB9AB, offset: 0xAB9AB, size: 0x8, addend: 0x0, symName: __ZNSt3__14prevB7v160006IPKcEENS_9enable_ifIXsr25__is_cpp17_input_iteratorIT_EE5valueES4_E4typeES4_NS_15iterator_traitsIS4_E15difference_typeE, symObjAddr: 0x8C714, symBinAddr: 0x10008F804, symSize: 0x50 }
  - { offsetInCU: 0xAB9F1, offset: 0xAB9F1, size: 0x8, addend: 0x0, symName: __ZNSt3__19__advanceB7v160006IPKcEEvRT_NS_15iterator_traitsIS3_E15difference_typeENS_26random_access_iterator_tagE, symObjAddr: 0x8C7B4, symBinAddr: 0x10008F8A4, symSize: 0x28 }
  - { offsetInCU: 0xABAC4, offset: 0xABAC4, size: 0x8, addend: 0x0, symName: __ZNSt3__19__advanceB7v160006INS_11__wrap_iterIPKcEEEEvRT_NS_15iterator_traitsIS5_E15difference_typeENS_26random_access_iterator_tagE, symObjAddr: 0x8CA4C, symBinAddr: 0x10008FB3C, symSize: 0x2C }
  - { offsetInCU: 0xABF7A, offset: 0xABF7A, size: 0x8, addend: 0x0, symName: __ZNSt3__119__debug_db_insert_cB7v160006INS_6vectorINS_9sub_matchIPKcEENS_9allocatorIS5_EEEEEEvPT_, symObjAddr: 0x8E008, symBinAddr: 0x1000910F8, symSize: 0x10 }
  - { offsetInCU: 0xABFAD, offset: 0xABFAD, size: 0x8, addend: 0x0, symName: __ZNSt3__118__debug_db_erase_cB7v160006INS_6vectorINS_9sub_matchIPKcEENS_9allocatorIS5_EEEEEEvPT_, symObjAddr: 0x8E2E4, symBinAddr: 0x1000913D4, symSize: 0x10 }
  - { offsetInCU: 0xABFE0, offset: 0xABFE0, size: 0x8, addend: 0x0, symName: __ZNSt3__112__to_addressB7v160006INS_9sub_matchIPKcEEEEPT_S6_, symObjAddr: 0x8E428, symBinAddr: 0x100091518, symSize: 0x14 }
  - { offsetInCU: 0xAC017, offset: 0xAC017, size: 0x8, addend: 0x0, symName: __ZNSt3__16fill_nB7v160006IPNS_9sub_matchIPKcEEmS4_EET_S6_T0_RKT1_, symObjAddr: 0x8E6FC, symBinAddr: 0x1000917EC, symSize: 0x44 }
  - { offsetInCU: 0xAC07E, offset: 0xAC07E, size: 0x8, addend: 0x0, symName: __ZNSt3__125__debug_db_invalidate_allB7v160006INS_6vectorINS_9sub_matchIPKcEENS_9allocatorIS5_EEEEEEvPT_, symObjAddr: 0x8EA64, symBinAddr: 0x100091B54, symSize: 0x10 }
  - { offsetInCU: 0xAC0B1, offset: 0xAC0B1, size: 0x8, addend: 0x0, symName: __ZNSt3__18__fill_nB7v160006IPNS_9sub_matchIPKcEEmS4_EET_S6_T0_RKT1_, symObjAddr: 0x8EA74, symBinAddr: 0x100091B64, symSize: 0x6C }
  - { offsetInCU: 0xAC118, offset: 0xAC118, size: 0x8, addend: 0x0, symName: __ZNSt3__119__allocate_at_leastB7v160006INS_9allocatorINS_9sub_matchIPKcEEEEEENS_19__allocation_resultINS_16allocator_traitsIT_E7pointerEEERS9_m, symObjAddr: 0x8EE2C, symBinAddr: 0x100091F1C, symSize: 0x40 }
  - { offsetInCU: 0xAC15D, offset: 0xAC15D, size: 0x8, addend: 0x0, symName: __ZNSt3__119__throw_regex_errorB7v160006ILNS_15regex_constants10error_typeE12EEEvv, symObjAddr: 0x8F288, symBinAddr: 0x100092378, symSize: 0x60 }
  - { offsetInCU: 0xAC184, offset: 0xAC184, size: 0x8, addend: 0x0, symName: __ZNSt3__14nextB7v160006IPKcEENS_9enable_ifIXsr25__is_cpp17_input_iteratorIT_EE5valueES4_E4typeES4_NS_15iterator_traitsIS4_E15difference_typeE, symObjAddr: 0x8F314, symBinAddr: 0x100092404, symSize: 0x48 }
  - { offsetInCU: 0xAC1C9, offset: 0xAC1C9, size: 0x8, addend: 0x0, symName: __ZNSt3__119__throw_regex_errorB7v160006ILNS_15regex_constants10error_typeE16EEEvv, symObjAddr: 0x8F390, symBinAddr: 0x100092480, symSize: 0x60 }
  - { offsetInCU: 0xAC1F0, offset: 0xAC1F0, size: 0x8, addend: 0x0, symName: __ZNSt3__119__debug_db_insert_cB7v160006INS_6vectorINS_7__stateIcEENS_9allocatorIS3_EEEEEEvPT_, symObjAddr: 0x8F4D8, symBinAddr: 0x1000925C8, symSize: 0x10 }
  - { offsetInCU: 0xAC223, offset: 0xAC223, size: 0x8, addend: 0x0, symName: __ZNSt3__112__to_addressB7v160006INS_7__stateIcEEEEPT_S4_, symObjAddr: 0x8F810, symBinAddr: 0x100092900, symSize: 0x14 }
  - { offsetInCU: 0xAC25A, offset: 0xAC25A, size: 0x8, addend: 0x0, symName: __ZNSt3__115__debug_db_swapB7v160006INS_6vectorINS_9sub_matchIPKcEENS_9allocatorIS5_EEEEEEvPT_SA_, symObjAddr: 0x8FAF8, symBinAddr: 0x100092BE8, symSize: 0x14 }
  - { offsetInCU: 0xAC29C, offset: 0xAC29C, size: 0x8, addend: 0x0, symName: __ZNSt3__119__debug_db_insert_cB7v160006INS_6vectorINS_4pairImPKcEENS_9allocatorIS5_EEEEEEvPT_, symObjAddr: 0x8FCAC, symBinAddr: 0x100092D9C, symSize: 0x10 }
  - { offsetInCU: 0xAC2CF, offset: 0xAC2CF, size: 0x8, addend: 0x0, symName: __ZNSt3__115__debug_db_swapB7v160006INS_6vectorINS_4pairImPKcEENS_9allocatorIS5_EEEEEEvPT_SA_, symObjAddr: 0x8FCBC, symBinAddr: 0x100092DAC, symSize: 0x14 }
  - { offsetInCU: 0xAC311, offset: 0xAC311, size: 0x8, addend: 0x0, symName: __ZNSt3__119__allocate_at_leastB7v160006INS_9allocatorINS_7__stateIcEEEEEENS_19__allocation_resultINS_16allocator_traitsIT_E7pointerEEERS7_m, symObjAddr: 0x90370, symBinAddr: 0x100093460, symSize: 0x40 }
  - { offsetInCU: 0xAC356, offset: 0xAC356, size: 0x8, addend: 0x0, symName: __ZNSt3__142__uninitialized_allocator_move_if_noexceptB7v160006INS_9allocatorINS_7__stateIcEEEENS_16reverse_iteratorIPS3_EES7_S7_EET2_RT_T0_T1_S8_, symObjAddr: 0x905FC, symBinAddr: 0x1000936EC, symSize: 0x12C }
  - { offsetInCU: 0xAC3F7, offset: 0xAC3F7, size: 0x8, addend: 0x0, symName: __ZNSt3__14swapB7v160006IPNS_7__stateIcEEEENS_9enable_ifIXaasr21is_move_constructibleIT_EE5valuesr18is_move_assignableIS5_EE5valueEvE4typeERS5_S8_, symObjAddr: 0x90774, symBinAddr: 0x100093864, symSize: 0x3C }
  - { offsetInCU: 0xAC44C, offset: 0xAC44C, size: 0x8, addend: 0x0, symName: __ZNSt3__125__debug_db_invalidate_allB7v160006INS_6vectorINS_7__stateIcEENS_9allocatorIS3_EEEEEEvPT_, symObjAddr: 0x90878, symBinAddr: 0x100093968, symSize: 0x10 }
  - { offsetInCU: 0xAC47F, offset: 0xAC47F, size: 0x8, addend: 0x0, symName: __ZNSt3__122__make_exception_guardB7v160006INS_29_AllocatorDestroyRangeReverseINS_9allocatorINS_7__stateIcEEEENS_16reverse_iteratorIPS4_EEEEEENS_28__exception_guard_exceptionsIT_EESB_, symObjAddr: 0x908D0, symBinAddr: 0x1000939C0, symSize: 0x4C }
  - { offsetInCU: 0xAC4B7, offset: 0xAC4B7, size: 0x8, addend: 0x0, symName: __ZNSt3__1neB7v160006IPNS_7__stateIcEES3_EEbRKNS_16reverse_iteratorIT_EERKNS4_IT0_EE, symObjAddr: 0x90960, symBinAddr: 0x100093A50, symSize: 0x48 }
  - { offsetInCU: 0xAC506, offset: 0xAC506, size: 0x8, addend: 0x0, symName: __ZNSt3__112__to_addressB7v160006INS_16reverse_iteratorIPNS_7__stateIcEEEEvEENS_5decayIDTclsr19__to_address_helperIT_EE6__callclsr3stdE7declvalIRKS7_EEEEE4typeES9_, symObjAddr: 0x909A8, symBinAddr: 0x100093A98, symSize: 0x24 }
  - { offsetInCU: 0xAC568, offset: 0xAC568, size: 0x8, addend: 0x0, symName: __ZNSt3__119__allocator_destroyB7v160006INS_9allocatorINS_7__stateIcEEEENS_16reverse_iteratorINS5_IPS3_EEEES8_EEvRT_T0_T1_, symObjAddr: 0x90C58, symBinAddr: 0x100093D48, symSize: 0x70 }
  - { offsetInCU: 0xAC5CE, offset: 0xAC5CE, size: 0x8, addend: 0x0, symName: __ZNSt3__1neB7v160006INS_16reverse_iteratorIPNS_7__stateIcEEEES5_EEbRKNS1_IT_EERKNS1_IT0_EE, symObjAddr: 0x90D04, symBinAddr: 0x100093DF4, symSize: 0x60 }
  - { offsetInCU: 0xAC61D, offset: 0xAC61D, size: 0x8, addend: 0x0, symName: __ZNSt3__112__to_addressB7v160006INS_16reverse_iteratorINS1_IPNS_7__stateIcEEEEEEvEENS_5decayIDTclsr19__to_address_helperIT_EE6__callclsr3stdE7declvalIRKS8_EEEEE4typeESA_, symObjAddr: 0x90D90, symBinAddr: 0x100093E80, symSize: 0x24 }
  - { offsetInCU: 0xAC680, offset: 0xAC680, size: 0x8, addend: 0x0, symName: __ZNSt3__118__debug_db_erase_cB7v160006INS_6vectorINS_4pairImPKcEENS_9allocatorIS5_EEEEEEvPT_, symObjAddr: 0x916D0, symBinAddr: 0x1000947C0, symSize: 0x10 }
  - { offsetInCU: 0xAC6B3, offset: 0xAC6B3, size: 0x8, addend: 0x0, symName: __ZNSt3__112__to_addressB7v160006INS_4pairImPKcEEEEPT_S6_, symObjAddr: 0x917EC, symBinAddr: 0x1000948DC, symSize: 0x14 }
  - { offsetInCU: 0xAC6E9, offset: 0xAC6E9, size: 0x8, addend: 0x0, symName: __ZNSt3__142__uninitialized_allocator_move_if_noexceptB7v160006INS_9allocatorINS_9sub_matchIPKcEEEENS_16reverse_iteratorIPS5_EES9_S9_EET2_RT_T0_T1_SA_, symObjAddr: 0x91FD0, symBinAddr: 0x1000950C0, symSize: 0x12C }
  - { offsetInCU: 0xAC78A, offset: 0xAC78A, size: 0x8, addend: 0x0, symName: __ZNSt3__14swapB7v160006IPNS_9sub_matchIPKcEEEENS_9enable_ifIXaasr21is_move_constructibleIT_EE5valuesr18is_move_assignableIS7_EE5valueEvE4typeERS7_SA_, symObjAddr: 0x92148, symBinAddr: 0x100095238, symSize: 0x3C }
  - { offsetInCU: 0xAC7DF, offset: 0xAC7DF, size: 0x8, addend: 0x0, symName: __ZNSt3__122__make_exception_guardB7v160006INS_29_AllocatorDestroyRangeReverseINS_9allocatorINS_9sub_matchIPKcEEEENS_16reverse_iteratorIPS6_EEEEEENS_28__exception_guard_exceptionsIT_EESD_, symObjAddr: 0x92184, symBinAddr: 0x100095274, symSize: 0x4C }
  - { offsetInCU: 0xAC817, offset: 0xAC817, size: 0x8, addend: 0x0, symName: __ZNSt3__1neB7v160006IPNS_9sub_matchIPKcEES5_EEbRKNS_16reverse_iteratorIT_EERKNS6_IT0_EE, symObjAddr: 0x92214, symBinAddr: 0x100095304, symSize: 0x48 }
  - { offsetInCU: 0xAC866, offset: 0xAC866, size: 0x8, addend: 0x0, symName: __ZNSt3__112__to_addressB7v160006INS_16reverse_iteratorIPNS_9sub_matchIPKcEEEEvEENS_5decayIDTclsr19__to_address_helperIT_EE6__callclsr3stdE7declvalIRKS9_EEEEE4typeESB_, symObjAddr: 0x92290, symBinAddr: 0x100095380, symSize: 0x24 }
  - { offsetInCU: 0xAC8C8, offset: 0xAC8C8, size: 0x8, addend: 0x0, symName: __ZNSt3__119__allocator_destroyB7v160006INS_9allocatorINS_9sub_matchIPKcEEEENS_16reverse_iteratorINS7_IPS5_EEEESA_EEvRT_T0_T1_, symObjAddr: 0x92570, symBinAddr: 0x100095660, symSize: 0x70 }
  - { offsetInCU: 0xAC92E, offset: 0xAC92E, size: 0x8, addend: 0x0, symName: __ZNSt3__1neB7v160006INS_16reverse_iteratorIPNS_9sub_matchIPKcEEEES7_EEbRKNS1_IT_EERKNS1_IT0_EE, symObjAddr: 0x9261C, symBinAddr: 0x10009570C, symSize: 0x60 }
  - { offsetInCU: 0xAC97D, offset: 0xAC97D, size: 0x8, addend: 0x0, symName: __ZNSt3__112__to_addressB7v160006INS_16reverse_iteratorINS1_IPNS_9sub_matchIPKcEEEEEEvEENS_5decayIDTclsr19__to_address_helperIT_EE6__callclsr3stdE7declvalIRKSA_EEEEE4typeESC_, symObjAddr: 0x9267C, symBinAddr: 0x10009576C, symSize: 0x24 }
  - { offsetInCU: 0xAC9E0, offset: 0xAC9E0, size: 0x8, addend: 0x0, symName: __ZNSt3__119__allocate_at_leastB7v160006INS_9allocatorINS_4pairImPKcEEEEEENS_19__allocation_resultINS_16allocator_traitsIT_E7pointerEEERS9_m, symObjAddr: 0x93290, symBinAddr: 0x100096380, symSize: 0x40 }
  - { offsetInCU: 0xACA25, offset: 0xACA25, size: 0x8, addend: 0x0, symName: __ZNSt3__142__uninitialized_allocator_move_if_noexceptB7v160006INS_9allocatorINS_4pairImPKcEEEENS_16reverse_iteratorIPS5_EES9_S9_EET2_RT_T0_T1_SA_, symObjAddr: 0x93510, symBinAddr: 0x100096600, symSize: 0x12C }
  - { offsetInCU: 0xACAC6, offset: 0xACAC6, size: 0x8, addend: 0x0, symName: __ZNSt3__14swapB7v160006IPNS_4pairImPKcEEEENS_9enable_ifIXaasr21is_move_constructibleIT_EE5valuesr18is_move_assignableIS7_EE5valueEvE4typeERS7_SA_, symObjAddr: 0x93688, symBinAddr: 0x100096778, symSize: 0x3C }
  - { offsetInCU: 0xACB1B, offset: 0xACB1B, size: 0x8, addend: 0x0, symName: __ZNSt3__125__debug_db_invalidate_allB7v160006INS_6vectorINS_4pairImPKcEENS_9allocatorIS5_EEEEEEvPT_, symObjAddr: 0x93770, symBinAddr: 0x100096860, symSize: 0x10 }
  - { offsetInCU: 0xACB4E, offset: 0xACB4E, size: 0x8, addend: 0x0, symName: __ZNSt3__122__make_exception_guardB7v160006INS_29_AllocatorDestroyRangeReverseINS_9allocatorINS_4pairImPKcEEEENS_16reverse_iteratorIPS6_EEEEEENS_28__exception_guard_exceptionsIT_EESD_, symObjAddr: 0x93780, symBinAddr: 0x100096870, symSize: 0x4C }
  - { offsetInCU: 0xACB86, offset: 0xACB86, size: 0x8, addend: 0x0, symName: __ZNSt3__1neB7v160006IPNS_4pairImPKcEES5_EEbRKNS_16reverse_iteratorIT_EERKNS6_IT0_EE, symObjAddr: 0x93810, symBinAddr: 0x100096900, symSize: 0x48 }
  - { offsetInCU: 0xACBD5, offset: 0xACBD5, size: 0x8, addend: 0x0, symName: __ZNSt3__112__to_addressB7v160006INS_16reverse_iteratorIPNS_4pairImPKcEEEEvEENS_5decayIDTclsr19__to_address_helperIT_EE6__callclsr3stdE7declvalIRKS9_EEEEE4typeESB_, symObjAddr: 0x9388C, symBinAddr: 0x10009697C, symSize: 0x24 }
  - { offsetInCU: 0xACC37, offset: 0xACC37, size: 0x8, addend: 0x0, symName: __ZNSt3__119__allocator_destroyB7v160006INS_9allocatorINS_4pairImPKcEEEENS_16reverse_iteratorINS7_IPS5_EEEESA_EEvRT_T0_T1_, symObjAddr: 0x93B64, symBinAddr: 0x100096C54, symSize: 0x70 }
  - { offsetInCU: 0xACC9D, offset: 0xACC9D, size: 0x8, addend: 0x0, symName: __ZNSt3__1neB7v160006INS_16reverse_iteratorIPNS_4pairImPKcEEEES7_EEbRKNS1_IT_EERKNS1_IT0_EE, symObjAddr: 0x93C10, symBinAddr: 0x100096D00, symSize: 0x60 }
  - { offsetInCU: 0xACCEC, offset: 0xACCEC, size: 0x8, addend: 0x0, symName: __ZNSt3__112__to_addressB7v160006INS_16reverse_iteratorINS1_IPNS_4pairImPKcEEEEEEvEENS_5decayIDTclsr19__to_address_helperIT_EE6__callclsr3stdE7declvalIRKSA_EEEEE4typeESC_, symObjAddr: 0x93C70, symBinAddr: 0x100096D60, symSize: 0x24 }
  - { offsetInCU: 0xACD4F, offset: 0xACD4F, size: 0x8, addend: 0x0, symName: __ZNSt3__122__make_exception_guardB7v160006INS_6vectorINS_9sub_matchIPKcEENS_9allocatorIS5_EEE16__destroy_vectorEEENS_28__exception_guard_exceptionsIT_EESB_, symObjAddr: 0x9449C, symBinAddr: 0x10009758C, symSize: 0x40 }
  - { offsetInCU: 0xACD85, offset: 0xACD85, size: 0x8, addend: 0x0, symName: __ZNSt3__130__uninitialized_allocator_copyB7v160006INS_9allocatorINS_9sub_matchIPKcEEEEPS5_S7_S7_EET2_RT_T0_T1_S8_, symObjAddr: 0x94608, symBinAddr: 0x1000976F8, symSize: 0xF4 }
  - { offsetInCU: 0xACE24, offset: 0xACE24, size: 0x8, addend: 0x0, symName: __ZNSt3__122__make_exception_guardB7v160006INS_29_AllocatorDestroyRangeReverseINS_9allocatorINS_9sub_matchIPKcEEEEPS6_EEEENS_28__exception_guard_exceptionsIT_EESB_, symObjAddr: 0x946FC, symBinAddr: 0x1000977EC, symSize: 0x4C }
  - { offsetInCU: 0xACE5B, offset: 0xACE5B, size: 0x8, addend: 0x0, symName: __ZNSt3__119__allocator_destroyB7v160006INS_9allocatorINS_9sub_matchIPKcEEEENS_16reverse_iteratorIPS5_EES9_EEvRT_T0_T1_, symObjAddr: 0x9498C, symBinAddr: 0x100097A7C, symSize: 0x70 }
  - { offsetInCU: 0xACEBF, offset: 0xACEBF, size: 0x8, addend: 0x0, symName: __ZNSt3__122__make_exception_guardB7v160006INS_6vectorINS_4pairImPKcEENS_9allocatorIS5_EEE16__destroy_vectorEEENS_28__exception_guard_exceptionsIT_EESB_, symObjAddr: 0x94B6C, symBinAddr: 0x100097C5C, symSize: 0x40 }
  - { offsetInCU: 0xACEF5, offset: 0xACEF5, size: 0x8, addend: 0x0, symName: __ZNSt3__130__uninitialized_allocator_copyB7v160006INS_9allocatorINS_4pairImPKcEEEEPS5_S7_S7_EET2_RT_T0_T1_S8_, symObjAddr: 0x94D84, symBinAddr: 0x100097E74, symSize: 0xF4 }
  - { offsetInCU: 0xACF94, offset: 0xACF94, size: 0x8, addend: 0x0, symName: __ZNSt3__122__make_exception_guardB7v160006INS_29_AllocatorDestroyRangeReverseINS_9allocatorINS_4pairImPKcEEEEPS6_EEEENS_28__exception_guard_exceptionsIT_EESB_, symObjAddr: 0x94E78, symBinAddr: 0x100097F68, symSize: 0x4C }
  - { offsetInCU: 0xACFCB, offset: 0xACFCB, size: 0x8, addend: 0x0, symName: __ZNSt3__119__allocator_destroyB7v160006INS_9allocatorINS_4pairImPKcEEEENS_16reverse_iteratorIPS5_EES9_EEvRT_T0_T1_, symObjAddr: 0x95100, symBinAddr: 0x1000981F0, symSize: 0x70 }
  - { offsetInCU: 0xAD02F, offset: 0xAD02F, size: 0x8, addend: 0x0, symName: __ZNSt3__118__debug_db_erase_cB7v160006INS_6vectorINS_7__stateIcEENS_9allocatorIS3_EEEEEEvPT_, symObjAddr: 0x952F4, symBinAddr: 0x1000983E4, symSize: 0x10 }
  - { offsetInCU: 0xAD061, offset: 0xAD061, size: 0x8, addend: 0x0, symName: __ZNSt3__119__throw_regex_errorB7v160006ILNS_15regex_constants10error_typeE11EEEvv, symObjAddr: 0x95984, symBinAddr: 0x100098A74, symSize: 0x60 }
  - { offsetInCU: 0xAD0FB, offset: 0xAD0FB, size: 0x8, addend: 0x0, symName: __ZNSt3__119__throw_regex_errorB7v160006ILNS_15regex_constants10error_typeE3EEEvv, symObjAddr: 0x95D10, symBinAddr: 0x100098E00, symSize: 0x60 }
  - { offsetInCU: 0xAD121, offset: 0xAD121, size: 0x8, addend: 0x0, symName: __ZNSt3__119__throw_regex_errorB7v160006ILNS_15regex_constants10error_typeE4EEEvv, symObjAddr: 0x96B10, symBinAddr: 0x100099C00, symSize: 0x60 }
  - { offsetInCU: 0xAD562, offset: 0xAD562, size: 0x8, addend: 0x0, symName: __ZNSt3__15equalB7v160006IPKcS2_EEbT_S3_T0_, symObjAddr: 0x97C8C, symBinAddr: 0x10009AD7C, symSize: 0x38 }
  - { offsetInCU: 0xAD5C0, offset: 0xAD5C0, size: 0x8, addend: 0x0, symName: __ZNSt3__15equalB7v160006IPKcS2_NS_10__equal_toEEEbT_S4_T0_T1_, symObjAddr: 0x97CC4, symBinAddr: 0x10009ADB4, symSize: 0xA8 }
  - { offsetInCU: 0xAD636, offset: 0xAD636, size: 0x8, addend: 0x0, symName: __ZNSt3__119__debug_db_insert_cB7v160006INS_6vectorIcNS_9allocatorIcEEEEEEvPT_, symObjAddr: 0x98CD8, symBinAddr: 0x10009BDC8, symSize: 0x10 }
  - { offsetInCU: 0xAD669, offset: 0xAD669, size: 0x8, addend: 0x0, symName: __ZNSt3__119__debug_db_insert_cB7v160006INS_6vectorINS_4pairINS_12basic_stringIcNS_11char_traitsIcEENS_9allocatorIcEEEES8_EENS6_IS9_EEEEEEvPT_, symObjAddr: 0x98DD8, symBinAddr: 0x10009BEC8, symSize: 0x10 }
  - { offsetInCU: 0xAD69C, offset: 0xAD69C, size: 0x8, addend: 0x0, symName: __ZNSt3__119__debug_db_insert_cB7v160006INS_6vectorINS_4pairIccEENS_9allocatorIS3_EEEEEEvPT_, symObjAddr: 0x98F44, symBinAddr: 0x10009C034, symSize: 0x10 }
  - { offsetInCU: 0xAD6CF, offset: 0xAD6CF, size: 0x8, addend: 0x0, symName: __ZNSt3__118__debug_db_erase_cB7v160006INS_6vectorINS_4pairIccEENS_9allocatorIS3_EEEEEEvPT_, symObjAddr: 0x99208, symBinAddr: 0x10009C2F8, symSize: 0x10 }
  - { offsetInCU: 0xAD702, offset: 0xAD702, size: 0x8, addend: 0x0, symName: __ZNSt3__112__to_addressB7v160006INS_4pairIccEEEEPT_S4_, symObjAddr: 0x9934C, symBinAddr: 0x10009C43C, symSize: 0x14 }
  - { offsetInCU: 0xAD739, offset: 0xAD739, size: 0x8, addend: 0x0, symName: __ZNSt3__118__debug_db_erase_cB7v160006INS_6vectorINS_4pairINS_12basic_stringIcNS_11char_traitsIcEENS_9allocatorIcEEEES8_EENS6_IS9_EEEEEEvPT_, symObjAddr: 0x9970C, symBinAddr: 0x10009C7FC, symSize: 0x10 }
  - { offsetInCU: 0xAD76C, offset: 0xAD76C, size: 0x8, addend: 0x0, symName: __ZNSt3__112__to_addressB7v160006INS_4pairINS_12basic_stringIcNS_11char_traitsIcEENS_9allocatorIcEEEES7_EEEEPT_SA_, symObjAddr: 0x99850, symBinAddr: 0x10009C940, symSize: 0x14 }
  - { offsetInCU: 0xAD7A3, offset: 0xAD7A3, size: 0x8, addend: 0x0, symName: __ZNSt3__118__debug_db_erase_cB7v160006INS_6vectorIcNS_9allocatorIcEEEEEEvPT_, symObjAddr: 0x99C70, symBinAddr: 0x10009CD60, symSize: 0x10 }
  - { offsetInCU: 0xAD7D5, offset: 0xAD7D5, size: 0x8, addend: 0x0, symName: __ZNSt3__1eqB7v160006IccEEbRKNS_4pairIT_T0_EES6_, symObjAddr: 0x99F80, symBinAddr: 0x10009D070, symSize: 0x64 }
  - { offsetInCU: 0xAD824, offset: 0xAD824, size: 0x8, addend: 0x0, symName: __ZNSt3__1leB7v160006IcNS_11char_traitsIcEENS_9allocatorIcEEEEbRKNS_12basic_stringIT_T0_T1_EESB_, symObjAddr: 0x9A120, symBinAddr: 0x10009D210, symSize: 0x34 }
  - { offsetInCU: 0xAD87D, offset: 0xAD87D, size: 0x8, addend: 0x0, symName: __ZNSt3__14findB7v160006INS_11__wrap_iterIPKcEEcEET_S5_S5_RKT0_, symObjAddr: 0x9A20C, symBinAddr: 0x10009D2FC, symSize: 0x80 }
  - { offsetInCU: 0xAD8DB, offset: 0xAD8DB, size: 0x8, addend: 0x0, symName: __ZNSt3__18distanceB7v160006IPcEENS_15iterator_traitsIT_E15difference_typeES3_S3_, symObjAddr: 0x9A728, symBinAddr: 0x10009D818, symSize: 0x2C }
  - { offsetInCU: 0xAD921, offset: 0xAD921, size: 0x8, addend: 0x0, symName: __ZNSt3__119__allocate_at_leastB7v160006INS_9allocatorIcEEEENS_19__allocation_resultINS_16allocator_traitsIT_E7pointerEEERS5_m, symObjAddr: 0x9A754, symBinAddr: 0x10009D844, symSize: 0x40 }
  - { offsetInCU: 0xAD967, offset: 0xAD967, size: 0x8, addend: 0x0, symName: __ZNSt3__110__distanceB7v160006IPcEENS_15iterator_traitsIT_E15difference_typeES3_S3_NS_26random_access_iterator_tagE, symObjAddr: 0x9A794, symBinAddr: 0x10009D884, symSize: 0x20 }
  - { offsetInCU: 0xAD9B7, offset: 0xAD9B7, size: 0x8, addend: 0x0, symName: __ZNSt3__142__uninitialized_allocator_move_if_noexceptB7v160006INS_9allocatorIcEENS_16reverse_iteratorIPcEES5_cvEET1_RT_T0_S9_S6_, symObjAddr: 0x9B2DC, symBinAddr: 0x10009E3CC, symSize: 0x78 }
  - { offsetInCU: 0xADA35, offset: 0xADA35, size: 0x8, addend: 0x0, symName: __ZNSt3__14swapB7v160006IPcEENS_9enable_ifIXaasr21is_move_constructibleIT_EE5valuesr18is_move_assignableIS3_EE5valueEvE4typeERS3_S6_, symObjAddr: 0x9B3A0, symBinAddr: 0x10009E490, symSize: 0x3C }
  - { offsetInCU: 0xADA8A, offset: 0xADA8A, size: 0x8, addend: 0x0, symName: __ZNSt3__125__debug_db_invalidate_allB7v160006INS_6vectorIcNS_9allocatorIcEEEEEEvPT_, symObjAddr: 0x9B488, symBinAddr: 0x10009E578, symSize: 0x10 }
  - { offsetInCU: 0xADABD, offset: 0xADABD, size: 0x8, addend: 0x0, symName: __ZNSt3__14moveB7v160006INS_16reverse_iteratorIPcEES3_EET0_T_S5_S4_, symObjAddr: 0x9B498, symBinAddr: 0x10009E588, symSize: 0x78 }
  - { offsetInCU: 0xADB1B, offset: 0xADB1B, size: 0x8, addend: 0x0, symName: __ZNSt3__16__moveB7v160006INS_17_ClassicAlgPolicyENS_16reverse_iteratorIPcEES4_S4_EENS_4pairIT0_T2_EES6_T1_S7_, symObjAddr: 0x9B510, symBinAddr: 0x10009E600, symSize: 0x64 }
  - { offsetInCU: 0xADB8B, offset: 0xADB8B, size: 0x8, addend: 0x0, symName: __ZNSt3__123__dispatch_copy_or_moveB7v160006INS_17_ClassicAlgPolicyENS_11__move_loopIS1_EENS_14__move_trivialENS_16reverse_iteratorIPcEES7_S7_EENS_4pairIT2_T4_EES9_T3_SA_, symObjAddr: 0x9B574, symBinAddr: 0x10009E664, symSize: 0x64 }
  - { offsetInCU: 0xADC0D, offset: 0xADC0D, size: 0x8, addend: 0x0, symName: __ZNSt3__121__unwrap_and_dispatchB7v160006INS_10__overloadINS_11__move_loopINS_17_ClassicAlgPolicyEEENS_14__move_trivialEEENS_16reverse_iteratorIPcEES9_S9_Li0EEENS_4pairIT0_T2_EESB_T1_SC_, symObjAddr: 0x9B5D8, symBinAddr: 0x10009E6C8, symSize: 0x12C }
  - { offsetInCU: 0xADCA4, offset: 0xADCA4, size: 0x8, addend: 0x0, symName: __ZNSt3__114__unwrap_rangeB7v160006INS_16reverse_iteratorIPcEES3_EENS_4pairIT0_S5_EET_S7_, symObjAddr: 0x9B704, symBinAddr: 0x10009E7F4, symSize: 0x84 }
  - { offsetInCU: 0xADDCE, offset: 0xADDCE, size: 0x8, addend: 0x0, symName: __ZNSt3__113__unwrap_iterB7v160006INS_16reverse_iteratorIPcEENS_18__unwrap_iter_implIS3_Lb0EEELi0EEEDTclsrT0_8__unwrapclsr3stdE7declvalIT_EEEES7_, symObjAddr: 0x9B828, symBinAddr: 0x10009E918, symSize: 0x44 }
  - { offsetInCU: 0xADE14, offset: 0xADE14, size: 0x8, addend: 0x0, symName: __ZNSt3__19make_pairB7v160006INS_16reverse_iteratorIPcEES3_EENS_4pairINS_18__unwrap_ref_decayIT_E4typeENS5_IT0_E4typeEEEOS6_OS9_, symObjAddr: 0x9B86C, symBinAddr: 0x10009E95C, symSize: 0x38 }
  - { offsetInCU: 0xADE64, offset: 0xADE64, size: 0x8, addend: 0x0, symName: __ZNSt3__114__rewrap_rangeB7v160006INS_16reverse_iteratorIPcEES3_EET_S4_T0_, symObjAddr: 0x9B8A4, symBinAddr: 0x10009E994, symSize: 0x5C }
  - { offsetInCU: 0xADEB3, offset: 0xADEB3, size: 0x8, addend: 0x0, symName: __ZNSt3__113__rewrap_iterB7v160006INS_16reverse_iteratorIPcEES3_NS_18__unwrap_iter_implIS3_Lb0EEEEET_S6_T0_, symObjAddr: 0x9B900, symBinAddr: 0x10009E9F0, symSize: 0x74 }
  - { offsetInCU: 0xADF0B, offset: 0xADF0B, size: 0x8, addend: 0x0, symName: __ZNSt3__1neB7v160006IPcS1_EEbRKNS_16reverse_iteratorIT_EERKNS2_IT0_EE, symObjAddr: 0x9B974, symBinAddr: 0x10009EA64, symSize: 0x48 }
  - { offsetInCU: 0xADFCD, offset: 0xADFCD, size: 0x8, addend: 0x0, symName: __ZNSt3__119__debug_db_insert_iB7v160006INS_11__wrap_iterIPKcEEEEvPT_, symObjAddr: 0x9BF58, symBinAddr: 0x10009F048, symSize: 0x10 }
  - { offsetInCU: 0xADFFF, offset: 0xADFFF, size: 0x8, addend: 0x0, symName: __ZNSt3__17__is_07B7v160006Eh, symObjAddr: 0x9C080, symBinAddr: 0x10009F170, symSize: 0x24 }
  - { offsetInCU: 0xAE02D, offset: 0xAE02D, size: 0x8, addend: 0x0, symName: __ZNSt3__17__is_89B7v160006Eh, symObjAddr: 0x9C0A4, symBinAddr: 0x10009F194, symSize: 0x24 }
  - { offsetInCU: 0xAE05B, offset: 0xAE05B, size: 0x8, addend: 0x0, symName: __ZNSt3__110__to_lowerB7v160006Eh, symObjAddr: 0x9C0C8, symBinAddr: 0x10009F1B8, symSize: 0x1C }
  - { offsetInCU: 0xAE089, offset: 0xAE089, size: 0x8, addend: 0x0, symName: __ZNSt3__119__throw_regex_errorB7v160006ILNS_15regex_constants10error_typeE5EEEvv, symObjAddr: 0x9C0E4, symBinAddr: 0x10009F1D4, symSize: 0x60 }
  - { offsetInCU: 0xAE0B0, offset: 0xAE0B0, size: 0x8, addend: 0x0, symName: __ZNSt3__16searchB7v160006INS_11__wrap_iterIPKcEEPcEET_S6_S6_T0_S7_, symObjAddr: 0x9DD2C, symBinAddr: 0x1000A0E1C, symSize: 0x54 }
  - { offsetInCU: 0xAE11C, offset: 0xAE11C, size: 0x8, addend: 0x0, symName: __ZNSt3__119__throw_regex_errorB7v160006ILNS_15regex_constants10error_typeE1EEEvv, symObjAddr: 0x9DDD0, symBinAddr: 0x1000A0EC0, symSize: 0x60 }
  - { offsetInCU: 0xAE143, offset: 0xAE143, size: 0x8, addend: 0x0, symName: __ZNSt3__16searchB7v160006INS_11__wrap_iterIPKcEEPcNS_10__equal_toEEET_S7_S7_T0_S8_T1_, symObjAddr: 0x9DEB0, symBinAddr: 0x1000A0FA0, symSize: 0x7C }
  - { offsetInCU: 0xAE1D7, offset: 0xAE1D7, size: 0x8, addend: 0x0, symName: __ZNSt3__113__search_implB7v160006INS_11__wrap_iterIPKcEES4_PcS5_NS_10__equal_toENS_10__identityES7_EENS_4pairIT_S9_EES9_T0_T1_T2_RT3_RT4_RT5_PNS_9enable_ifIXaasr33__is_cpp17_random_access_iteratorIS9_EE5valuesr33__is_cpp17_random_access_iteratorISC_EE5valueEvE4typeE, symObjAddr: 0x9DF2C, symBinAddr: 0x1000A101C, symSize: 0x108 }
  - { offsetInCU: 0xAE2C7, offset: 0xAE2C7, size: 0x8, addend: 0x0, symName: __ZNSt3__19make_pairB7v160006IRNS_11__wrap_iterIPKcEES5_EENS_4pairINS_18__unwrap_ref_decayIT_E4typeENS7_IT0_E4typeEEEOS8_OSB_, symObjAddr: 0x9E034, symBinAddr: 0x1000A1124, symSize: 0x38 }
  - { offsetInCU: 0xAE317, offset: 0xAE317, size: 0x8, addend: 0x0, symName: __ZNSt3__1miB7v160006IPKcS2_EEDTmicldtfp_4baseEcldtfp0_4baseEERKNS_11__wrap_iterIT_EERKNS4_IT0_EE, symObjAddr: 0x9E06C, symBinAddr: 0x1000A115C, symSize: 0x40 }
  - { offsetInCU: 0xAE366, offset: 0xAE366, size: 0x8, addend: 0x0, symName: __ZNSt3__127__search_random_access_implB7v160006INS_17_ClassicAlgPolicyENS_11__wrap_iterIPKcEES5_PcS6_NS_10__equal_toENS_10__identityES8_llEENS_4pairIT0_SA_EESA_T1_T2_T3_RT4_RT5_RT6_T7_T8_, symObjAddr: 0x9E0AC, symBinAddr: 0x1000A119C, symSize: 0x1F0 }
  - { offsetInCU: 0xAE4A6, offset: 0xAE4A6, size: 0x8, addend: 0x0, symName: __ZNSt3__18__invokeB7v160006IRNS_10__equal_toEJRKcRcEEEDTclclsr3stdE7declvalIT_EEspclsr3stdE7declvalIT0_EEEEOS6_DpOS7_, symObjAddr: 0x9E3A4, symBinAddr: 0x1000A1494, symSize: 0x38 }
  - { offsetInCU: 0xAE50E, offset: 0xAE50E, size: 0x8, addend: 0x0, symName: __ZNSt3__18__invokeB7v160006IRNS_10__identityEJRKcEEEDTclclsr3stdE7declvalIT_EEspclsr3stdE7declvalIT0_EEEEOS5_DpOS6_, symObjAddr: 0x9E3DC, symBinAddr: 0x1000A14CC, symSize: 0x2C }
  - { offsetInCU: 0xAE561, offset: 0xAE561, size: 0x8, addend: 0x0, symName: __ZNSt3__18__invokeB7v160006IRNS_10__identityEJRcEEEDTclclsr3stdE7declvalIT_EEspclsr3stdE7declvalIT0_EEEEOS4_DpOS5_, symObjAddr: 0x9E408, symBinAddr: 0x1000A14F8, symSize: 0x2C }
  - { offsetInCU: 0xAE5B4, offset: 0xAE5B4, size: 0x8, addend: 0x0, symName: __ZNSt3__19make_pairB7v160006IRNS_11__wrap_iterIPKcEES4_EENS_4pairINS_18__unwrap_ref_decayIT_E4typeENS7_IT0_E4typeEEEOS8_OSB_, symObjAddr: 0x9E434, symBinAddr: 0x1000A1524, symSize: 0x38 }
  - { offsetInCU: 0xAE657, offset: 0xAE657, size: 0x8, addend: 0x0, symName: __ZNSt3__18distanceB7v160006INS_11__wrap_iterIPKcEEEENS_15iterator_traitsIT_E15difference_typeES6_S6_, symObjAddr: 0x9E94C, symBinAddr: 0x1000A1A3C, symSize: 0x3C }
  - { offsetInCU: 0xAE69D, offset: 0xAE69D, size: 0x8, addend: 0x0, symName: __ZNSt3__110__distanceB7v160006INS_11__wrap_iterIPKcEEEENS_15iterator_traitsIT_E15difference_typeES6_S6_NS_26random_access_iterator_tagE, symObjAddr: 0x9E988, symBinAddr: 0x1000A1A78, symSize: 0x30 }
  - { offsetInCU: 0xAE6EE, offset: 0xAE6EE, size: 0x8, addend: 0x0, symName: __ZNSt3__18distanceB7v160006INS_11__wrap_iterIPcEEEENS_15iterator_traitsIT_E15difference_typeES5_S5_, symObjAddr: 0x9ED74, symBinAddr: 0x1000A1E64, symSize: 0x3C }
  - { offsetInCU: 0xAE734, offset: 0xAE734, size: 0x8, addend: 0x0, symName: __ZNSt3__110__distanceB7v160006INS_11__wrap_iterIPcEEEENS_15iterator_traitsIT_E15difference_typeES5_S5_NS_26random_access_iterator_tagE, symObjAddr: 0x9EDB0, symBinAddr: 0x1000A1EA0, symSize: 0x30 }
  - { offsetInCU: 0xAE785, offset: 0xAE785, size: 0x8, addend: 0x0, symName: __ZNSt3__1miB7v160006IPcS1_EEDTmicldtfp_4baseEcldtfp0_4baseEERKNS_11__wrap_iterIT_EERKNS3_IT0_EE, symObjAddr: 0x9EDE0, symBinAddr: 0x1000A1ED0, symSize: 0x40 }
  - { offsetInCU: 0xAE7D3, offset: 0xAE7D3, size: 0x8, addend: 0x0, symName: __ZNSt3__119__throw_regex_errorB7v160006ILNS_15regex_constants10error_typeE2EEEvv, symObjAddr: 0x9EE7C, symBinAddr: 0x1000A1F6C, symSize: 0x60 }
  - { offsetInCU: 0xAE7F9, offset: 0xAE7F9, size: 0x8, addend: 0x0, symName: __ZNSt3__19make_pairB7v160006INS_12basic_stringIcNS_11char_traitsIcEENS_9allocatorIcEEEES6_EENS_4pairINS_18__unwrap_ref_decayIT_E4typeENS8_IT0_E4typeEEEOS9_OSC_, symObjAddr: 0x9F19C, symBinAddr: 0x1000A228C, symSize: 0x40 }
  - { offsetInCU: 0xAE848, offset: 0xAE848, size: 0x8, addend: 0x0, symName: __ZNSt3__119__throw_regex_errorB7v160006ILNS_15regex_constants10error_typeE9EEEvv, symObjAddr: 0x9F2DC, symBinAddr: 0x1000A23CC, symSize: 0x60 }
  - { offsetInCU: 0xAE86F, offset: 0xAE86F, size: 0x8, addend: 0x0, symName: __ZNSt3__119__allocate_at_leastB7v160006INS_9allocatorINS_4pairINS_12basic_stringIcNS_11char_traitsIcEENS1_IcEEEES7_EEEEEENS_19__allocation_resultINS_16allocator_traitsIT_E7pointerEEERSC_m, symObjAddr: 0x9FB28, symBinAddr: 0x1000A2C18, symSize: 0x40 }
  - { offsetInCU: 0xAE8B4, offset: 0xAE8B4, size: 0x8, addend: 0x0, symName: __ZNSt3__142__uninitialized_allocator_move_if_noexceptB7v160006INS_9allocatorINS_4pairINS_12basic_stringIcNS_11char_traitsIcEENS1_IcEEEES7_EEEENS_16reverse_iteratorIPS8_EESC_SC_EET2_RT_T0_T1_SD_, symObjAddr: 0x9FCE0, symBinAddr: 0x1000A2DD0, symSize: 0x12C }
  - { offsetInCU: 0xAE955, offset: 0xAE955, size: 0x8, addend: 0x0, symName: __ZNSt3__14swapB7v160006IPNS_4pairINS_12basic_stringIcNS_11char_traitsIcEENS_9allocatorIcEEEES7_EEEENS_9enable_ifIXaasr21is_move_constructibleIT_EE5valuesr18is_move_assignableISB_EE5valueEvE4typeERSB_SE_, symObjAddr: 0x9FE58, symBinAddr: 0x1000A2F48, symSize: 0x3C }
  - { offsetInCU: 0xAE9AA, offset: 0xAE9AA, size: 0x8, addend: 0x0, symName: __ZNSt3__125__debug_db_invalidate_allB7v160006INS_6vectorINS_4pairINS_12basic_stringIcNS_11char_traitsIcEENS_9allocatorIcEEEES8_EENS6_IS9_EEEEEEvPT_, symObjAddr: 0x9FF5C, symBinAddr: 0x1000A304C, symSize: 0x10 }
  - { offsetInCU: 0xAE9DD, offset: 0xAE9DD, size: 0x8, addend: 0x0, symName: __ZNSt3__122__make_exception_guardB7v160006INS_29_AllocatorDestroyRangeReverseINS_9allocatorINS_4pairINS_12basic_stringIcNS_11char_traitsIcEENS2_IcEEEES8_EEEENS_16reverse_iteratorIPS9_EEEEEENS_28__exception_guard_exceptionsIT_EESG_, symObjAddr: 0x9FF6C, symBinAddr: 0x1000A305C, symSize: 0x4C }
  - { offsetInCU: 0xAEA15, offset: 0xAEA15, size: 0x8, addend: 0x0, symName: __ZNSt3__1neB7v160006IPNS_4pairINS_12basic_stringIcNS_11char_traitsIcEENS_9allocatorIcEEEES7_EES9_EEbRKNS_16reverse_iteratorIT_EERKNSA_IT0_EE, symObjAddr: 0x9FFFC, symBinAddr: 0x1000A30EC, symSize: 0x48 }
  - { offsetInCU: 0xAEA64, offset: 0xAEA64, size: 0x8, addend: 0x0, symName: __ZNSt3__112__to_addressB7v160006INS_16reverse_iteratorIPNS_4pairINS_12basic_stringIcNS_11char_traitsIcEENS_9allocatorIcEEEES8_EEEEvEENS_5decayIDTclsr19__to_address_helperIT_EE6__callclsr3stdE7declvalIRKSD_EEEEE4typeESF_, symObjAddr: 0xA0044, symBinAddr: 0x1000A3134, symSize: 0x24 }
  - { offsetInCU: 0xAEAC6, offset: 0xAEAC6, size: 0x8, addend: 0x0, symName: __ZNSt3__119__allocator_destroyB7v160006INS_9allocatorINS_4pairINS_12basic_stringIcNS_11char_traitsIcEENS1_IcEEEES7_EEEENS_16reverse_iteratorINSA_IPS8_EEEESD_EEvRT_T0_T1_, symObjAddr: 0xA02F4, symBinAddr: 0x1000A33E4, symSize: 0x70 }
  - { offsetInCU: 0xAEB2C, offset: 0xAEB2C, size: 0x8, addend: 0x0, symName: __ZNSt3__1neB7v160006INS_16reverse_iteratorIPNS_4pairINS_12basic_stringIcNS_11char_traitsIcEENS_9allocatorIcEEEES8_EEEESB_EEbRKNS1_IT_EERKNS1_IT0_EE, symObjAddr: 0xA03A0, symBinAddr: 0x1000A3490, symSize: 0x60 }
  - { offsetInCU: 0xAEB7B, offset: 0xAEB7B, size: 0x8, addend: 0x0, symName: __ZNSt3__112__to_addressB7v160006INS_16reverse_iteratorINS1_IPNS_4pairINS_12basic_stringIcNS_11char_traitsIcEENS_9allocatorIcEEEES8_EEEEEEvEENS_5decayIDTclsr19__to_address_helperIT_EE6__callclsr3stdE7declvalIRKSE_EEEEE4typeESG_, symObjAddr: 0xA0400, symBinAddr: 0x1000A34F0, symSize: 0x24 }
  - { offsetInCU: 0xAEBDD, offset: 0xAEBDD, size: 0x8, addend: 0x0, symName: __ZNSt3__19make_pairB7v160006IccEENS_4pairINS_18__unwrap_ref_decayIT_E4typeENS2_IT0_E4typeEEEOS3_OS6_, symObjAddr: 0xA0858, symBinAddr: 0x1000A3948, symSize: 0x34 }
  - { offsetInCU: 0xAEC2C, offset: 0xAEC2C, size: 0x8, addend: 0x0, symName: __ZNSt3__19make_pairB7v160006IRcS1_EENS_4pairINS_18__unwrap_ref_decayIT_E4typeENS3_IT0_E4typeEEEOS4_OS7_, symObjAddr: 0xA088C, symBinAddr: 0x1000A397C, symSize: 0x34 }
  - { offsetInCU: 0xAEC7C, offset: 0xAEC7C, size: 0x8, addend: 0x0, symName: __ZNSt3__119__allocate_at_leastB7v160006INS_9allocatorINS_4pairIccEEEEEENS_19__allocation_resultINS_16allocator_traitsIT_E7pointerEEERS7_m, symObjAddr: 0xA1010, symBinAddr: 0x1000A4100, symSize: 0x40 }
  - { offsetInCU: 0xAECC1, offset: 0xAECC1, size: 0x8, addend: 0x0, symName: __ZNSt3__142__uninitialized_allocator_move_if_noexceptB7v160006INS_9allocatorINS_4pairIccEEEENS_16reverse_iteratorIPS3_EES7_S7_EET2_RT_T0_T1_S8_, symObjAddr: 0xA11C4, symBinAddr: 0x1000A42B4, symSize: 0x12C }
  - { offsetInCU: 0xAED62, offset: 0xAED62, size: 0x8, addend: 0x0, symName: __ZNSt3__14swapB7v160006IPNS_4pairIccEEEENS_9enable_ifIXaasr21is_move_constructibleIT_EE5valuesr18is_move_assignableIS5_EE5valueEvE4typeERS5_S8_, symObjAddr: 0xA133C, symBinAddr: 0x1000A442C, symSize: 0x3C }
  - { offsetInCU: 0xAEDB7, offset: 0xAEDB7, size: 0x8, addend: 0x0, symName: __ZNSt3__125__debug_db_invalidate_allB7v160006INS_6vectorINS_4pairIccEENS_9allocatorIS3_EEEEEEvPT_, symObjAddr: 0xA1424, symBinAddr: 0x1000A4514, symSize: 0x10 }
  - { offsetInCU: 0xAEDEA, offset: 0xAEDEA, size: 0x8, addend: 0x0, symName: __ZNSt3__122__make_exception_guardB7v160006INS_29_AllocatorDestroyRangeReverseINS_9allocatorINS_4pairIccEEEENS_16reverse_iteratorIPS4_EEEEEENS_28__exception_guard_exceptionsIT_EESB_, symObjAddr: 0xA1434, symBinAddr: 0x1000A4524, symSize: 0x4C }
  - { offsetInCU: 0xAEE22, offset: 0xAEE22, size: 0x8, addend: 0x0, symName: __ZNSt3__1neB7v160006IPNS_4pairIccEES3_EEbRKNS_16reverse_iteratorIT_EERKNS4_IT0_EE, symObjAddr: 0xA14C4, symBinAddr: 0x1000A45B4, symSize: 0x48 }
  - { offsetInCU: 0xAEE71, offset: 0xAEE71, size: 0x8, addend: 0x0, symName: __ZNSt3__112__to_addressB7v160006INS_16reverse_iteratorIPNS_4pairIccEEEEvEENS_5decayIDTclsr19__to_address_helperIT_EE6__callclsr3stdE7declvalIRKS7_EEEEE4typeES9_, symObjAddr: 0xA150C, symBinAddr: 0x1000A45FC, symSize: 0x24 }
  - { offsetInCU: 0xAEED3, offset: 0xAEED3, size: 0x8, addend: 0x0, symName: __ZNSt3__119__allocator_destroyB7v160006INS_9allocatorINS_4pairIccEEEENS_16reverse_iteratorINS5_IPS3_EEEES8_EEvRT_T0_T1_, symObjAddr: 0xA17BC, symBinAddr: 0x1000A48AC, symSize: 0x70 }
  - { offsetInCU: 0xAEF39, offset: 0xAEF39, size: 0x8, addend: 0x0, symName: __ZNSt3__1neB7v160006INS_16reverse_iteratorIPNS_4pairIccEEEES5_EEbRKNS1_IT_EERKNS1_IT0_EE, symObjAddr: 0xA1868, symBinAddr: 0x1000A4958, symSize: 0x60 }
  - { offsetInCU: 0xAEF88, offset: 0xAEF88, size: 0x8, addend: 0x0, symName: __ZNSt3__112__to_addressB7v160006INS_16reverse_iteratorINS1_IPNS_4pairIccEEEEEEvEENS_5decayIDTclsr19__to_address_helperIT_EE6__callclsr3stdE7declvalIRKS8_EEEEE4typeESA_, symObjAddr: 0xA18C8, symBinAddr: 0x1000A49B8, symSize: 0x24 }
  - { offsetInCU: 0xAF0F6, offset: 0xAF0F6, size: 0x8, addend: 0x0, symName: __ZNSt3__119__throw_regex_errorB7v160006ILNS_15regex_constants10error_typeE8EEEvv, symObjAddr: 0xA24EC, symBinAddr: 0x1000A55DC, symSize: 0x60 }
  - { offsetInCU: 0xAF11C, offset: 0xAF11C, size: 0x8, addend: 0x0, symName: __ZNSt3__119__throw_regex_errorB7v160006ILNS_15regex_constants10error_typeE7EEEvv, symObjAddr: 0xA254C, symBinAddr: 0x1000A563C, symSize: 0x60 }
  - { offsetInCU: 0xAFAB9, offset: 0xAFAB9, size: 0x8, addend: 0x0, symName: __ZNSt3__119__throw_regex_errorB7v160006ILNS_15regex_constants10error_typeE15EEEvv, symObjAddr: 0xA35A8, symBinAddr: 0x1000A6698, symSize: 0x60 }
  - { offsetInCU: 0xAFB53, offset: 0xAFB53, size: 0x8, addend: 0x0, symName: __ZNSt3__111regex_matchB7v160006INS_11__wrap_iterIPKcEEcNS_12regex_traitsIcEEEEbT_S7_RKNS_11basic_regexIT0_T1_EENS_15regex_constants15match_flag_typeE, symObjAddr: 0xA507C, symBinAddr: 0x1000A816C, symSize: 0xA0 }
  - { offsetInCU: 0xAFEEC, offset: 0xAFEEC, size: 0x8, addend: 0x0, symName: __ZNSt3__111regex_matchB7v160006INS_11__wrap_iterIPKcEENS_9allocatorINS_9sub_matchIS4_EEEEcNS_12regex_traitsIcEEEEbT_SB_RNS_13match_resultsISB_T0_EERKNS_11basic_regexIT1_T2_EENS_15regex_constants15match_flag_typeE, symObjAddr: 0xA515C, symBinAddr: 0x1000A824C, symSize: 0xD0 }
  - { offsetInCU: 0xAFF96, offset: 0xAFF96, size: 0x8, addend: 0x0, symName: __ZNSt3__119__debug_db_insert_cB7v160006INS_6vectorINS_9sub_matchINS_11__wrap_iterIPKcEEEENS_9allocatorIS7_EEEEEEvPT_, symObjAddr: 0xA54B4, symBinAddr: 0x1000A85A4, symSize: 0x10 }
  - { offsetInCU: 0xAFFC9, offset: 0xAFFC9, size: 0x8, addend: 0x0, symName: __ZNSt3__118__debug_db_erase_cB7v160006INS_6vectorINS_9sub_matchINS_11__wrap_iterIPKcEEEENS_9allocatorIS7_EEEEEEvPT_, symObjAddr: 0xA57AC, symBinAddr: 0x1000A889C, symSize: 0x10 }
  - { offsetInCU: 0xAFFFC, offset: 0xAFFFC, size: 0x8, addend: 0x0, symName: __ZNSt3__112__to_addressB7v160006INS_9sub_matchINS_11__wrap_iterIPKcEEEEEEPT_S8_, symObjAddr: 0xA58F0, symBinAddr: 0x1000A89E0, symSize: 0x14 }
  - { offsetInCU: 0xB0032, offset: 0xB0032, size: 0x8, addend: 0x0, symName: __ZNSt3__112regex_searchB7v160006IPKcNS_9allocatorINS_9sub_matchINS_11__wrap_iterIS2_EEEEEEcNS_12regex_traitsIcEEEEbNS5_IT_EESC_RNS_13match_resultsISC_T0_EERKNS_11basic_regexIT1_T2_EENS_15regex_constants15match_flag_typeE, symObjAddr: 0xA5AAC, symBinAddr: 0x1000A8B9C, symSize: 0x124 }
  - { offsetInCU: 0xB00E1, offset: 0xB00E1, size: 0x8, addend: 0x0, symName: __ZNSt3__18distanceB7v160006IPKcEENS_15iterator_traitsIT_E15difference_typeES4_S4_, symObjAddr: 0xA7174, symBinAddr: 0x1000AA264, symSize: 0x2C }
  - { offsetInCU: 0xB0127, offset: 0xB0127, size: 0x8, addend: 0x0, symName: __ZNSt3__110__distanceB7v160006IPKcEENS_15iterator_traitsIT_E15difference_typeES4_S4_NS_26random_access_iterator_tagE, symObjAddr: 0xA7824, symBinAddr: 0x1000AA914, symSize: 0x20 }
  - { offsetInCU: 0xB053E, offset: 0xB053E, size: 0x8, addend: 0x0, symName: __ZNSt3__14swapB7v160006IPPNS_7__stateIcEEEENS_9enable_ifIXaasr21is_move_constructibleIT_EE5valuesr18is_move_assignableIS6_EE5valueEvE4typeERS6_S9_, symObjAddr: 0xA8C6C, symBinAddr: 0x1000ABD5C, symSize: 0x3C }
  - { offsetInCU: 0xB0593, offset: 0xB0593, size: 0x8, addend: 0x0, symName: __ZNSt3__14moveB7v160006IPPNS_7__stateIcEES4_EET0_T_S6_S5_, symObjAddr: 0xA8D9C, symBinAddr: 0x1000ABE8C, symSize: 0x40 }
  - { offsetInCU: 0xB05F1, offset: 0xB05F1, size: 0x8, addend: 0x0, symName: __ZNSt3__112__to_addressB7v160006IPNS_7__stateIcEEEEPT_S5_, symObjAddr: 0xA8F40, symBinAddr: 0x1000AC030, symSize: 0x14 }
  - { offsetInCU: 0xB0628, offset: 0xB0628, size: 0x8, addend: 0x0, symName: __ZNSt3__16__moveB7v160006INS_17_ClassicAlgPolicyEPPNS_7__stateIcEES5_S5_EENS_4pairIT0_T2_EES7_T1_S8_, symObjAddr: 0xA8F54, symBinAddr: 0x1000AC044, symSize: 0x44 }
  - { offsetInCU: 0xB0698, offset: 0xB0698, size: 0x8, addend: 0x0, symName: __ZNSt3__123__dispatch_copy_or_moveB7v160006INS_17_ClassicAlgPolicyENS_11__move_loopIS1_EENS_14__move_trivialEPPNS_7__stateIcEES8_S8_EENS_4pairIT2_T4_EESA_T3_SB_, symObjAddr: 0xA8F98, symBinAddr: 0x1000AC088, symSize: 0x44 }
  - { offsetInCU: 0xB071A, offset: 0xB071A, size: 0x8, addend: 0x0, symName: __ZNSt3__121__unwrap_and_dispatchB7v160006INS_10__overloadINS_11__move_loopINS_17_ClassicAlgPolicyEEENS_14__move_trivialEEEPPNS_7__stateIcEESA_SA_Li0EEENS_4pairIT0_T2_EESC_T1_SD_, symObjAddr: 0xA8FDC, symBinAddr: 0x1000AC0CC, symSize: 0xB4 }
  - { offsetInCU: 0xB07AF, offset: 0xB07AF, size: 0x8, addend: 0x0, symName: __ZNSt3__114__unwrap_rangeB7v160006IPPNS_7__stateIcEES4_EENS_4pairIT0_S6_EET_S8_, symObjAddr: 0xA9090, symBinAddr: 0x1000AC180, symSize: 0x60 }
  - { offsetInCU: 0xB09C2, offset: 0xB09C2, size: 0x8, addend: 0x0, symName: __ZNSt3__113__unwrap_iterB7v160006IPPNS_7__stateIcEENS_18__unwrap_iter_implIS4_Lb1EEELi0EEEDTclsrT0_8__unwrapclsr3stdE7declvalIT_EEEES8_, symObjAddr: 0xA9138, symBinAddr: 0x1000AC228, symSize: 0x24 }
  - { offsetInCU: 0xB0A08, offset: 0xB0A08, size: 0x8, addend: 0x0, symName: __ZNSt3__19make_pairB7v160006IPPNS_7__stateIcEES4_EENS_4pairINS_18__unwrap_ref_decayIT_E4typeENS6_IT0_E4typeEEEOS7_OSA_, symObjAddr: 0xA915C, symBinAddr: 0x1000AC24C, symSize: 0x38 }
  - { offsetInCU: 0xB0A58, offset: 0xB0A58, size: 0x8, addend: 0x0, symName: __ZNSt3__114__rewrap_rangeB7v160006IPPNS_7__stateIcEES4_EET_S5_T0_, symObjAddr: 0xA9194, symBinAddr: 0x1000AC284, symSize: 0x2C }
  - { offsetInCU: 0xB0AA7, offset: 0xB0AA7, size: 0x8, addend: 0x0, symName: __ZNSt3__113__rewrap_iterB7v160006IPPNS_7__stateIcEES4_NS_18__unwrap_iter_implIS4_Lb1EEEEET_S7_T0_, symObjAddr: 0xA91C0, symBinAddr: 0x1000AC2B0, symSize: 0x3C }
  - { offsetInCU: 0xB0AFF, offset: 0xB0AFF, size: 0x8, addend: 0x0, symName: __ZNSt3__119__copy_trivial_implB7v160006IPNS_7__stateIcEES3_EENS_4pairIPT_PT0_EES6_S6_S8_, symObjAddr: 0xA91FC, symBinAddr: 0x1000AC2EC, symSize: 0x84 }
  - { offsetInCU: 0xB0B6B, offset: 0xB0B6B, size: 0x8, addend: 0x0, symName: __ZNSt3__19make_pairB7v160006IRPPNS_7__stateIcEES4_EENS_4pairINS_18__unwrap_ref_decayIT_E4typeENS7_IT0_E4typeEEEOS8_OSB_, symObjAddr: 0xA9280, symBinAddr: 0x1000AC370, symSize: 0x38 }
  - { offsetInCU: 0xB0C13, offset: 0xB0C13, size: 0x8, addend: 0x0, symName: __ZNSt3__18distanceB7v160006INS_13move_iteratorIPPNS_7__stateIcEEEEEENS_15iterator_traitsIT_E15difference_typeES8_S8_, symObjAddr: 0xA940C, symBinAddr: 0x1000AC4FC, symSize: 0x3C }
  - { offsetInCU: 0xB0C59, offset: 0xB0C59, size: 0x8, addend: 0x0, symName: __ZNSt3__110__distanceB7v160006INS_13move_iteratorIPPNS_7__stateIcEEEEEENS_15iterator_traitsIT_E15difference_typeES8_S8_NS_26random_access_iterator_tagE, symObjAddr: 0xA9544, symBinAddr: 0x1000AC634, symSize: 0x30 }
  - { offsetInCU: 0xB0CA9, offset: 0xB0CA9, size: 0x8, addend: 0x0, symName: __ZNSt3__1miB7v160006IPPNS_7__stateIcEES4_EEDTmicldtfp_4baseEcldtfp0_4baseEERKNS_13move_iteratorIT_EERKNS6_IT0_EE, symObjAddr: 0xA9574, symBinAddr: 0x1000AC664, symSize: 0x48 }
  - { offsetInCU: 0xB0CF9, offset: 0xB0CF9, size: 0x8, addend: 0x0, symName: __ZNSt3__113move_backwardB7v160006IPPNS_7__stateIcEES4_EET0_T_S6_S5_, symObjAddr: 0xA9748, symBinAddr: 0x1000AC838, symSize: 0x40 }
  - { offsetInCU: 0xB0D57, offset: 0xB0D57, size: 0x8, addend: 0x0, symName: __ZNSt3__115__move_backwardB7v160006INS_17_ClassicAlgPolicyEPPNS_7__stateIcEES5_S5_EENS_4pairIT0_T2_EES7_T1_S8_, symObjAddr: 0xA9788, symBinAddr: 0x1000AC878, symSize: 0x44 }
  - { offsetInCU: 0xB0DC7, offset: 0xB0DC7, size: 0x8, addend: 0x0, symName: __ZNSt3__123__dispatch_copy_or_moveB7v160006INS_17_ClassicAlgPolicyENS_20__move_backward_loopIS1_EENS_23__move_backward_trivialEPPNS_7__stateIcEES8_S8_EENS_4pairIT2_T4_EESA_T3_SB_, symObjAddr: 0xA97CC, symBinAddr: 0x1000AC8BC, symSize: 0x44 }
  - { offsetInCU: 0xB0E49, offset: 0xB0E49, size: 0x8, addend: 0x0, symName: __ZNSt3__121__unwrap_and_dispatchB7v160006INS_10__overloadINS_20__move_backward_loopINS_17_ClassicAlgPolicyEEENS_23__move_backward_trivialEEEPPNS_7__stateIcEESA_SA_Li0EEENS_4pairIT0_T2_EESC_T1_SD_, symObjAddr: 0xA9810, symBinAddr: 0x1000AC900, symSize: 0xB4 }
  - { offsetInCU: 0xB0F65, offset: 0xB0F65, size: 0x8, addend: 0x0, symName: __ZNSt3__128__copy_backward_trivial_implB7v160006IPNS_7__stateIcEES3_EENS_4pairIPT_PT0_EES6_S6_S8_, symObjAddr: 0xA990C, symBinAddr: 0x1000AC9FC, symSize: 0x94 }
  - { offsetInCU: 0xB0FD1, offset: 0xB0FD1, size: 0x8, addend: 0x0, symName: __ZNSt3__19make_pairB7v160006IRPPNS_7__stateIcEES5_EENS_4pairINS_18__unwrap_ref_decayIT_E4typeENS7_IT0_E4typeEEEOS8_OSB_, symObjAddr: 0xA99A0, symBinAddr: 0x1000ACA90, symSize: 0x38 }
  - { offsetInCU: 0xB1021, offset: 0xB1021, size: 0x8, addend: 0x0, symName: __ZNSt3__119__allocate_at_leastB7v160006INS_9allocatorIPNS_7__stateIcEEEEEENS_19__allocation_resultINS_16allocator_traitsIT_E7pointerEEERS8_m, symObjAddr: 0xA9B90, symBinAddr: 0x1000ACC80, symSize: 0x40 }
  - { offsetInCU: 0xB1066, offset: 0xB1066, size: 0x8, addend: 0x0, symName: __ZNSt3__1neB7v160006ERKNS_16__deque_iteratorINS_7__stateIcEEPS2_RS2_PS3_lLl42EEES8_, symObjAddr: 0xAA5B4, symBinAddr: 0x1000AD6A4, symSize: 0x34 }
  - { offsetInCU: 0xB10A3, offset: 0xB10A3, size: 0x8, addend: 0x0, symName: __ZNSt3__1eqB7v160006ERKNS_16__deque_iteratorINS_7__stateIcEEPS2_RS2_PS3_lLl42EEES8_, symObjAddr: 0xAA658, symBinAddr: 0x1000AD748, symSize: 0x30 }
  - { offsetInCU: 0xB10E1, offset: 0xB10E1, size: 0x8, addend: 0x0, symName: __ZNSt3__18distanceB7v160006IPNS_9sub_matchIPKcEEEENS_15iterator_traitsIT_E15difference_typeES7_S7_, symObjAddr: 0xAB428, symBinAddr: 0x1000AE518, symSize: 0x2C }
  - { offsetInCU: 0xB1127, offset: 0xB1127, size: 0x8, addend: 0x0, symName: __ZNSt3__14copyB7v160006IPNS_9sub_matchIPKcEES5_EET0_T_S7_S6_, symObjAddr: 0xAB4A4, symBinAddr: 0x1000AE594, symSize: 0x40 }
  - { offsetInCU: 0xB1185, offset: 0xB1185, size: 0x8, addend: 0x0, symName: __ZNSt3__110__distanceB7v160006IPNS_9sub_matchIPKcEEEENS_15iterator_traitsIT_E15difference_typeES7_S7_NS_26random_access_iterator_tagE, symObjAddr: 0xAB4E4, symBinAddr: 0x1000AE5D4, symSize: 0x28 }
  - { offsetInCU: 0xB11D6, offset: 0xB11D6, size: 0x8, addend: 0x0, symName: __ZNSt3__19__advanceB7v160006IPNS_9sub_matchIPKcEEEEvRT_NS_15iterator_traitsIS6_E15difference_typeENS_26random_access_iterator_tagE, symObjAddr: 0xAB50C, symBinAddr: 0x1000AE5FC, symSize: 0x30 }
  - { offsetInCU: 0xB1223, offset: 0xB1223, size: 0x8, addend: 0x0, symName: __ZNSt3__16__copyB7v160006INS_17_ClassicAlgPolicyEPNS_9sub_matchIPKcEES6_S6_EENS_4pairIT0_T2_EES8_T1_S9_, symObjAddr: 0xAB53C, symBinAddr: 0x1000AE62C, symSize: 0x44 }
  - { offsetInCU: 0xB1293, offset: 0xB1293, size: 0x8, addend: 0x0, symName: __ZNSt3__123__dispatch_copy_or_moveB7v160006INS_17_ClassicAlgPolicyENS_11__copy_loopIS1_EENS_14__copy_trivialEPNS_9sub_matchIPKcEES9_S9_EENS_4pairIT2_T4_EESB_T3_SC_, symObjAddr: 0xAB580, symBinAddr: 0x1000AE670, symSize: 0x44 }
  - { offsetInCU: 0xB1315, offset: 0xB1315, size: 0x8, addend: 0x0, symName: __ZNSt3__121__unwrap_and_dispatchB7v160006INS_10__overloadINS_11__copy_loopINS_17_ClassicAlgPolicyEEENS_14__copy_trivialEEEPNS_9sub_matchIPKcEESB_SB_Li0EEENS_4pairIT0_T2_EESD_T1_SE_, symObjAddr: 0xAB5C4, symBinAddr: 0x1000AE6B4, symSize: 0xB4 }
  - { offsetInCU: 0xB13AA, offset: 0xB13AA, size: 0x8, addend: 0x0, symName: __ZNSt3__114__unwrap_rangeB7v160006IPNS_9sub_matchIPKcEES5_EENS_4pairIT0_S7_EET_S9_, symObjAddr: 0xAB678, symBinAddr: 0x1000AE768, symSize: 0x60 }
  - { offsetInCU: 0xB14D4, offset: 0xB14D4, size: 0x8, addend: 0x0, symName: __ZNSt3__113__unwrap_iterB7v160006IPNS_9sub_matchIPKcEENS_18__unwrap_iter_implIS5_Lb1EEELi0EEEDTclsrT0_8__unwrapclsr3stdE7declvalIT_EEEES9_, symObjAddr: 0xAB760, symBinAddr: 0x1000AE850, symSize: 0x24 }
  - { offsetInCU: 0xB151A, offset: 0xB151A, size: 0x8, addend: 0x0, symName: __ZNSt3__19make_pairB7v160006IPNS_9sub_matchIPKcEES5_EENS_4pairINS_18__unwrap_ref_decayIT_E4typeENS7_IT0_E4typeEEEOS8_OSB_, symObjAddr: 0xAB784, symBinAddr: 0x1000AE874, symSize: 0x38 }
  - { offsetInCU: 0xB156A, offset: 0xB156A, size: 0x8, addend: 0x0, symName: __ZNSt3__114__rewrap_rangeB7v160006IPNS_9sub_matchIPKcEES5_EET_S6_T0_, symObjAddr: 0xAB7BC, symBinAddr: 0x1000AE8AC, symSize: 0x2C }
  - { offsetInCU: 0xB15B9, offset: 0xB15B9, size: 0x8, addend: 0x0, symName: __ZNSt3__113__rewrap_iterB7v160006IPNS_9sub_matchIPKcEES5_NS_18__unwrap_iter_implIS5_Lb1EEEEET_S8_T0_, symObjAddr: 0xAB7E8, symBinAddr: 0x1000AE8D8, symSize: 0x3C }
  - { offsetInCU: 0xB1669, offset: 0xB1669, size: 0x8, addend: 0x0, symName: __ZNSt3__18distanceB7v160006IPNS_4pairImPKcEEEENS_15iterator_traitsIT_E15difference_typeES7_S7_, symObjAddr: 0xABACC, symBinAddr: 0x1000AEBBC, symSize: 0x2C }
  - { offsetInCU: 0xB16AF, offset: 0xB16AF, size: 0x8, addend: 0x0, symName: __ZNSt3__14copyB7v160006IPNS_4pairImPKcEES5_EET0_T_S7_S6_, symObjAddr: 0xABB48, symBinAddr: 0x1000AEC38, symSize: 0x40 }
  - { offsetInCU: 0xB170D, offset: 0xB170D, size: 0x8, addend: 0x0, symName: __ZNSt3__110__distanceB7v160006IPNS_4pairImPKcEEEENS_15iterator_traitsIT_E15difference_typeES7_S7_NS_26random_access_iterator_tagE, symObjAddr: 0xABC14, symBinAddr: 0x1000AED04, symSize: 0x28 }
  - { offsetInCU: 0xB175E, offset: 0xB175E, size: 0x8, addend: 0x0, symName: __ZNSt3__19__advanceB7v160006IPNS_4pairImPKcEEEEvRT_NS_15iterator_traitsIS6_E15difference_typeENS_26random_access_iterator_tagE, symObjAddr: 0xABC3C, symBinAddr: 0x1000AED2C, symSize: 0x28 }
  - { offsetInCU: 0xB17AB, offset: 0xB17AB, size: 0x8, addend: 0x0, symName: __ZNSt3__16__copyB7v160006INS_17_ClassicAlgPolicyEPNS_4pairImPKcEES6_S6_EENS2_IT0_T2_EES7_T1_S8_, symObjAddr: 0xABC64, symBinAddr: 0x1000AED54, symSize: 0x44 }
  - { offsetInCU: 0xB181B, offset: 0xB181B, size: 0x8, addend: 0x0, symName: __ZNSt3__123__dispatch_copy_or_moveB7v160006INS_17_ClassicAlgPolicyENS_11__copy_loopIS1_EENS_14__copy_trivialEPNS_4pairImPKcEES9_S9_EENS5_IT2_T4_EESA_T3_SB_, symObjAddr: 0xABCA8, symBinAddr: 0x1000AED98, symSize: 0x44 }
  - { offsetInCU: 0xB189D, offset: 0xB189D, size: 0x8, addend: 0x0, symName: __ZNSt3__121__unwrap_and_dispatchB7v160006INS_10__overloadINS_11__copy_loopINS_17_ClassicAlgPolicyEEENS_14__copy_trivialEEEPNS_4pairImPKcEESB_SB_Li0EEENS7_IT0_T2_EESC_T1_SD_, symObjAddr: 0xABCEC, symBinAddr: 0x1000AEDDC, symSize: 0xB4 }
  - { offsetInCU: 0xB1932, offset: 0xB1932, size: 0x8, addend: 0x0, symName: __ZNSt3__114__unwrap_rangeB7v160006IPNS_4pairImPKcEES5_EENS1_IT0_S6_EET_S8_, symObjAddr: 0xABDA0, symBinAddr: 0x1000AEE90, symSize: 0x60 }
  - { offsetInCU: 0xB1A5C, offset: 0xB1A5C, size: 0x8, addend: 0x0, symName: __ZNSt3__113__unwrap_iterB7v160006IPNS_4pairImPKcEENS_18__unwrap_iter_implIS5_Lb1EEELi0EEEDTclsrT0_8__unwrapclsr3stdE7declvalIT_EEEES9_, symObjAddr: 0xABE88, symBinAddr: 0x1000AEF78, symSize: 0x24 }
  - { offsetInCU: 0xB1AA2, offset: 0xB1AA2, size: 0x8, addend: 0x0, symName: __ZNSt3__19make_pairB7v160006IPNS_4pairImPKcEES5_EENS1_INS_18__unwrap_ref_decayIT_E4typeENS6_IT0_E4typeEEEOS7_OSA_, symObjAddr: 0xABEAC, symBinAddr: 0x1000AEF9C, symSize: 0x38 }
  - { offsetInCU: 0xB1AF2, offset: 0xB1AF2, size: 0x8, addend: 0x0, symName: __ZNSt3__114__rewrap_rangeB7v160006IPNS_4pairImPKcEES5_EET_S6_T0_, symObjAddr: 0xABEE4, symBinAddr: 0x1000AEFD4, symSize: 0x2C }
  - { offsetInCU: 0xB1B41, offset: 0xB1B41, size: 0x8, addend: 0x0, symName: __ZNSt3__113__rewrap_iterB7v160006IPNS_4pairImPKcEES5_NS_18__unwrap_iter_implIS5_Lb1EEEEET_S8_T0_, symObjAddr: 0xABF10, symBinAddr: 0x1000AF000, symSize: 0x3C }
  - { offsetInCU: 0xB1BF1, offset: 0xB1BF1, size: 0x8, addend: 0x0, symName: __ZNSt3__119__allocate_at_leastB7v160006INS_9allocatorINS_9sub_matchINS_11__wrap_iterIPKcEEEEEEEENS_19__allocation_resultINS_16allocator_traitsIT_E7pointerEEERSB_m, symObjAddr: 0xACAC8, symBinAddr: 0x1000AFBB8, symSize: 0x40 }
  - { offsetInCU: 0xB1C36, offset: 0xB1C36, size: 0x8, addend: 0x0, symName: __ZNSt3__142__uninitialized_allocator_move_if_noexceptB7v160006INS_9allocatorINS_9sub_matchINS_11__wrap_iterIPKcEEEEEENS_16reverse_iteratorIPS7_EESB_SB_EET2_RT_T0_T1_SC_, symObjAddr: 0xACD54, symBinAddr: 0x1000AFE44, symSize: 0x12C }
  - { offsetInCU: 0xB1CD7, offset: 0xB1CD7, size: 0x8, addend: 0x0, symName: __ZNSt3__14swapB7v160006IPNS_9sub_matchINS_11__wrap_iterIPKcEEEEEENS_9enable_ifIXaasr21is_move_constructibleIT_EE5valuesr18is_move_assignableIS9_EE5valueEvE4typeERS9_SC_, symObjAddr: 0xACECC, symBinAddr: 0x1000AFFBC, symSize: 0x3C }
  - { offsetInCU: 0xB1D2C, offset: 0xB1D2C, size: 0x8, addend: 0x0, symName: __ZNSt3__125__debug_db_invalidate_allB7v160006INS_6vectorINS_9sub_matchINS_11__wrap_iterIPKcEEEENS_9allocatorIS7_EEEEEEvPT_, symObjAddr: 0xACFD0, symBinAddr: 0x1000B00C0, symSize: 0x10 }
  - { offsetInCU: 0xB1D5F, offset: 0xB1D5F, size: 0x8, addend: 0x0, symName: __ZNSt3__122__make_exception_guardB7v160006INS_29_AllocatorDestroyRangeReverseINS_9allocatorINS_9sub_matchINS_11__wrap_iterIPKcEEEEEENS_16reverse_iteratorIPS8_EEEEEENS_28__exception_guard_exceptionsIT_EESF_, symObjAddr: 0xACFE0, symBinAddr: 0x1000B00D0, symSize: 0x4C }
  - { offsetInCU: 0xB1D97, offset: 0xB1D97, size: 0x8, addend: 0x0, symName: __ZNSt3__1neB7v160006IPNS_9sub_matchINS_11__wrap_iterIPKcEEEES7_EEbRKNS_16reverse_iteratorIT_EERKNS8_IT0_EE, symObjAddr: 0xAD070, symBinAddr: 0x1000B0160, symSize: 0x48 }
  - { offsetInCU: 0xB1DE6, offset: 0xB1DE6, size: 0x8, addend: 0x0, symName: __ZNSt3__112__to_addressB7v160006INS_16reverse_iteratorIPNS_9sub_matchINS_11__wrap_iterIPKcEEEEEEvEENS_5decayIDTclsr19__to_address_helperIT_EE6__callclsr3stdE7declvalIRKSB_EEEEE4typeESD_, symObjAddr: 0xAD0EC, symBinAddr: 0x1000B01DC, symSize: 0x24 }
  - { offsetInCU: 0xB1E48, offset: 0xB1E48, size: 0x8, addend: 0x0, symName: __ZNSt3__119__allocator_destroyB7v160006INS_9allocatorINS_9sub_matchINS_11__wrap_iterIPKcEEEEEENS_16reverse_iteratorINS9_IPS7_EEEESC_EEvRT_T0_T1_, symObjAddr: 0xAD3CC, symBinAddr: 0x1000B04BC, symSize: 0x70 }
  - { offsetInCU: 0xB1EAE, offset: 0xB1EAE, size: 0x8, addend: 0x0, symName: __ZNSt3__1neB7v160006INS_16reverse_iteratorIPNS_9sub_matchINS_11__wrap_iterIPKcEEEEEES9_EEbRKNS1_IT_EERKNS1_IT0_EE, symObjAddr: 0xAD478, symBinAddr: 0x1000B0568, symSize: 0x60 }
  - { offsetInCU: 0xB1EFD, offset: 0xB1EFD, size: 0x8, addend: 0x0, symName: __ZNSt3__112__to_addressB7v160006INS_16reverse_iteratorINS1_IPNS_9sub_matchINS_11__wrap_iterIPKcEEEEEEEEvEENS_5decayIDTclsr19__to_address_helperIT_EE6__callclsr3stdE7declvalIRKSC_EEEEE4typeESE_, symObjAddr: 0xAD4D8, symBinAddr: 0x1000B05C8, symSize: 0x24 }
  - { offsetInCU: 0xB2326, offset: 0xB2326, size: 0x8, addend: 0x0, symName: __ZNSt3__14swapB7v160006IPPcEENS_9enable_ifIXaasr21is_move_constructibleIT_EE5valuesr18is_move_assignableIS4_EE5valueEvE4typeERS4_S7_, symObjAddr: 0xAEEF0, symBinAddr: 0x1000B1FE0, symSize: 0x3C }
  - { offsetInCU: 0xB237B, offset: 0xB237B, size: 0x8, addend: 0x0, symName: __ZNSt3__14moveB7v160006IPPcS2_EET0_T_S4_S3_, symObjAddr: 0xAEFD4, symBinAddr: 0x1000B20C4, symSize: 0x40 }
  - { offsetInCU: 0xB23D9, offset: 0xB23D9, size: 0x8, addend: 0x0, symName: __ZNSt3__16__moveB7v160006INS_17_ClassicAlgPolicyEPPcS3_S3_EENS_4pairIT0_T2_EES5_T1_S6_, symObjAddr: 0xAF178, symBinAddr: 0x1000B2268, symSize: 0x44 }
  - { offsetInCU: 0xB2449, offset: 0xB2449, size: 0x8, addend: 0x0, symName: __ZNSt3__123__dispatch_copy_or_moveB7v160006INS_17_ClassicAlgPolicyENS_11__move_loopIS1_EENS_14__move_trivialEPPcS6_S6_EENS_4pairIT2_T4_EES8_T3_S9_, symObjAddr: 0xAF1BC, symBinAddr: 0x1000B22AC, symSize: 0x44 }
  - { offsetInCU: 0xB24CB, offset: 0xB24CB, size: 0x8, addend: 0x0, symName: __ZNSt3__121__unwrap_and_dispatchB7v160006INS_10__overloadINS_11__move_loopINS_17_ClassicAlgPolicyEEENS_14__move_trivialEEEPPcS8_S8_Li0EEENS_4pairIT0_T2_EESA_T1_SB_, symObjAddr: 0xAF200, symBinAddr: 0x1000B22F0, symSize: 0xB4 }
  - { offsetInCU: 0xB2560, offset: 0xB2560, size: 0x8, addend: 0x0, symName: __ZNSt3__114__unwrap_rangeB7v160006IPPcS2_EENS_4pairIT0_S4_EET_S6_, symObjAddr: 0xAF2B4, symBinAddr: 0x1000B23A4, symSize: 0x60 }
  - { offsetInCU: 0xB26EC, offset: 0xB26EC, size: 0x8, addend: 0x0, symName: __ZNSt3__113__unwrap_iterB7v160006IPPcNS_18__unwrap_iter_implIS2_Lb1EEELi0EEEDTclsrT0_8__unwrapclsr3stdE7declvalIT_EEEES6_, symObjAddr: 0xAF35C, symBinAddr: 0x1000B244C, symSize: 0x24 }
  - { offsetInCU: 0xB2732, offset: 0xB2732, size: 0x8, addend: 0x0, symName: __ZNSt3__19make_pairB7v160006IPPcS2_EENS_4pairINS_18__unwrap_ref_decayIT_E4typeENS4_IT0_E4typeEEEOS5_OS8_, symObjAddr: 0xAF380, symBinAddr: 0x1000B2470, symSize: 0x38 }
  - { offsetInCU: 0xB2782, offset: 0xB2782, size: 0x8, addend: 0x0, symName: __ZNSt3__114__rewrap_rangeB7v160006IPPcS2_EET_S3_T0_, symObjAddr: 0xAF3B8, symBinAddr: 0x1000B24A8, symSize: 0x2C }
  - { offsetInCU: 0xB27D1, offset: 0xB27D1, size: 0x8, addend: 0x0, symName: __ZNSt3__113__rewrap_iterB7v160006IPPcS2_NS_18__unwrap_iter_implIS2_Lb1EEEEET_S5_T0_, symObjAddr: 0xAF3E4, symBinAddr: 0x1000B24D4, symSize: 0x3C }
  - { offsetInCU: 0xB2829, offset: 0xB2829, size: 0x8, addend: 0x0, symName: __ZNSt3__119__copy_trivial_implB7v160006IPcS1_EENS_4pairIPT_PT0_EES4_S4_S6_, symObjAddr: 0xAF420, symBinAddr: 0x1000B2510, symSize: 0x84 }
  - { offsetInCU: 0xB2895, offset: 0xB2895, size: 0x8, addend: 0x0, symName: __ZNSt3__19make_pairB7v160006IRPPcS2_EENS_4pairINS_18__unwrap_ref_decayIT_E4typeENS5_IT0_E4typeEEEOS6_OS9_, symObjAddr: 0xAF4A4, symBinAddr: 0x1000B2594, symSize: 0x38 }
  - { offsetInCU: 0xB293D, offset: 0xB293D, size: 0x8, addend: 0x0, symName: __ZNSt3__18distanceB7v160006INS_13move_iteratorIPPcEEEENS_15iterator_traitsIT_E15difference_typeES6_S6_, symObjAddr: 0xAF630, symBinAddr: 0x1000B2720, symSize: 0x3C }
  - { offsetInCU: 0xB2983, offset: 0xB2983, size: 0x8, addend: 0x0, symName: __ZNSt3__110__distanceB7v160006INS_13move_iteratorIPPcEEEENS_15iterator_traitsIT_E15difference_typeES6_S6_NS_26random_access_iterator_tagE, symObjAddr: 0xAF768, symBinAddr: 0x1000B2858, symSize: 0x30 }
  - { offsetInCU: 0xB29D3, offset: 0xB29D3, size: 0x8, addend: 0x0, symName: __ZNSt3__1miB7v160006IPPcS2_EEDTmicldtfp_4baseEcldtfp0_4baseEERKNS_13move_iteratorIT_EERKNS4_IT0_EE, symObjAddr: 0xAF798, symBinAddr: 0x1000B2888, symSize: 0x48 }
  - { offsetInCU: 0xB2A23, offset: 0xB2A23, size: 0x8, addend: 0x0, symName: __ZNSt3__113move_backwardB7v160006IPPcS2_EET0_T_S4_S3_, symObjAddr: 0xAF90C, symBinAddr: 0x1000B29FC, symSize: 0x40 }
  - { offsetInCU: 0xB2A81, offset: 0xB2A81, size: 0x8, addend: 0x0, symName: __ZNSt3__115__move_backwardB7v160006INS_17_ClassicAlgPolicyEPPcS3_S3_EENS_4pairIT0_T2_EES5_T1_S6_, symObjAddr: 0xAF94C, symBinAddr: 0x1000B2A3C, symSize: 0x44 }
  - { offsetInCU: 0xB2AF1, offset: 0xB2AF1, size: 0x8, addend: 0x0, symName: __ZNSt3__123__dispatch_copy_or_moveB7v160006INS_17_ClassicAlgPolicyENS_20__move_backward_loopIS1_EENS_23__move_backward_trivialEPPcS6_S6_EENS_4pairIT2_T4_EES8_T3_S9_, symObjAddr: 0xAF990, symBinAddr: 0x1000B2A80, symSize: 0x44 }
  - { offsetInCU: 0xB2B73, offset: 0xB2B73, size: 0x8, addend: 0x0, symName: __ZNSt3__121__unwrap_and_dispatchB7v160006INS_10__overloadINS_20__move_backward_loopINS_17_ClassicAlgPolicyEEENS_23__move_backward_trivialEEEPPcS8_S8_Li0EEENS_4pairIT0_T2_EESA_T1_SB_, symObjAddr: 0xAF9D4, symBinAddr: 0x1000B2AC4, symSize: 0xB4 }
  - { offsetInCU: 0xB2C08, offset: 0xB2C08, size: 0x8, addend: 0x0, symName: __ZNSt3__128__copy_backward_trivial_implB7v160006IPcS1_EENS_4pairIPT_PT0_EES4_S4_S6_, symObjAddr: 0xAFAD0, symBinAddr: 0x1000B2BC0, symSize: 0x94 }
  - { offsetInCU: 0xB2C74, offset: 0xB2C74, size: 0x8, addend: 0x0, symName: __ZNSt3__19make_pairB7v160006IRPPcS3_EENS_4pairINS_18__unwrap_ref_decayIT_E4typeENS5_IT0_E4typeEEEOS6_OS9_, symObjAddr: 0xAFB64, symBinAddr: 0x1000B2C54, symSize: 0x38 }
  - { offsetInCU: 0xB2CC4, offset: 0xB2CC4, size: 0x8, addend: 0x0, symName: __ZNSt3__119__allocate_at_leastB7v160006INS_9allocatorIPcEEEENS_19__allocation_resultINS_16allocator_traitsIT_E7pointerEEERS6_m, symObjAddr: 0xAFD1C, symBinAddr: 0x1000B2E0C, symSize: 0x40 }
  - { offsetInCU: 0xB2D0A, offset: 0xB2D0A, size: 0x8, addend: 0x0, symName: __ZNSt3__119__debug_db_insert_cB7v160006INS_6vectorINS_10shared_ptrIN5Catch16IReporterFactoryEEENS_9allocatorIS5_EEEEEEvPT_, symObjAddr: 0xB1554, symBinAddr: 0x1000B4644, symSize: 0x10 }
  - { offsetInCU: 0xB2D3D, offset: 0xB2D3D, size: 0x8, addend: 0x0, symName: __ZNSt3__119__debug_db_insert_cB7v160006INS_6vectorINS_10unique_ptrIKN5Catch20IExceptionTranslatorENS_14default_deleteIS5_EEEENS_9allocatorIS8_EEEEEEvPT_, symObjAddr: 0xB1760, symBinAddr: 0x1000B4850, symSize: 0x10 }
  - { offsetInCU: 0xB2D70, offset: 0xB2D70, size: 0x8, addend: 0x0, symName: __ZNSt3__119__debug_db_insert_cB7v160006INS_6vectorISt13exception_ptrNS_9allocatorIS2_EEEEEEvPT_, symObjAddr: 0xB1CA0, symBinAddr: 0x1000B4D90, symSize: 0x10 }
  - { offsetInCU: 0xB2DA3, offset: 0xB2DA3, size: 0x8, addend: 0x0, symName: __ZNSt3__119__debug_db_insert_cB7v160006INS_6vectorINS_10unique_ptrIN5Catch6Detail8EnumInfoENS_14default_deleteIS5_EEEENS_9allocatorIS8_EEEEEEvPT_, symObjAddr: 0xB1EAC, symBinAddr: 0x1000B4F9C, symSize: 0x10 }
  - { offsetInCU: 0xB2DD6, offset: 0xB2DD6, size: 0x8, addend: 0x0, symName: __ZNSt3__118__debug_db_erase_cB7v160006INS_6vectorISt13exception_ptrNS_9allocatorIS2_EEEEEEvPT_, symObjAddr: 0xB2284, symBinAddr: 0x1000B5374, symSize: 0x10 }
  - { offsetInCU: 0xB2E09, offset: 0xB2E09, size: 0x8, addend: 0x0, symName: __ZNSt3__112__to_addressB7v160006ISt13exception_ptrEEPT_S3_, symObjAddr: 0xB23C8, symBinAddr: 0x1000B54B8, symSize: 0x14 }
  - { offsetInCU: 0xB2E40, offset: 0xB2E40, size: 0x8, addend: 0x0, symName: __ZNSt3__118__debug_db_erase_cB7v160006INS_6vectorINS_10shared_ptrIN5Catch16IReporterFactoryEEENS_9allocatorIS5_EEEEEEvPT_, symObjAddr: 0xB2B10, symBinAddr: 0x1000B5C00, symSize: 0x10 }
  - { offsetInCU: 0xB2E73, offset: 0xB2E73, size: 0x8, addend: 0x0, symName: __ZNSt3__112__to_addressB7v160006INS_10shared_ptrIN5Catch16IReporterFactoryEEEEEPT_S6_, symObjAddr: 0xB2C54, symBinAddr: 0x1000B5D44, symSize: 0x14 }
  - { offsetInCU: 0xB2F27, offset: 0xB2F27, size: 0x8, addend: 0x0, symName: __ZNSt3__119__allocate_at_leastB7v160006INS_9allocatorINS_10shared_ptrIN5Catch16IReporterFactoryEEEEEEENS_19__allocation_resultINS_16allocator_traitsIT_E7pointerEEERS9_m, symObjAddr: 0xB43A8, symBinAddr: 0x1000B7498, symSize: 0x40 }
  - { offsetInCU: 0xB2F6C, offset: 0xB2F6C, size: 0x8, addend: 0x0, symName: __ZNSt3__142__uninitialized_allocator_move_if_noexceptB7v160006INS_9allocatorINS_10shared_ptrIN5Catch16IReporterFactoryEEEEENS_16reverse_iteratorIPS5_EES9_S9_EET2_RT_T0_T1_SA_, symObjAddr: 0xB455C, symBinAddr: 0x1000B764C, symSize: 0x12C }
  - { offsetInCU: 0xB300D, offset: 0xB300D, size: 0x8, addend: 0x0, symName: __ZNSt3__14swapB7v160006IPNS_10shared_ptrIN5Catch16IReporterFactoryEEEEENS_9enable_ifIXaasr21is_move_constructibleIT_EE5valuesr18is_move_assignableIS7_EE5valueEvE4typeERS7_SA_, symObjAddr: 0xB46D4, symBinAddr: 0x1000B77C4, symSize: 0x3C }
  - { offsetInCU: 0xB3062, offset: 0xB3062, size: 0x8, addend: 0x0, symName: __ZNSt3__125__debug_db_invalidate_allB7v160006INS_6vectorINS_10shared_ptrIN5Catch16IReporterFactoryEEENS_9allocatorIS5_EEEEEEvPT_, symObjAddr: 0xB47BC, symBinAddr: 0x1000B78AC, symSize: 0x10 }
  - { offsetInCU: 0xB3095, offset: 0xB3095, size: 0x8, addend: 0x0, symName: __ZNSt3__122__make_exception_guardB7v160006INS_29_AllocatorDestroyRangeReverseINS_9allocatorINS_10shared_ptrIN5Catch16IReporterFactoryEEEEENS_16reverse_iteratorIPS6_EEEEEENS_28__exception_guard_exceptionsIT_EESD_, symObjAddr: 0xB47CC, symBinAddr: 0x1000B78BC, symSize: 0x4C }
  - { offsetInCU: 0xB30CD, offset: 0xB30CD, size: 0x8, addend: 0x0, symName: __ZNSt3__1neB7v160006IPNS_10shared_ptrIN5Catch16IReporterFactoryEEES5_EEbRKNS_16reverse_iteratorIT_EERKNS6_IT0_EE, symObjAddr: 0xB485C, symBinAddr: 0x1000B794C, symSize: 0x48 }
  - { offsetInCU: 0xB311C, offset: 0xB311C, size: 0x8, addend: 0x0, symName: __ZNSt3__112__to_addressB7v160006INS_16reverse_iteratorIPNS_10shared_ptrIN5Catch16IReporterFactoryEEEEEvEENS_5decayIDTclsr19__to_address_helperIT_EE6__callclsr3stdE7declvalIRKS9_EEEEE4typeESB_, symObjAddr: 0xB48D8, symBinAddr: 0x1000B79C8, symSize: 0x24 }
  - { offsetInCU: 0xB317E, offset: 0xB317E, size: 0x8, addend: 0x0, symName: __ZNSt3__119__allocator_destroyB7v160006INS_9allocatorINS_10shared_ptrIN5Catch16IReporterFactoryEEEEENS_16reverse_iteratorINS7_IPS5_EEEESA_EEvRT_T0_T1_, symObjAddr: 0xB4C2C, symBinAddr: 0x1000B7D1C, symSize: 0x70 }
  - { offsetInCU: 0xB31E4, offset: 0xB31E4, size: 0x8, addend: 0x0, symName: __ZNSt3__1neB7v160006INS_16reverse_iteratorIPNS_10shared_ptrIN5Catch16IReporterFactoryEEEEES7_EEbRKNS1_IT_EERKNS1_IT0_EE, symObjAddr: 0xB4CD8, symBinAddr: 0x1000B7DC8, symSize: 0x60 }
  - { offsetInCU: 0xB3233, offset: 0xB3233, size: 0x8, addend: 0x0, symName: __ZNSt3__112__to_addressB7v160006INS_16reverse_iteratorINS1_IPNS_10shared_ptrIN5Catch16IReporterFactoryEEEEEEEvEENS_5decayIDTclsr19__to_address_helperIT_EE6__callclsr3stdE7declvalIRKSA_EEEEE4typeESC_, symObjAddr: 0xB4D38, symBinAddr: 0x1000B7E28, symSize: 0x24 }
  - { offsetInCU: 0xB3296, offset: 0xB3296, size: 0x8, addend: 0x0, symName: __ZNSt3__119__debug_db_insert_cB7v160006INS_6vectorIN5Catch13ScopedMessageENS_9allocatorIS3_EEEEEEvPT_, symObjAddr: 0xB529C, symBinAddr: 0x1000B838C, symSize: 0x10 }
  - { offsetInCU: 0xB32C9, offset: 0xB32C9, size: 0x8, addend: 0x0, symName: __ZNSt3__119__debug_db_insert_cB7v160006INS_6vectorIN5Catch14SectionEndInfoENS_9allocatorIS3_EEEEEEvPT_, symObjAddr: 0xB5408, symBinAddr: 0x1000B84F8, symSize: 0x10 }
  - { offsetInCU: 0xB32FC, offset: 0xB32FC, size: 0x8, addend: 0x0, symName: __ZNSt3__119__debug_db_insert_cB7v160006INS_6vectorIPN5Catch16TestCaseTracking8ITrackerENS_9allocatorIS5_EEEEEEvPT_, symObjAddr: 0xB5574, symBinAddr: 0x1000B8664, symSize: 0x10 }
  - { offsetInCU: 0xB332F, offset: 0xB332F, size: 0x8, addend: 0x0, symName: __ZNSt3__118__debug_db_erase_cB7v160006INS_6vectorIN5Catch13ScopedMessageENS_9allocatorIS3_EEEEEEvPT_, symObjAddr: 0xB58D8, symBinAddr: 0x1000B89C8, symSize: 0x10 }
  - { offsetInCU: 0xB3362, offset: 0xB3362, size: 0x8, addend: 0x0, symName: __ZNSt3__112__to_addressB7v160006IN5Catch13ScopedMessageEEEPT_S4_, symObjAddr: 0xB5A1C, symBinAddr: 0x1000B8B0C, symSize: 0x14 }
  - { offsetInCU: 0xB3399, offset: 0xB3399, size: 0x8, addend: 0x0, symName: __ZNSt3__118__debug_db_erase_cB7v160006INS_6vectorIN5Catch14SectionEndInfoENS_9allocatorIS3_EEEEEEvPT_, symObjAddr: 0xB5DF4, symBinAddr: 0x1000B8EE4, symSize: 0x10 }
  - { offsetInCU: 0xB33CC, offset: 0xB33CC, size: 0x8, addend: 0x0, symName: __ZNSt3__112__to_addressB7v160006IN5Catch14SectionEndInfoEEEPT_S4_, symObjAddr: 0xB5F38, symBinAddr: 0x1000B9028, symSize: 0x14 }
  - { offsetInCU: 0xB3403, offset: 0xB3403, size: 0x8, addend: 0x0, symName: __ZNSt3__118__debug_db_erase_cB7v160006INS_6vectorIPN5Catch16TestCaseTracking8ITrackerENS_9allocatorIS5_EEEEEEvPT_, symObjAddr: 0xB62F4, symBinAddr: 0x1000B93E4, symSize: 0x10 }
  - { offsetInCU: 0xB3436, offset: 0xB3436, size: 0x8, addend: 0x0, symName: __ZNSt3__112__to_addressB7v160006IPN5Catch16TestCaseTracking8ITrackerEEEPT_S6_, symObjAddr: 0xB6438, symBinAddr: 0x1000B9528, symSize: 0x14 }
  - { offsetInCU: 0xB346D, offset: 0xB346D, size: 0x8, addend: 0x0, symName: __ZNSt3__125__debug_db_invalidate_allB7v160006INS_6vectorIN5Catch13ScopedMessageENS_9allocatorIS3_EEEEEEvPT_, symObjAddr: 0xB66C0, symBinAddr: 0x1000B97B0, symSize: 0x10 }
  - { offsetInCU: 0xB34A0, offset: 0xB34A0, size: 0x8, addend: 0x0, symName: __ZNSt3__119__allocate_at_leastB7v160006INS_9allocatorIPN5Catch16TestCaseTracking8ITrackerEEEEENS_19__allocation_resultINS_16allocator_traitsIT_E7pointerEEERS9_m, symObjAddr: 0xB6E20, symBinAddr: 0x1000B9F10, symSize: 0x40 }
  - { offsetInCU: 0xB34E5, offset: 0xB34E5, size: 0x8, addend: 0x0, symName: __ZNSt3__142__uninitialized_allocator_move_if_noexceptB7v160006INS_9allocatorIPN5Catch16TestCaseTracking8ITrackerEEENS_16reverse_iteratorIPS5_EES9_S5_vEET1_RT_T0_SD_SA_, symObjAddr: 0xB6FD4, symBinAddr: 0x1000BA0C4, symSize: 0x78 }
  - { offsetInCU: 0xB3563, offset: 0xB3563, size: 0x8, addend: 0x0, symName: __ZNSt3__14swapB7v160006IPPN5Catch16TestCaseTracking8ITrackerEEENS_9enable_ifIXaasr21is_move_constructibleIT_EE5valuesr18is_move_assignableIS7_EE5valueEvE4typeERS7_SA_, symObjAddr: 0xB7098, symBinAddr: 0x1000BA188, symSize: 0x3C }
  - { offsetInCU: 0xB35B8, offset: 0xB35B8, size: 0x8, addend: 0x0, symName: __ZNSt3__125__debug_db_invalidate_allB7v160006INS_6vectorIPN5Catch16TestCaseTracking8ITrackerENS_9allocatorIS5_EEEEEEvPT_, symObjAddr: 0xB7180, symBinAddr: 0x1000BA270, symSize: 0x10 }
  - { offsetInCU: 0xB35EB, offset: 0xB35EB, size: 0x8, addend: 0x0, symName: __ZNSt3__14moveB7v160006INS_16reverse_iteratorIPPN5Catch16TestCaseTracking8ITrackerEEES7_EET0_T_S9_S8_, symObjAddr: 0xB7190, symBinAddr: 0x1000BA280, symSize: 0x78 }
  - { offsetInCU: 0xB3649, offset: 0xB3649, size: 0x8, addend: 0x0, symName: __ZNSt3__16__moveB7v160006INS_17_ClassicAlgPolicyENS_16reverse_iteratorIPPN5Catch16TestCaseTracking8ITrackerEEES8_S8_EENS_4pairIT0_T2_EESA_T1_SB_, symObjAddr: 0xB7208, symBinAddr: 0x1000BA2F8, symSize: 0x64 }
  - { offsetInCU: 0xB36B9, offset: 0xB36B9, size: 0x8, addend: 0x0, symName: __ZNSt3__123__dispatch_copy_or_moveB7v160006INS_17_ClassicAlgPolicyENS_11__move_loopIS1_EENS_14__move_trivialENS_16reverse_iteratorIPPN5Catch16TestCaseTracking8ITrackerEEESB_SB_EENS_4pairIT2_T4_EESD_T3_SE_, symObjAddr: 0xB726C, symBinAddr: 0x1000BA35C, symSize: 0x64 }
  - { offsetInCU: 0xB373B, offset: 0xB373B, size: 0x8, addend: 0x0, symName: __ZNSt3__121__unwrap_and_dispatchB7v160006INS_10__overloadINS_11__move_loopINS_17_ClassicAlgPolicyEEENS_14__move_trivialEEENS_16reverse_iteratorIPPN5Catch16TestCaseTracking8ITrackerEEESD_SD_Li0EEENS_4pairIT0_T2_EESF_T1_SG_, symObjAddr: 0xB72D0, symBinAddr: 0x1000BA3C0, symSize: 0x12C }
  - { offsetInCU: 0xB37D2, offset: 0xB37D2, size: 0x8, addend: 0x0, symName: __ZNSt3__114__unwrap_rangeB7v160006INS_16reverse_iteratorIPPN5Catch16TestCaseTracking8ITrackerEEES7_EENS_4pairIT0_S9_EET_SB_, symObjAddr: 0xB73FC, symBinAddr: 0x1000BA4EC, symSize: 0x84 }
  - { offsetInCU: 0xB38FC, offset: 0xB38FC, size: 0x8, addend: 0x0, symName: __ZNSt3__113__unwrap_iterB7v160006INS_16reverse_iteratorIPPN5Catch16TestCaseTracking8ITrackerEEENS_18__unwrap_iter_implIS7_Lb0EEELi0EEEDTclsrT0_8__unwrapclsr3stdE7declvalIT_EEEESB_, symObjAddr: 0xB7520, symBinAddr: 0x1000BA610, symSize: 0x44 }
  - { offsetInCU: 0xB3942, offset: 0xB3942, size: 0x8, addend: 0x0, symName: __ZNSt3__19make_pairB7v160006INS_16reverse_iteratorIPPN5Catch16TestCaseTracking8ITrackerEEES7_EENS_4pairINS_18__unwrap_ref_decayIT_E4typeENS9_IT0_E4typeEEEOSA_OSD_, symObjAddr: 0xB7564, symBinAddr: 0x1000BA654, symSize: 0x38 }
  - { offsetInCU: 0xB3992, offset: 0xB3992, size: 0x8, addend: 0x0, symName: __ZNSt3__114__rewrap_rangeB7v160006INS_16reverse_iteratorIPPN5Catch16TestCaseTracking8ITrackerEEES7_EET_S8_T0_, symObjAddr: 0xB759C, symBinAddr: 0x1000BA68C, symSize: 0x5C }
  - { offsetInCU: 0xB39E1, offset: 0xB39E1, size: 0x8, addend: 0x0, symName: __ZNSt3__113__rewrap_iterB7v160006INS_16reverse_iteratorIPPN5Catch16TestCaseTracking8ITrackerEEES7_NS_18__unwrap_iter_implIS7_Lb0EEEEET_SA_T0_, symObjAddr: 0xB75F8, symBinAddr: 0x1000BA6E8, symSize: 0x74 }
  - { offsetInCU: 0xB3A39, offset: 0xB3A39, size: 0x8, addend: 0x0, symName: __ZNSt3__1neB7v160006IPPN5Catch16TestCaseTracking8ITrackerES5_EEbRKNS_16reverse_iteratorIT_EERKNS6_IT0_EE, symObjAddr: 0xB766C, symBinAddr: 0x1000BA75C, symSize: 0x48 }
  - { offsetInCU: 0xB3AFB, offset: 0xB3AFB, size: 0x8, addend: 0x0, symName: __ZNSt3__119__allocate_at_leastB7v160006INS_9allocatorIN5Catch14SectionEndInfoEEEEENS_19__allocation_resultINS_16allocator_traitsIT_E7pointerEEERS7_m, symObjAddr: 0xB83C4, symBinAddr: 0x1000BB4B4, symSize: 0x40 }
  - { offsetInCU: 0xB3B40, offset: 0xB3B40, size: 0x8, addend: 0x0, symName: __ZNSt3__142__uninitialized_allocator_move_if_noexceptB7v160006INS_9allocatorIN5Catch14SectionEndInfoEEENS_16reverse_iteratorIPS3_EES7_S7_EET2_RT_T0_T1_S8_, symObjAddr: 0xB857C, symBinAddr: 0x1000BB66C, symSize: 0x12C }
  - { offsetInCU: 0xB3BE1, offset: 0xB3BE1, size: 0x8, addend: 0x0, symName: __ZNSt3__14swapB7v160006IPN5Catch14SectionEndInfoEEENS_9enable_ifIXaasr21is_move_constructibleIT_EE5valuesr18is_move_assignableIS5_EE5valueEvE4typeERS5_S8_, symObjAddr: 0xB86F4, symBinAddr: 0x1000BB7E4, symSize: 0x3C }
  - { offsetInCU: 0xB3C36, offset: 0xB3C36, size: 0x8, addend: 0x0, symName: __ZNSt3__125__debug_db_invalidate_allB7v160006INS_6vectorIN5Catch14SectionEndInfoENS_9allocatorIS3_EEEEEEvPT_, symObjAddr: 0xB87F8, symBinAddr: 0x1000BB8E8, symSize: 0x10 }
  - { offsetInCU: 0xB3C69, offset: 0xB3C69, size: 0x8, addend: 0x0, symName: __ZNSt3__122__make_exception_guardB7v160006INS_29_AllocatorDestroyRangeReverseINS_9allocatorIN5Catch14SectionEndInfoEEENS_16reverse_iteratorIPS4_EEEEEENS_28__exception_guard_exceptionsIT_EESB_, symObjAddr: 0xB8808, symBinAddr: 0x1000BB8F8, symSize: 0x4C }
  - { offsetInCU: 0xB3CA1, offset: 0xB3CA1, size: 0x8, addend: 0x0, symName: __ZNSt3__1neB7v160006IPN5Catch14SectionEndInfoES3_EEbRKNS_16reverse_iteratorIT_EERKNS4_IT0_EE, symObjAddr: 0xB8898, symBinAddr: 0x1000BB988, symSize: 0x48 }
  - { offsetInCU: 0xB3CF0, offset: 0xB3CF0, size: 0x8, addend: 0x0, symName: __ZNSt3__112__to_addressB7v160006INS_16reverse_iteratorIPN5Catch14SectionEndInfoEEEvEENS_5decayIDTclsr19__to_address_helperIT_EE6__callclsr3stdE7declvalIRKS7_EEEEE4typeES9_, symObjAddr: 0xB8914, symBinAddr: 0x1000BBA04, symSize: 0x24 }
  - { offsetInCU: 0xB3D52, offset: 0xB3D52, size: 0x8, addend: 0x0, symName: __ZNSt3__119__allocator_destroyB7v160006INS_9allocatorIN5Catch14SectionEndInfoEEENS_16reverse_iteratorINS5_IPS3_EEEES8_EEvRT_T0_T1_, symObjAddr: 0xB8CF8, symBinAddr: 0x1000BBDE8, symSize: 0x70 }
  - { offsetInCU: 0xB3DB8, offset: 0xB3DB8, size: 0x8, addend: 0x0, symName: __ZNSt3__1neB7v160006INS_16reverse_iteratorIPN5Catch14SectionEndInfoEEES5_EEbRKNS1_IT_EERKNS1_IT0_EE, symObjAddr: 0xB8DA4, symBinAddr: 0x1000BBE94, symSize: 0x60 }
  - { offsetInCU: 0xB3E07, offset: 0xB3E07, size: 0x8, addend: 0x0, symName: __ZNSt3__112__to_addressB7v160006INS_16reverse_iteratorINS1_IPN5Catch14SectionEndInfoEEEEEvEENS_5decayIDTclsr19__to_address_helperIT_EE6__callclsr3stdE7declvalIRKS8_EEEEE4typeESA_, symObjAddr: 0xB8E04, symBinAddr: 0x1000BBEF4, symSize: 0x24 }
  - { offsetInCU: 0xB3E6A, offset: 0xB3E6A, size: 0x8, addend: 0x0, symName: __ZNSt3__14findB7v160006INS_11__wrap_iterIPN5Catch11MessageInfoEEES3_EET_S6_S6_RKT0_, symObjAddr: 0xB9200, symBinAddr: 0x1000BC2F0, symSize: 0x74 }
  - { offsetInCU: 0xB3EC8, offset: 0xB3EC8, size: 0x8, addend: 0x0, symName: __ZNSt3__1neB7v160006IPN5Catch11MessageInfoEEEbRKNS_11__wrap_iterIT_EES8_, symObjAddr: 0xB9274, symBinAddr: 0x1000BC364, symSize: 0x34 }
  - { offsetInCU: 0xB3F0E, offset: 0xB3F0E, size: 0x8, addend: 0x0, symName: __ZNSt3__1eqB7v160006IPN5Catch11MessageInfoEEEbRKNS_11__wrap_iterIT_EES8_, symObjAddr: 0xB933C, symBinAddr: 0x1000BC42C, symSize: 0x48 }
  - { offsetInCU: 0xB3F54, offset: 0xB3F54, size: 0x8, addend: 0x0, symName: __ZNSt3__1miB7v160006IPKN5Catch11MessageInfoEPS2_EEDTmicldtfp_4baseEcldtfp0_4baseEERKNS_11__wrap_iterIT_EERKNS7_IT0_EE, symObjAddr: 0xB9384, symBinAddr: 0x1000BC474, symSize: 0x48 }
  - { offsetInCU: 0xB3FA3, offset: 0xB3FA3, size: 0x8, addend: 0x0, symName: __ZNSt3__14moveB7v160006IPN5Catch11MessageInfoES3_EET0_T_S5_S4_, symObjAddr: 0xB942C, symBinAddr: 0x1000BC51C, symSize: 0x40 }
  - { offsetInCU: 0xB4001, offset: 0xB4001, size: 0x8, addend: 0x0, symName: __ZNSt3__16__moveB7v160006INS_17_ClassicAlgPolicyEPN5Catch11MessageInfoES4_S4_EENS_4pairIT0_T2_EES6_T1_S7_, symObjAddr: 0xB9480, symBinAddr: 0x1000BC570, symSize: 0x44 }
  - { offsetInCU: 0xB4071, offset: 0xB4071, size: 0x8, addend: 0x0, symName: __ZNSt3__123__dispatch_copy_or_moveB7v160006INS_17_ClassicAlgPolicyENS_11__move_loopIS1_EENS_14__move_trivialEPN5Catch11MessageInfoES7_S7_EENS_4pairIT2_T4_EES9_T3_SA_, symObjAddr: 0xB94C4, symBinAddr: 0x1000BC5B4, symSize: 0x44 }
  - { offsetInCU: 0xB40F3, offset: 0xB40F3, size: 0x8, addend: 0x0, symName: __ZNSt3__121__unwrap_and_dispatchB7v160006INS_10__overloadINS_11__move_loopINS_17_ClassicAlgPolicyEEENS_14__move_trivialEEEPN5Catch11MessageInfoES9_S9_Li0EEENS_4pairIT0_T2_EESB_T1_SC_, symObjAddr: 0xB9508, symBinAddr: 0x1000BC5F8, symSize: 0xB4 }
  - { offsetInCU: 0xB4188, offset: 0xB4188, size: 0x8, addend: 0x0, symName: __ZNSt3__114__unwrap_rangeB7v160006IPN5Catch11MessageInfoES3_EENS_4pairIT0_S5_EET_S7_, symObjAddr: 0xB95BC, symBinAddr: 0x1000BC6AC, symSize: 0x60 }
  - { offsetInCU: 0xB42B2, offset: 0xB42B2, size: 0x8, addend: 0x0, symName: __ZNSt3__113__unwrap_iterB7v160006IPN5Catch11MessageInfoENS_18__unwrap_iter_implIS3_Lb1EEELi0EEEDTclsrT0_8__unwrapclsr3stdE7declvalIT_EEEES7_, symObjAddr: 0xB96AC, symBinAddr: 0x1000BC79C, symSize: 0x24 }
  - { offsetInCU: 0xB42F8, offset: 0xB42F8, size: 0x8, addend: 0x0, symName: __ZNSt3__19make_pairB7v160006IPN5Catch11MessageInfoES3_EENS_4pairINS_18__unwrap_ref_decayIT_E4typeENS5_IT0_E4typeEEEOS6_OS9_, symObjAddr: 0xB96D0, symBinAddr: 0x1000BC7C0, symSize: 0x38 }
  - { offsetInCU: 0xB4348, offset: 0xB4348, size: 0x8, addend: 0x0, symName: __ZNSt3__114__rewrap_rangeB7v160006IPN5Catch11MessageInfoES3_EET_S4_T0_, symObjAddr: 0xB9708, symBinAddr: 0x1000BC7F8, symSize: 0x2C }
  - { offsetInCU: 0xB4397, offset: 0xB4397, size: 0x8, addend: 0x0, symName: __ZNSt3__113__rewrap_iterB7v160006IPN5Catch11MessageInfoES3_NS_18__unwrap_iter_implIS3_Lb1EEEEET_S6_T0_, symObjAddr: 0xB9734, symBinAddr: 0x1000BC824, symSize: 0x3C }
  - { offsetInCU: 0xB446E, offset: 0xB446E, size: 0x8, addend: 0x0, symName: __ZNSt3__119__allocate_at_leastB7v160006INS_9allocatorIN5Catch13ScopedMessageEEEEENS_19__allocation_resultINS_16allocator_traitsIT_E7pointerEEERS7_m, symObjAddr: 0xB9FF8, symBinAddr: 0x1000BD0E8, symSize: 0x40 }
  - { offsetInCU: 0xB44B3, offset: 0xB44B3, size: 0x8, addend: 0x0, symName: __ZNSt3__142__uninitialized_allocator_move_if_noexceptB7v160006INS_9allocatorIN5Catch13ScopedMessageEEENS_16reverse_iteratorIPS3_EES7_S7_EET2_RT_T0_T1_S8_, symObjAddr: 0xBA1B0, symBinAddr: 0x1000BD2A0, symSize: 0x12C }
  - { offsetInCU: 0xB4554, offset: 0xB4554, size: 0x8, addend: 0x0, symName: __ZNSt3__14swapB7v160006IPN5Catch13ScopedMessageEEENS_9enable_ifIXaasr21is_move_constructibleIT_EE5valuesr18is_move_assignableIS5_EE5valueEvE4typeERS5_S8_, symObjAddr: 0xBA328, symBinAddr: 0x1000BD418, symSize: 0x3C }
  - { offsetInCU: 0xB45A9, offset: 0xB45A9, size: 0x8, addend: 0x0, symName: __ZNSt3__122__make_exception_guardB7v160006INS_29_AllocatorDestroyRangeReverseINS_9allocatorIN5Catch13ScopedMessageEEENS_16reverse_iteratorIPS4_EEEEEENS_28__exception_guard_exceptionsIT_EESB_, symObjAddr: 0xBA42C, symBinAddr: 0x1000BD51C, symSize: 0x4C }
  - { offsetInCU: 0xB45E1, offset: 0xB45E1, size: 0x8, addend: 0x0, symName: __ZNSt3__1neB7v160006IPN5Catch13ScopedMessageES3_EEbRKNS_16reverse_iteratorIT_EERKNS4_IT0_EE, symObjAddr: 0xBA4BC, symBinAddr: 0x1000BD5AC, symSize: 0x48 }
  - { offsetInCU: 0xB4630, offset: 0xB4630, size: 0x8, addend: 0x0, symName: __ZNSt3__112__to_addressB7v160006INS_16reverse_iteratorIPN5Catch13ScopedMessageEEEvEENS_5decayIDTclsr19__to_address_helperIT_EE6__callclsr3stdE7declvalIRKS7_EEEEE4typeES9_, symObjAddr: 0xBA538, symBinAddr: 0x1000BD628, symSize: 0x24 }
  - { offsetInCU: 0xB4692, offset: 0xB4692, size: 0x8, addend: 0x0, symName: __ZNSt3__119__allocator_destroyB7v160006INS_9allocatorIN5Catch13ScopedMessageEEENS_16reverse_iteratorINS5_IPS3_EEEES8_EEvRT_T0_T1_, symObjAddr: 0xBA818, symBinAddr: 0x1000BD908, symSize: 0x70 }
  - { offsetInCU: 0xB46F8, offset: 0xB46F8, size: 0x8, addend: 0x0, symName: __ZNSt3__1neB7v160006INS_16reverse_iteratorIPN5Catch13ScopedMessageEEES5_EEbRKNS1_IT_EERKNS1_IT0_EE, symObjAddr: 0xBA8C4, symBinAddr: 0x1000BD9B4, symSize: 0x60 }
  - { offsetInCU: 0xB4747, offset: 0xB4747, size: 0x8, addend: 0x0, symName: __ZNSt3__112__to_addressB7v160006INS_16reverse_iteratorINS1_IPN5Catch13ScopedMessageEEEEEvEENS_5decayIDTclsr19__to_address_helperIT_EE6__callclsr3stdE7declvalIRKS8_EEEEE4typeESA_, symObjAddr: 0xBA924, symBinAddr: 0x1000BDA14, symSize: 0x24 }
  - { offsetInCU: 0xB47AA, offset: 0xB47AA, size: 0x8, addend: 0x0, symName: __ZNSt3__1neB7v160006IPN5Catch14SectionEndInfoEEEbRKNS_11__wrap_iterIT_EES8_, symObjAddr: 0xBADDC, symBinAddr: 0x1000BDECC, symSize: 0x34 }
  - { offsetInCU: 0xB47F0, offset: 0xB47F0, size: 0x8, addend: 0x0, symName: __ZNSt3__1eqB7v160006IPN5Catch14SectionEndInfoEEEbRKNS_11__wrap_iterIT_EES8_, symObjAddr: 0xBAE30, symBinAddr: 0x1000BDF20, symSize: 0x48 }
  - { offsetInCU: 0xB4836, offset: 0xB4836, size: 0x8, addend: 0x0, symName: __ZNSt3__118__debug_db_erase_cB7v160006INS_6vectorIN5Catch8TestSpec11FilterMatchENS_9allocatorIS4_EEEEEEvPT_, symObjAddr: 0xBB1F4, symBinAddr: 0x1000BE2E4, symSize: 0x10 }
  - { offsetInCU: 0xB4869, offset: 0xB4869, size: 0x8, addend: 0x0, symName: __ZNSt3__14swapB7v160006IPN5Catch6ConfigEEENS_9enable_ifIXaasr21is_move_constructibleIT_EE5valuesr18is_move_assignableIS5_EE5valueEvE4typeERS5_S8_, symObjAddr: 0xBB370, symBinAddr: 0x1000BE460, symSize: 0x3C }
  - { offsetInCU: 0xB48BD, offset: 0xB48BD, size: 0x8, addend: 0x0, symName: __ZNSt3__115allocate_sharedB7v160006IN5Catch6ConfigENS_9allocatorIS2_EEJRNS1_10ConfigDataEEvEENS_10shared_ptrIT_EERKT0_DpOT1_, symObjAddr: 0xBB3C4, symBinAddr: 0x1000BE4B4, symSize: 0x98 }
  - { offsetInCU: 0xB4C24, offset: 0xB4C24, size: 0x8, addend: 0x0, symName: __ZNSt3__112__to_addressB7v160006IPN5Catch10ISingletonEEEPT_S5_, symObjAddr: 0xBBF50, symBinAddr: 0x1000BF040, symSize: 0x14 }
  - { offsetInCU: 0xB4C5B, offset: 0xB4C5B, size: 0x8, addend: 0x0, symName: __ZNSt3__119__allocate_at_leastB7v160006INS_9allocatorIPN5Catch10ISingletonEEEEENS_19__allocation_resultINS_16allocator_traitsIT_E7pointerEEERS8_m, symObjAddr: 0xBC57C, symBinAddr: 0x1000BF66C, symSize: 0x40 }
  - { offsetInCU: 0xB4CA0, offset: 0xB4CA0, size: 0x8, addend: 0x0, symName: __ZNSt3__142__uninitialized_allocator_move_if_noexceptB7v160006INS_9allocatorIPN5Catch10ISingletonEEENS_16reverse_iteratorIPS4_EES8_S4_vEET1_RT_T0_SC_S9_, symObjAddr: 0xBC7E8, symBinAddr: 0x1000BF8D8, symSize: 0x78 }
  - { offsetInCU: 0xB4D1E, offset: 0xB4D1E, size: 0x8, addend: 0x0, symName: __ZNSt3__14swapB7v160006IPPN5Catch10ISingletonEEENS_9enable_ifIXaasr21is_move_constructibleIT_EE5valuesr18is_move_assignableIS6_EE5valueEvE4typeERS6_S9_, symObjAddr: 0xBC8AC, symBinAddr: 0x1000BF99C, symSize: 0x3C }
  - { offsetInCU: 0xB4D73, offset: 0xB4D73, size: 0x8, addend: 0x0, symName: __ZNSt3__125__debug_db_invalidate_allB7v160006INS_6vectorIPN5Catch10ISingletonENS_9allocatorIS4_EEEEEEvPT_, symObjAddr: 0xBC994, symBinAddr: 0x1000BFA84, symSize: 0x10 }
  - { offsetInCU: 0xB4DA6, offset: 0xB4DA6, size: 0x8, addend: 0x0, symName: __ZNSt3__14moveB7v160006INS_16reverse_iteratorIPPN5Catch10ISingletonEEES6_EET0_T_S8_S7_, symObjAddr: 0xBC9EC, symBinAddr: 0x1000BFADC, symSize: 0x78 }
  - { offsetInCU: 0xB4E04, offset: 0xB4E04, size: 0x8, addend: 0x0, symName: __ZNSt3__16__moveB7v160006INS_17_ClassicAlgPolicyENS_16reverse_iteratorIPPN5Catch10ISingletonEEES7_S7_EENS_4pairIT0_T2_EES9_T1_SA_, symObjAddr: 0xBCA64, symBinAddr: 0x1000BFB54, symSize: 0x64 }
  - { offsetInCU: 0xB4E74, offset: 0xB4E74, size: 0x8, addend: 0x0, symName: __ZNSt3__123__dispatch_copy_or_moveB7v160006INS_17_ClassicAlgPolicyENS_11__move_loopIS1_EENS_14__move_trivialENS_16reverse_iteratorIPPN5Catch10ISingletonEEESA_SA_EENS_4pairIT2_T4_EESC_T3_SD_, symObjAddr: 0xBCAC8, symBinAddr: 0x1000BFBB8, symSize: 0x64 }
  - { offsetInCU: 0xB4EF6, offset: 0xB4EF6, size: 0x8, addend: 0x0, symName: __ZNSt3__121__unwrap_and_dispatchB7v160006INS_10__overloadINS_11__move_loopINS_17_ClassicAlgPolicyEEENS_14__move_trivialEEENS_16reverse_iteratorIPPN5Catch10ISingletonEEESC_SC_Li0EEENS_4pairIT0_T2_EESE_T1_SF_, symObjAddr: 0xBCB2C, symBinAddr: 0x1000BFC1C, symSize: 0x12C }
  - { offsetInCU: 0xB4F8D, offset: 0xB4F8D, size: 0x8, addend: 0x0, symName: __ZNSt3__114__unwrap_rangeB7v160006INS_16reverse_iteratorIPPN5Catch10ISingletonEEES6_EENS_4pairIT0_S8_EET_SA_, symObjAddr: 0xBCC58, symBinAddr: 0x1000BFD48, symSize: 0x84 }
  - { offsetInCU: 0xB50B7, offset: 0xB50B7, size: 0x8, addend: 0x0, symName: __ZNSt3__113__unwrap_iterB7v160006INS_16reverse_iteratorIPPN5Catch10ISingletonEEENS_18__unwrap_iter_implIS6_Lb0EEELi0EEEDTclsrT0_8__unwrapclsr3stdE7declvalIT_EEEESA_, symObjAddr: 0xBCD7C, symBinAddr: 0x1000BFE6C, symSize: 0x44 }
  - { offsetInCU: 0xB50FD, offset: 0xB50FD, size: 0x8, addend: 0x0, symName: __ZNSt3__19make_pairB7v160006INS_16reverse_iteratorIPPN5Catch10ISingletonEEES6_EENS_4pairINS_18__unwrap_ref_decayIT_E4typeENS8_IT0_E4typeEEEOS9_OSC_, symObjAddr: 0xBCDC0, symBinAddr: 0x1000BFEB0, symSize: 0x38 }
  - { offsetInCU: 0xB514D, offset: 0xB514D, size: 0x8, addend: 0x0, symName: __ZNSt3__114__rewrap_rangeB7v160006INS_16reverse_iteratorIPPN5Catch10ISingletonEEES6_EET_S7_T0_, symObjAddr: 0xBCDF8, symBinAddr: 0x1000BFEE8, symSize: 0x5C }
  - { offsetInCU: 0xB519C, offset: 0xB519C, size: 0x8, addend: 0x0, symName: __ZNSt3__113__rewrap_iterB7v160006INS_16reverse_iteratorIPPN5Catch10ISingletonEEES6_NS_18__unwrap_iter_implIS6_Lb0EEEEET_S9_T0_, symObjAddr: 0xBCE54, symBinAddr: 0x1000BFF44, symSize: 0x74 }
  - { offsetInCU: 0xB51F4, offset: 0xB51F4, size: 0x8, addend: 0x0, symName: __ZNSt3__1neB7v160006IPPN5Catch10ISingletonES4_EEbRKNS_16reverse_iteratorIT_EERKNS5_IT0_EE, symObjAddr: 0xBCEC8, symBinAddr: 0x1000BFFB8, symSize: 0x48 }
  - { offsetInCU: 0xB52B6, offset: 0xB52B6, size: 0x8, addend: 0x0, symName: __ZNSt3__118__debug_db_erase_cB7v160006INS_6vectorIPN5Catch10ISingletonENS_9allocatorIS4_EEEEEEvPT_, symObjAddr: 0xBD4D4, symBinAddr: 0x1000C05C4, symSize: 0x10 }
  - { offsetInCU: 0xB52E9, offset: 0xB52E9, size: 0x8, addend: 0x0, symName: __ZNSt3__119__allocate_at_leastB7v160006INS_9allocatorISt13exception_ptrEEEENS_19__allocation_resultINS_16allocator_traitsIT_E7pointerEEERS6_m, symObjAddr: 0xBDCF0, symBinAddr: 0x1000C0DE0, symSize: 0x40 }
  - { offsetInCU: 0xB532E, offset: 0xB532E, size: 0x8, addend: 0x0, symName: __ZNSt3__142__uninitialized_allocator_move_if_noexceptB7v160006INS_9allocatorISt13exception_ptrEENS_16reverse_iteratorIPS2_EES6_S6_EET2_RT_T0_T1_S7_, symObjAddr: 0xBDEA4, symBinAddr: 0x1000C0F94, symSize: 0x12C }
  - { offsetInCU: 0xB53CF, offset: 0xB53CF, size: 0x8, addend: 0x0, symName: __ZNSt3__14swapB7v160006IPSt13exception_ptrEENS_9enable_ifIXaasr21is_move_constructibleIT_EE5valuesr18is_move_assignableIS4_EE5valueEvE4typeERS4_S7_, symObjAddr: 0xBE01C, symBinAddr: 0x1000C110C, symSize: 0x3C }
  - { offsetInCU: 0xB5424, offset: 0xB5424, size: 0x8, addend: 0x0, symName: __ZNSt3__125__debug_db_invalidate_allB7v160006INS_6vectorISt13exception_ptrNS_9allocatorIS2_EEEEEEvPT_, symObjAddr: 0xBE104, symBinAddr: 0x1000C11F4, symSize: 0x10 }
  - { offsetInCU: 0xB5457, offset: 0xB5457, size: 0x8, addend: 0x0, symName: __ZNSt3__122__make_exception_guardB7v160006INS_29_AllocatorDestroyRangeReverseINS_9allocatorISt13exception_ptrEENS_16reverse_iteratorIPS3_EEEEEENS_28__exception_guard_exceptionsIT_EESA_, symObjAddr: 0xBE114, symBinAddr: 0x1000C1204, symSize: 0x4C }
  - { offsetInCU: 0xB548F, offset: 0xB548F, size: 0x8, addend: 0x0, symName: __ZNSt3__1neB7v160006IPSt13exception_ptrS2_EEbRKNS_16reverse_iteratorIT_EERKNS3_IT0_EE, symObjAddr: 0xBE1A4, symBinAddr: 0x1000C1294, symSize: 0x48 }
  - { offsetInCU: 0xB54DE, offset: 0xB54DE, size: 0x8, addend: 0x0, symName: __ZNSt3__112__to_addressB7v160006INS_16reverse_iteratorIPSt13exception_ptrEEvEENS_5decayIDTclsr19__to_address_helperIT_EE6__callclsr3stdE7declvalIRKS6_EEEEE4typeES8_, symObjAddr: 0xBE220, symBinAddr: 0x1000C1310, symSize: 0x24 }
  - { offsetInCU: 0xB5540, offset: 0xB5540, size: 0x8, addend: 0x0, symName: __ZNSt3__119__allocator_destroyB7v160006INS_9allocatorISt13exception_ptrEENS_16reverse_iteratorINS4_IPS2_EEEES7_EEvRT_T0_T1_, symObjAddr: 0xBE500, symBinAddr: 0x1000C15F0, symSize: 0x70 }
  - { offsetInCU: 0xB55A6, offset: 0xB55A6, size: 0x8, addend: 0x0, symName: __ZNSt3__1neB7v160006INS_16reverse_iteratorIPSt13exception_ptrEES4_EEbRKNS1_IT_EERKNS1_IT0_EE, symObjAddr: 0xBE5AC, symBinAddr: 0x1000C169C, symSize: 0x60 }
  - { offsetInCU: 0xB55F5, offset: 0xB55F5, size: 0x8, addend: 0x0, symName: __ZNSt3__112__to_addressB7v160006INS_16reverse_iteratorINS1_IPSt13exception_ptrEEEEvEENS_5decayIDTclsr19__to_address_helperIT_EE6__callclsr3stdE7declvalIRKS7_EEEEE4typeES9_, symObjAddr: 0xBE60C, symBinAddr: 0x1000C16FC, symSize: 0x24 }
  - { offsetInCU: 0xB5658, offset: 0xB5658, size: 0x8, addend: 0x0, symName: __ZNSt3__119__allocate_at_leastB7v160006INS_9allocatorImEEEENS_19__allocation_resultINS_16allocator_traitsIT_E7pointerEEERS5_m, symObjAddr: 0xBF0C4, symBinAddr: 0x1000C21B4, symSize: 0x40 }
  - { offsetInCU: 0xB569D, offset: 0xB569D, size: 0x8, addend: 0x0, symName: __ZNSt3__142__uninitialized_allocator_move_if_noexceptB7v160006INS_9allocatorImEENS_16reverse_iteratorIPmEES5_mvEET1_RT_T0_S9_S6_, symObjAddr: 0xBF294, symBinAddr: 0x1000C2384, symSize: 0x78 }
  - { offsetInCU: 0xB571B, offset: 0xB571B, size: 0x8, addend: 0x0, symName: __ZNSt3__14swapB7v160006IPmEENS_9enable_ifIXaasr21is_move_constructibleIT_EE5valuesr18is_move_assignableIS3_EE5valueEvE4typeERS3_S6_, symObjAddr: 0xBF358, symBinAddr: 0x1000C2448, symSize: 0x3C }
  - { offsetInCU: 0xB5770, offset: 0xB5770, size: 0x8, addend: 0x0, symName: __ZNSt3__125__debug_db_invalidate_allB7v160006INS_6vectorImNS_9allocatorImEEEEEEvPT_, symObjAddr: 0xBF440, symBinAddr: 0x1000C2530, symSize: 0x10 }
  - { offsetInCU: 0xB57A3, offset: 0xB57A3, size: 0x8, addend: 0x0, symName: __ZNSt3__14moveB7v160006INS_16reverse_iteratorIPmEES3_EET0_T_S5_S4_, symObjAddr: 0xBF450, symBinAddr: 0x1000C2540, symSize: 0x78 }
  - { offsetInCU: 0xB5801, offset: 0xB5801, size: 0x8, addend: 0x0, symName: __ZNSt3__16__moveB7v160006INS_17_ClassicAlgPolicyENS_16reverse_iteratorIPmEES4_S4_EENS_4pairIT0_T2_EES6_T1_S7_, symObjAddr: 0xBF4C8, symBinAddr: 0x1000C25B8, symSize: 0x64 }
  - { offsetInCU: 0xB5871, offset: 0xB5871, size: 0x8, addend: 0x0, symName: __ZNSt3__123__dispatch_copy_or_moveB7v160006INS_17_ClassicAlgPolicyENS_11__move_loopIS1_EENS_14__move_trivialENS_16reverse_iteratorIPmEES7_S7_EENS_4pairIT2_T4_EES9_T3_SA_, symObjAddr: 0xBF52C, symBinAddr: 0x1000C261C, symSize: 0x64 }
  - { offsetInCU: 0xB58F3, offset: 0xB58F3, size: 0x8, addend: 0x0, symName: __ZNSt3__121__unwrap_and_dispatchB7v160006INS_10__overloadINS_11__move_loopINS_17_ClassicAlgPolicyEEENS_14__move_trivialEEENS_16reverse_iteratorIPmEES9_S9_Li0EEENS_4pairIT0_T2_EESB_T1_SC_, symObjAddr: 0xBF590, symBinAddr: 0x1000C2680, symSize: 0x12C }
  - { offsetInCU: 0xB598A, offset: 0xB598A, size: 0x8, addend: 0x0, symName: __ZNSt3__114__unwrap_rangeB7v160006INS_16reverse_iteratorIPmEES3_EENS_4pairIT0_S5_EET_S7_, symObjAddr: 0xBF6BC, symBinAddr: 0x1000C27AC, symSize: 0x84 }
  - { offsetInCU: 0xB5AB4, offset: 0xB5AB4, size: 0x8, addend: 0x0, symName: __ZNSt3__113__unwrap_iterB7v160006INS_16reverse_iteratorIPmEENS_18__unwrap_iter_implIS3_Lb0EEELi0EEEDTclsrT0_8__unwrapclsr3stdE7declvalIT_EEEES7_, symObjAddr: 0xBF7E0, symBinAddr: 0x1000C28D0, symSize: 0x44 }
  - { offsetInCU: 0xB5AFA, offset: 0xB5AFA, size: 0x8, addend: 0x0, symName: __ZNSt3__19make_pairB7v160006INS_16reverse_iteratorIPmEES3_EENS_4pairINS_18__unwrap_ref_decayIT_E4typeENS5_IT0_E4typeEEEOS6_OS9_, symObjAddr: 0xBF824, symBinAddr: 0x1000C2914, symSize: 0x38 }
  - { offsetInCU: 0xB5B4A, offset: 0xB5B4A, size: 0x8, addend: 0x0, symName: __ZNSt3__114__rewrap_rangeB7v160006INS_16reverse_iteratorIPmEES3_EET_S4_T0_, symObjAddr: 0xBF85C, symBinAddr: 0x1000C294C, symSize: 0x5C }
  - { offsetInCU: 0xB5B99, offset: 0xB5B99, size: 0x8, addend: 0x0, symName: __ZNSt3__113__rewrap_iterB7v160006INS_16reverse_iteratorIPmEES3_NS_18__unwrap_iter_implIS3_Lb0EEEEET_S6_T0_, symObjAddr: 0xBF8B8, symBinAddr: 0x1000C29A8, symSize: 0x74 }
  - { offsetInCU: 0xB5BF1, offset: 0xB5BF1, size: 0x8, addend: 0x0, symName: __ZNSt3__1neB7v160006IPmS1_EEbRKNS_16reverse_iteratorIT_EERKNS2_IT0_EE, symObjAddr: 0xBF92C, symBinAddr: 0x1000C2A1C, symSize: 0x48 }
  - { offsetInCU: 0xB5CB3, offset: 0xB5CB3, size: 0x8, addend: 0x0, symName: __ZNSt3__119__debug_db_insert_cB7v160006INS_6vectorINS_10unique_ptrINS_19basic_ostringstreamIcNS_11char_traitsIcEENS_9allocatorIcEEEENS_14default_deleteIS8_EEEENS6_ISB_EEEEEEvPT_, symObjAddr: 0xBFF88, symBinAddr: 0x1000C3078, symSize: 0x10 }
  - { offsetInCU: 0xB5CE6, offset: 0xB5CE6, size: 0x8, addend: 0x0, symName: __ZNSt3__118__debug_db_erase_cB7v160006INS_6vectorINS_10unique_ptrINS_19basic_ostringstreamIcNS_11char_traitsIcEENS_9allocatorIcEEEENS_14default_deleteIS8_EEEENS6_ISB_EEEEEEvPT_, symObjAddr: 0xC0178, symBinAddr: 0x1000C3268, symSize: 0x10 }
  - { offsetInCU: 0xB5D19, offset: 0xB5D19, size: 0x8, addend: 0x0, symName: __ZNSt3__15equalB7v160006INS_11__wrap_iterIPKcEES4_NS_10__equal_toEEEbT_S6_T0_T1_, symObjAddr: 0xC02EC, symBinAddr: 0x1000C33DC, symSize: 0xB0 }
  - { offsetInCU: 0xB5D8F, offset: 0xB5D8F, size: 0x8, addend: 0x0, symName: __ZNSt3__15equalB7v160006INS_16reverse_iteratorINS_11__wrap_iterIPKcEEEES6_NS_10__equal_toEEEbT_S8_T0_T1_, symObjAddr: 0xC03F8, symBinAddr: 0x1000C34E8, symSize: 0xBC }
  - { offsetInCU: 0xB5E05, offset: 0xB5E05, size: 0x8, addend: 0x0, symName: __ZNSt3__1neB7v160006INS_11__wrap_iterIPKcEES4_EEbRKNS_16reverse_iteratorIT_EERKNS5_IT0_EE, symObjAddr: 0xC04B4, symBinAddr: 0x1000C35A4, symSize: 0x54 }
  - { offsetInCU: 0xB5E53, offset: 0xB5E53, size: 0x8, addend: 0x0, symName: __ZNSt3__110__str_findB7v160006IcmNS_11char_traitsIcEELm18446744073709551615EEET0_PKT_S3_S6_S3_S3_, symObjAddr: 0xC05AC, symBinAddr: 0x1000C369C, symSize: 0xE4 }
  - { offsetInCU: 0xB5EFB, offset: 0xB5EFB, size: 0x8, addend: 0x0, symName: __ZNSt3__118__search_substringB7v160006IcNS_11char_traitsIcEEEEPKT_S5_S5_S5_S5_, symObjAddr: 0xC0690, symBinAddr: 0x1000C3780, symSize: 0x154 }
  - { offsetInCU: 0xB5F95, offset: 0xB5F95, size: 0x8, addend: 0x0, symName: __ZNSt3__123__str_find_first_not_ofB7v160006IcmNS_11char_traitsIcEELm18446744073709551615EEET0_PKT_S3_S6_S3_S3_, symObjAddr: 0xC07E4, symBinAddr: 0x1000C38D4, symSize: 0xDC }
  - { offsetInCU: 0xB6068, offset: 0xB6068, size: 0x8, addend: 0x0, symName: __ZNSt3__122__str_find_last_not_ofB7v160006IcmNS_11char_traitsIcEELm18446744073709551615EEET0_PKT_S3_S6_S3_S3_, symObjAddr: 0xC08C0, symBinAddr: 0x1000C39B0, symSize: 0xDC }
  - { offsetInCU: 0xB611E, offset: 0xB611E, size: 0x8, addend: 0x0, symName: __ZNSt3__1neB7v160006ERKNS_21__tree_const_iteratorINS_12__value_typeINS_12basic_stringIcNS_11char_traitsIcEENS_9allocatorIcEEEEN5Catch8TagAliasEEEPNS_11__tree_nodeISA_PvEElEESH_, symObjAddr: 0xC0EBC, symBinAddr: 0x1000C3FAC, symSize: 0x34 }
  - { offsetInCU: 0xB615B, offset: 0xB615B, size: 0x8, addend: 0x0, symName: __ZNSt3__1eqB7v160006ERKNS_21__tree_const_iteratorINS_12__value_typeINS_12basic_stringIcNS_11char_traitsIcEENS_9allocatorIcEEEEN5Catch8TagAliasEEEPNS_11__tree_nodeISA_PvEElEESH_, symObjAddr: 0xC1074, symBinAddr: 0x1000C4164, symSize: 0x30 }
  - { offsetInCU: 0xB6225, offset: 0xB6225, size: 0x8, addend: 0x0, symName: __ZNSt3__1miB7v160006IPKNS_12basic_stringIcNS_11char_traitsIcEENS_9allocatorIcEEEEPS6_EEDTmicldtfp_4baseEcldtfp0_4baseEERKNS_11__wrap_iterIT_EERKNSB_IT0_EE, symObjAddr: 0xC228C, symBinAddr: 0x1000C537C, symSize: 0x48 }
  - { offsetInCU: 0xB6274, offset: 0xB6274, size: 0x8, addend: 0x0, symName: __ZNSt3__18distanceB7v160006IPKNS_12basic_stringIcNS_11char_traitsIcEENS_9allocatorIcEEEEEENS_15iterator_traitsIT_E15difference_typeESA_SA_, symObjAddr: 0xC22D4, symBinAddr: 0x1000C53C4, symSize: 0x2C }
  - { offsetInCU: 0xB62BA, offset: 0xB62BA, size: 0x8, addend: 0x0, symName: __ZNSt3__14copyB7v160006IPKNS_12basic_stringIcNS_11char_traitsIcEENS_9allocatorIcEEEEPS6_EET0_T_SB_SA_, symObjAddr: 0xC2518, symBinAddr: 0x1000C5608, symSize: 0x40 }
  - { offsetInCU: 0xB6318, offset: 0xB6318, size: 0x8, addend: 0x0, symName: __ZNSt3__110__distanceB7v160006IPKNS_12basic_stringIcNS_11char_traitsIcEENS_9allocatorIcEEEEEENS_15iterator_traitsIT_E15difference_typeESA_SA_NS_26random_access_iterator_tagE, symObjAddr: 0xC2784, symBinAddr: 0x1000C5874, symSize: 0x28 }
  - { offsetInCU: 0xB6369, offset: 0xB6369, size: 0x8, addend: 0x0, symName: __ZNSt3__19__advanceB7v160006IPKNS_12basic_stringIcNS_11char_traitsIcEENS_9allocatorIcEEEEEEvRT_NS_15iterator_traitsIS9_E15difference_typeENS_26random_access_iterator_tagE, symObjAddr: 0xC27AC, symBinAddr: 0x1000C589C, symSize: 0x30 }
  - { offsetInCU: 0xB63B5, offset: 0xB63B5, size: 0x8, addend: 0x0, symName: __ZNSt3__130__uninitialized_allocator_copyB7v160006INS_9allocatorINS_12basic_stringIcNS_11char_traitsIcEENS1_IcEEEEEEPKS6_S9_PS6_EET2_RT_T0_T1_SB_, symObjAddr: 0xC27DC, symBinAddr: 0x1000C58CC, symSize: 0xF4 }
  - { offsetInCU: 0xB6454, offset: 0xB6454, size: 0x8, addend: 0x0, symName: __ZNSt3__113move_backwardB7v160006IPNS_12basic_stringIcNS_11char_traitsIcEENS_9allocatorIcEEEES7_EET0_T_S9_S8_, symObjAddr: 0xC28D0, symBinAddr: 0x1000C59C0, symSize: 0x40 }
  - { offsetInCU: 0xB64B2, offset: 0xB64B2, size: 0x8, addend: 0x0, symName: __ZNSt3__115__move_backwardB7v160006INS_17_ClassicAlgPolicyEPNS_12basic_stringIcNS_11char_traitsIcEENS_9allocatorIcEEEES8_S8_EENS_4pairIT0_T2_EESA_T1_SB_, symObjAddr: 0xC2910, symBinAddr: 0x1000C5A00, symSize: 0x44 }
  - { offsetInCU: 0xB6522, offset: 0xB6522, size: 0x8, addend: 0x0, symName: __ZNSt3__123__dispatch_copy_or_moveB7v160006INS_17_ClassicAlgPolicyENS_20__move_backward_loopIS1_EENS_23__move_backward_trivialEPNS_12basic_stringIcNS_11char_traitsIcEENS_9allocatorIcEEEESB_SB_EENS_4pairIT2_T4_EESD_T3_SE_, symObjAddr: 0xC2954, symBinAddr: 0x1000C5A44, symSize: 0x44 }
  - { offsetInCU: 0xB65A4, offset: 0xB65A4, size: 0x8, addend: 0x0, symName: __ZNSt3__121__unwrap_and_dispatchB7v160006INS_10__overloadINS_20__move_backward_loopINS_17_ClassicAlgPolicyEEENS_23__move_backward_trivialEEEPNS_12basic_stringIcNS_11char_traitsIcEENS_9allocatorIcEEEESD_SD_Li0EEENS_4pairIT0_T2_EESF_T1_SG_, symObjAddr: 0xC2998, symBinAddr: 0x1000C5A88, symSize: 0xB4 }
  - { offsetInCU: 0xB6639, offset: 0xB6639, size: 0x8, addend: 0x0, symName: __ZNSt3__16__copyB7v160006INS_17_ClassicAlgPolicyEPKNS_12basic_stringIcNS_11char_traitsIcEENS_9allocatorIcEEEES9_PS7_EENS_4pairIT0_T2_EESC_T1_SD_, symObjAddr: 0xC2B08, symBinAddr: 0x1000C5BF8, symSize: 0x44 }
  - { offsetInCU: 0xB66A9, offset: 0xB66A9, size: 0x8, addend: 0x0, symName: __ZNSt3__123__dispatch_copy_or_moveB7v160006INS_17_ClassicAlgPolicyENS_11__copy_loopIS1_EENS_14__copy_trivialEPKNS_12basic_stringIcNS_11char_traitsIcEENS_9allocatorIcEEEESC_PSA_EENS_4pairIT2_T4_EESF_T3_SG_, symObjAddr: 0xC2B4C, symBinAddr: 0x1000C5C3C, symSize: 0x44 }
  - { offsetInCU: 0xB672B, offset: 0xB672B, size: 0x8, addend: 0x0, symName: __ZNSt3__121__unwrap_and_dispatchB7v160006INS_10__overloadINS_11__copy_loopINS_17_ClassicAlgPolicyEEENS_14__copy_trivialEEEPKNS_12basic_stringIcNS_11char_traitsIcEENS_9allocatorIcEEEESE_PSC_Li0EEENS_4pairIT0_T2_EESH_T1_SI_, symObjAddr: 0xC2B90, symBinAddr: 0x1000C5C80, symSize: 0xB4 }
  - { offsetInCU: 0xB67C0, offset: 0xB67C0, size: 0x8, addend: 0x0, symName: __ZNSt3__114__unwrap_rangeB7v160006IPKNS_12basic_stringIcNS_11char_traitsIcEENS_9allocatorIcEEEES8_EENS_4pairIT0_SA_EET_SC_, symObjAddr: 0xC2C44, symBinAddr: 0x1000C5D34, symSize: 0x60 }
  - { offsetInCU: 0xB68E9, offset: 0xB68E9, size: 0x8, addend: 0x0, symName: __ZNSt3__19make_pairB7v160006IPKNS_12basic_stringIcNS_11char_traitsIcEENS_9allocatorIcEEEEPS6_EENS_4pairINS_18__unwrap_ref_decayIT_E4typeENSB_IT0_E4typeEEEOSC_OSF_, symObjAddr: 0xC2D2C, symBinAddr: 0x1000C5E1C, symSize: 0x38 }
  - { offsetInCU: 0xB6939, offset: 0xB6939, size: 0x8, addend: 0x0, symName: __ZNSt3__114__rewrap_rangeB7v160006IPKNS_12basic_stringIcNS_11char_traitsIcEENS_9allocatorIcEEEES8_EET_S9_T0_, symObjAddr: 0xC2D64, symBinAddr: 0x1000C5E54, symSize: 0x2C }
  - { offsetInCU: 0xB6987, offset: 0xB6987, size: 0x8, addend: 0x0, symName: __ZNSt3__19make_pairB7v160006IPKNS_12basic_stringIcNS_11char_traitsIcEENS_9allocatorIcEEEES8_EENS_4pairINS_18__unwrap_ref_decayIT_E4typeENSA_IT0_E4typeEEEOSB_OSE_, symObjAddr: 0xC2D90, symBinAddr: 0x1000C5E80, symSize: 0x38 }
  - { offsetInCU: 0xB69D7, offset: 0xB69D7, size: 0x8, addend: 0x0, symName: __ZNSt3__113__unwrap_iterB7v160006IPKNS_12basic_stringIcNS_11char_traitsIcEENS_9allocatorIcEEEENS_18__unwrap_iter_implIS8_Lb1EEELi0EEEDTclsrT0_8__unwrapclsr3stdE7declvalIT_EEEESC_, symObjAddr: 0xC2DC8, symBinAddr: 0x1000C5EB8, symSize: 0x24 }
  - { offsetInCU: 0xB6B51, offset: 0xB6B51, size: 0x8, addend: 0x0, symName: __ZNSt3__113__rewrap_iterB7v160006IPKNS_12basic_stringIcNS_11char_traitsIcEENS_9allocatorIcEEEES8_NS_18__unwrap_iter_implIS8_Lb1EEEEET_SB_T0_, symObjAddr: 0xC2EF0, symBinAddr: 0x1000C5FE0, symSize: 0x3C }
  - { offsetInCU: 0xB6BA8, offset: 0xB6BA8, size: 0x8, addend: 0x0, symName: __ZNSt3__142__uninitialized_allocator_move_if_noexceptB7v160006INS_9allocatorINS_12basic_stringIcNS_11char_traitsIcEENS1_IcEEEEEEPS6_S8_S8_EET2_RT_T0_T1_S9_, symObjAddr: 0xC3058, symBinAddr: 0x1000C6148, symSize: 0xF4 }
  - { offsetInCU: 0xB6C46, offset: 0xB6C46, size: 0x8, addend: 0x0, symName: __ZNSt3__14sortB7v160006INS_11__wrap_iterIPNS_12basic_stringIcNS_11char_traitsIcEENS_9allocatorIcEEEEEENS_6__lessIS7_S7_EEEEvT_SC_T0_, symObjAddr: 0xC314C, symBinAddr: 0x1000C623C, symSize: 0x40 }
  - { offsetInCU: 0xB6CA0, offset: 0xB6CA0, size: 0x8, addend: 0x0, symName: __ZNSt3__111__sort_implB7v160006INS_17_ClassicAlgPolicyENS_11__wrap_iterIPNS_12basic_stringIcNS_11char_traitsIcEENS_9allocatorIcEEEEEENS_6__lessIS8_S8_EEEEvT0_SD_RT1_, symObjAddr: 0xC318C, symBinAddr: 0x1000C627C, symSize: 0x84 }
  - { offsetInCU: 0xB6D48, offset: 0xB6D48, size: 0x8, addend: 0x0, symName: __ZNSt3__123__debug_randomize_rangeB7v160006INS_17_ClassicAlgPolicyENS_11__wrap_iterIPNS_12basic_stringIcNS_11char_traitsIcEENS_9allocatorIcEEEEEESA_EEvT0_T1_, symObjAddr: 0xC3210, symBinAddr: 0x1000C6300, symSize: 0x14 }
  - { offsetInCU: 0xB6D9B, offset: 0xB6D9B, size: 0x8, addend: 0x0, symName: __ZNSt3__16__sortIRNS_6__lessINS_12basic_stringIcNS_11char_traitsIcEENS_9allocatorIcEEEES7_EEPS7_EEvT0_SB_T_, symObjAddr: 0xC3224, symBinAddr: 0x1000C6314, symSize: 0x68 }
  - { offsetInCU: 0xB6E2C, offset: 0xB6E2C, size: 0x8, addend: 0x0, symName: __ZNSt3__113__unwrap_iterB7v160006INS_11__wrap_iterIPNS_12basic_stringIcNS_11char_traitsIcEENS_9allocatorIcEEEEEENS_18__unwrap_iter_implIS9_Lb1EEELi0EEEDTclsrT0_8__unwrapclsr3stdE7declvalIT_EEEESD_, symObjAddr: 0xC328C, symBinAddr: 0x1000C637C, symSize: 0x2C }
  - { offsetInCU: 0xB6E72, offset: 0xB6E72, size: 0x8, addend: 0x0, symName: __ZNSt3__17__log2iB7v160006IlEET_S1_, symObjAddr: 0xC32B8, symBinAddr: 0x1000C63A8, symSize: 0x54 }
  - { offsetInCU: 0xB6F1D, offset: 0xB6F1D, size: 0x8, addend: 0x0, symName: __ZNSt3__112__libcpp_clzB7v160006Em, symObjAddr: 0xC3A08, symBinAddr: 0x1000C6AF8, symSize: 0x1C }
  - { offsetInCU: 0xB6F4B, offset: 0xB6F4B, size: 0x8, addend: 0x0, symName: __ZNSt3__124__sort3_maybe_branchlessB7v160006INS_17_ClassicAlgPolicyERNS_6__lessINS_12basic_stringIcNS_11char_traitsIcEENS_9allocatorIcEEEES8_EEPS8_EENS_9enable_ifIXntsr21__use_branchless_sortIT0_T1_EE5valueEvE4typeESE_SE_SE_SD_, symObjAddr: 0xC3A8C, symBinAddr: 0x1000C6B7C, symSize: 0x3C }
  - { offsetInCU: 0xB6FC0, offset: 0xB6FC0, size: 0x8, addend: 0x0, symName: __ZNSt3__124__sort4_maybe_branchlessB7v160006INS_17_ClassicAlgPolicyERNS_6__lessINS_12basic_stringIcNS_11char_traitsIcEENS_9allocatorIcEEEES8_EEPS8_EENS_9enable_ifIXntsr21__use_branchless_sortIT0_T1_EE5valueEvE4typeESE_SE_SE_SE_SD_, symObjAddr: 0xC3AC8, symBinAddr: 0x1000C6BB8, symSize: 0x44 }
  - { offsetInCU: 0xB7045, offset: 0xB7045, size: 0x8, addend: 0x0, symName: __ZNSt3__124__sort5_maybe_branchlessB7v160006INS_17_ClassicAlgPolicyERNS_6__lessINS_12basic_stringIcNS_11char_traitsIcEENS_9allocatorIcEEEES8_EEPS8_EENS_9enable_ifIXntsr21__use_branchless_sortIT0_T1_EE5valueEvE4typeESE_SE_SE_SE_SE_SD_, symObjAddr: 0xC3B0C, symBinAddr: 0x1000C6BFC, symSize: 0x4C }
  - { offsetInCU: 0xB70DA, offset: 0xB70DA, size: 0x8, addend: 0x0, symName: __ZNSt3__114__partial_sortB7v160006INS_17_ClassicAlgPolicyERNS_6__lessINS_12basic_stringIcNS_11char_traitsIcEENS_9allocatorIcEEEES8_EEPS8_SB_EET1_SC_SC_T2_RT0_, symObjAddr: 0xC3CD4, symBinAddr: 0x1000C6DC4, symSize: 0x94 }
  - { offsetInCU: 0xB7168, offset: 0xB7168, size: 0x8, addend: 0x0, symName: __ZNSt3__119__sort5_wrap_policyB7v160006INS_17_ClassicAlgPolicyERNS_6__lessINS_12basic_stringIcNS_11char_traitsIcEENS_9allocatorIcEEEES8_EEPS8_EEjT1_SC_SC_SC_SC_T0_, symObjAddr: 0xC3D68, symBinAddr: 0x1000C6E58, symSize: 0x54 }
  - { offsetInCU: 0xB7217, offset: 0xB7217, size: 0x8, addend: 0x0, symName: __ZNSt3__17__sort3B7v160006INS_17_ClassicAlgPolicyERNS_6__lessINS_12basic_stringIcNS_11char_traitsIcEENS_9allocatorIcEEEES8_EEPS8_EEjT1_SC_SC_T0_, symObjAddr: 0xC3DBC, symBinAddr: 0x1000C6EAC, symSize: 0x144 }
  - { offsetInCU: 0xB729C, offset: 0xB729C, size: 0x8, addend: 0x0, symName: __ZNSt3__19iter_swapB7v160006IPNS_12basic_stringIcNS_11char_traitsIcEENS_9allocatorIcEEEES7_EEvT_T0_, symObjAddr: 0xC4284, symBinAddr: 0x1000C7374, symSize: 0x2C }
  - { offsetInCU: 0xB72E6, offset: 0xB72E6, size: 0x8, addend: 0x0, symName: __ZNSt3__14swapB7v160006IcNS_11char_traitsIcEENS_9allocatorIcEEEEvRNS_12basic_stringIT_T0_T1_EESA_, symObjAddr: 0xC42B0, symBinAddr: 0x1000C73A0, symSize: 0x2C }
  - { offsetInCU: 0xB733B, offset: 0xB733B, size: 0x8, addend: 0x0, symName: __ZNSt3__14swapB7v160006INS_12basic_stringIcNS_11char_traitsIcEENS_9allocatorIcEEE5__repEEENS_9enable_ifIXaasr21is_move_constructibleIT_EE5valuesr18is_move_assignableIS9_EE5valueEvE4typeERS9_SC_, symObjAddr: 0xC4384, symBinAddr: 0x1000C7474, symSize: 0x54 }
  - { offsetInCU: 0xB7390, offset: 0xB7390, size: 0x8, addend: 0x0, symName: __ZNSt3__116__swap_allocatorB7v160006INS_9allocatorIcEEEEvRT_S4_, symObjAddr: 0xC43D8, symBinAddr: 0x1000C74C8, symSize: 0x2C }
  - { offsetInCU: 0xB73D2, offset: 0xB73D2, size: 0x8, addend: 0x0, symName: __ZNSt3__116__swap_allocatorB7v160006INS_9allocatorIcEEEEvRT_S4_NS_17integral_constantIbLb0EEE, symObjAddr: 0xC4404, symBinAddr: 0x1000C74F4, symSize: 0x14 }
  - { offsetInCU: 0xB7417, offset: 0xB7417, size: 0x8, addend: 0x0, symName: __ZNSt3__17__sort4B7v160006INS_17_ClassicAlgPolicyERNS_6__lessINS_12basic_stringIcNS_11char_traitsIcEENS_9allocatorIcEEEES8_EEPS8_EEjT1_SC_SC_SC_T0_, symObjAddr: 0xC4418, symBinAddr: 0x1000C7508, symSize: 0xE4 }
  - { offsetInCU: 0xB74AB, offset: 0xB74AB, size: 0x8, addend: 0x0, symName: __ZNSt3__123__debug_randomize_rangeB7v160006INS_17_ClassicAlgPolicyEPNS_12basic_stringIcNS_11char_traitsIcEENS_9allocatorIcEEEES8_EEvT0_T1_, symObjAddr: 0xC44FC, symBinAddr: 0x1000C75EC, symSize: 0x14 }
  - { offsetInCU: 0xB74FF, offset: 0xB74FF, size: 0x8, addend: 0x0, symName: __ZNSt3__119__partial_sort_implB7v160006INS_17_ClassicAlgPolicyERNS_6__lessINS_12basic_stringIcNS_11char_traitsIcEENS_9allocatorIcEEEES8_EEPS8_SB_EET1_SC_SC_T2_OT0_, symObjAddr: 0xC4510, symBinAddr: 0x1000C7600, symSize: 0x110 }
  - { offsetInCU: 0xB759C, offset: 0xB759C, size: 0x8, addend: 0x0, symName: __ZNSt3__111__make_heapB7v160006INS_17_ClassicAlgPolicyERNS_6__lessINS_12basic_stringIcNS_11char_traitsIcEENS_9allocatorIcEEEES8_EEPS8_EEvT1_SC_OT0_, symObjAddr: 0xC4620, symBinAddr: 0x1000C7710, symSize: 0xC0 }
  - { offsetInCU: 0xB7646, offset: 0xB7646, size: 0x8, addend: 0x0, symName: __ZNSt3__111__sort_heapB7v160006INS_17_ClassicAlgPolicyERNS_6__lessINS_12basic_stringIcNS_11char_traitsIcEENS_9allocatorIcEEEES8_EEPS8_EEvT1_SC_OT0_, symObjAddr: 0xC4934, symBinAddr: 0x1000C7A24, symSize: 0x90 }
  - { offsetInCU: 0xB76E1, offset: 0xB76E1, size: 0x8, addend: 0x0, symName: __ZNSt3__110__pop_heapB7v160006INS_17_ClassicAlgPolicyENS_6__lessINS_12basic_stringIcNS_11char_traitsIcEENS_9allocatorIcEEEES8_EEPS8_EEvT1_SB_RT0_NS_15iterator_traitsISB_E15difference_typeE, symObjAddr: 0xC49C4, symBinAddr: 0x1000C7AB4, symSize: 0x138 }
  - { offsetInCU: 0xB7792, offset: 0xB7792, size: 0x8, addend: 0x0, symName: __ZNSt3__19__sift_upB7v160006INS_17_ClassicAlgPolicyERNS_6__lessINS_12basic_stringIcNS_11char_traitsIcEENS_9allocatorIcEEEES8_EEPS8_EEvT1_SC_OT0_NS_15iterator_traitsISC_E15difference_typeE, symObjAddr: 0xC4C04, symBinAddr: 0x1000C7CF4, symSize: 0x164 }
  - { offsetInCU: 0xB783A, offset: 0xB783A, size: 0x8, addend: 0x0, symName: __ZNSt3__17__sort5IRNS_6__lessINS_12basic_stringIcNS_11char_traitsIcEENS_9allocatorIcEEEES7_EEPS7_EEjT0_SB_SB_SB_SB_T_, symObjAddr: 0xC4D68, symBinAddr: 0x1000C7E58, symSize: 0x12C }
  - { offsetInCU: 0xB7947, offset: 0xB7947, size: 0x8, addend: 0x0, symName: __ZNSt3__112__to_addressB7v160006INS_11__wrap_iterIPNS_12basic_stringIcNS_11char_traitsIcEENS_9allocatorIcEEEEEEvEENS_5decayIDTclsr19__to_address_helperIT_EE6__callclsr3stdE7declvalIRKSB_EEEEE4typeESD_, symObjAddr: 0xC4EBC, symBinAddr: 0x1000C7FAC, symSize: 0x24 }
  - { offsetInCU: 0xB7A2E, offset: 0xB7A2E, size: 0x8, addend: 0x0, symName: __ZNSt3__16uniqueB7v160006INS_11__wrap_iterIPNS_12basic_stringIcNS_11char_traitsIcEENS_9allocatorIcEEEEEENS_10__equal_toEEET_SB_SB_T0_, symObjAddr: 0xC4F3C, symBinAddr: 0x1000C802C, symSize: 0x54 }
  - { offsetInCU: 0xB7A8C, offset: 0xB7A8C, size: 0x8, addend: 0x0, symName: __ZNSt3__18__uniqueB7v160006INS_17_ClassicAlgPolicyENS_11__wrap_iterIPNS_12basic_stringIcNS_11char_traitsIcEENS_9allocatorIcEEEEEESA_RNS_10__equal_toEEENS_4pairIT0_SE_EESE_T1_OT2_, symObjAddr: 0xC4F90, symBinAddr: 0x1000C8080, symSize: 0x13C }
  - { offsetInCU: 0xB7B19, offset: 0xB7B19, size: 0x8, addend: 0x0, symName: __ZNSt3__115__adjacent_findB7v160006INS_11__wrap_iterIPNS_12basic_stringIcNS_11char_traitsIcEENS_9allocatorIcEEEEEES9_RNS_10__equal_toEEET_SC_T0_OT1_, symObjAddr: 0xC50CC, symBinAddr: 0x1000C81BC, symSize: 0xCC }
  - { offsetInCU: 0xB88E6, offset: 0xB88E6, size: 0x8, addend: 0x0, symName: __ZNSt3__122__make_exception_guardB7v160006INS_6vectorIN5Catch8TestCaseENS_9allocatorIS3_EEE16__destroy_vectorEEENS_28__exception_guard_exceptionsIT_EES9_, symObjAddr: 0xC6138, symBinAddr: 0x1000C9228, symSize: 0x40 }
  - { offsetInCU: 0xB891D, offset: 0xB891D, size: 0x8, addend: 0x0, symName: __ZNSt3__119__debug_db_insert_cB7v160006INS_6vectorIN5Catch8TestCaseENS_9allocatorIS3_EEEEEEvPT_, symObjAddr: 0xC6178, symBinAddr: 0x1000C9268, symSize: 0x10 }
  - { offsetInCU: 0xB8950, offset: 0xB8950, size: 0x8, addend: 0x0, symName: __ZNSt3__119__allocate_at_leastB7v160006INS_9allocatorIN5Catch8TestCaseEEEEENS_19__allocation_resultINS_16allocator_traitsIT_E7pointerEEERS7_m, symObjAddr: 0xC6494, symBinAddr: 0x1000C9584, symSize: 0x40 }
  - { offsetInCU: 0xB8995, offset: 0xB8995, size: 0x8, addend: 0x0, symName: __ZNSt3__130__uninitialized_allocator_copyB7v160006INS_9allocatorIN5Catch8TestCaseEEEPS3_S5_S5_EET2_RT_T0_T1_S6_, symObjAddr: 0xC66D0, symBinAddr: 0x1000C97C0, symSize: 0xF4 }
  - { offsetInCU: 0xB8A34, offset: 0xB8A34, size: 0x8, addend: 0x0, symName: __ZNSt3__122__make_exception_guardB7v160006INS_29_AllocatorDestroyRangeReverseINS_9allocatorIN5Catch8TestCaseEEEPS4_EEEENS_28__exception_guard_exceptionsIT_EES9_, symObjAddr: 0xC683C, symBinAddr: 0x1000C992C, symSize: 0x4C }
  - { offsetInCU: 0xB8A6B, offset: 0xB8A6B, size: 0x8, addend: 0x0, symName: __ZNSt3__119__allocator_destroyB7v160006INS_9allocatorIN5Catch8TestCaseEEENS_16reverse_iteratorIPS3_EES7_EEvRT_T0_T1_, symObjAddr: 0xC6ACC, symBinAddr: 0x1000C9BBC, symSize: 0x70 }
  - { offsetInCU: 0xB8ACF, offset: 0xB8ACF, size: 0x8, addend: 0x0, symName: __ZNSt3__1neB7v160006IPN5Catch8TestCaseES3_EEbRKNS_16reverse_iteratorIT_EERKNS4_IT0_EE, symObjAddr: 0xC6B70, symBinAddr: 0x1000C9C60, symSize: 0x48 }
  - { offsetInCU: 0xB8B1E, offset: 0xB8B1E, size: 0x8, addend: 0x0, symName: __ZNSt3__112__to_addressB7v160006INS_16reverse_iteratorIPN5Catch8TestCaseEEEvEENS_5decayIDTclsr19__to_address_helperIT_EE6__callclsr3stdE7declvalIRKS7_EEEEE4typeES9_, symObjAddr: 0xC6BB8, symBinAddr: 0x1000C9CA8, symSize: 0x24 }
  - { offsetInCU: 0xB8B80, offset: 0xB8B80, size: 0x8, addend: 0x0, symName: __ZNSt3__14sortB7v160006INS_11__wrap_iterIPN5Catch8TestCaseEEENS_6__lessIS3_S3_EEEEvT_S8_T0_, symObjAddr: 0xC6D30, symBinAddr: 0x1000C9E20, symSize: 0x40 }
  - { offsetInCU: 0xB8BDA, offset: 0xB8BDA, size: 0x8, addend: 0x0, symName: __ZNSt3__111__sort_implB7v160006INS_17_ClassicAlgPolicyENS_11__wrap_iterIPN5Catch8TestCaseEEENS_6__lessIS4_S4_EEEEvT0_S9_RT1_, symObjAddr: 0xC6D70, symBinAddr: 0x1000C9E60, symSize: 0x84 }
  - { offsetInCU: 0xB8C82, offset: 0xB8C82, size: 0x8, addend: 0x0, symName: __ZNSt3__123__debug_randomize_rangeB7v160006INS_17_ClassicAlgPolicyENS_11__wrap_iterIPN5Catch8TestCaseEEES6_EEvT0_T1_, symObjAddr: 0xC6DF4, symBinAddr: 0x1000C9EE4, symSize: 0x14 }
  - { offsetInCU: 0xB8CD5, offset: 0xB8CD5, size: 0x8, addend: 0x0, symName: __ZNSt3__16__sortIRNS_6__lessIN5Catch8TestCaseES3_EEPS3_EEvT0_S7_T_, symObjAddr: 0xC6E08, symBinAddr: 0x1000C9EF8, symSize: 0x68 }
  - { offsetInCU: 0xB8D66, offset: 0xB8D66, size: 0x8, addend: 0x0, symName: __ZNSt3__113__unwrap_iterB7v160006INS_11__wrap_iterIPN5Catch8TestCaseEEENS_18__unwrap_iter_implIS5_Lb1EEELi0EEEDTclsrT0_8__unwrapclsr3stdE7declvalIT_EEEES9_, symObjAddr: 0xC6E70, symBinAddr: 0x1000C9F60, symSize: 0x2C }
  - { offsetInCU: 0xB8E20, offset: 0xB8E20, size: 0x8, addend: 0x0, symName: __ZNSt3__124__sort3_maybe_branchlessB7v160006INS_17_ClassicAlgPolicyERNS_6__lessIN5Catch8TestCaseES4_EEPS4_EENS_9enable_ifIXntsr21__use_branchless_sortIT0_T1_EE5valueEvE4typeESA_SA_SA_S9_, symObjAddr: 0xC7600, symBinAddr: 0x1000CA6F0, symSize: 0x3C }
  - { offsetInCU: 0xB8E95, offset: 0xB8E95, size: 0x8, addend: 0x0, symName: __ZNSt3__124__sort4_maybe_branchlessB7v160006INS_17_ClassicAlgPolicyERNS_6__lessIN5Catch8TestCaseES4_EEPS4_EENS_9enable_ifIXntsr21__use_branchless_sortIT0_T1_EE5valueEvE4typeESA_SA_SA_SA_S9_, symObjAddr: 0xC763C, symBinAddr: 0x1000CA72C, symSize: 0x44 }
  - { offsetInCU: 0xB8F1A, offset: 0xB8F1A, size: 0x8, addend: 0x0, symName: __ZNSt3__124__sort5_maybe_branchlessB7v160006INS_17_ClassicAlgPolicyERNS_6__lessIN5Catch8TestCaseES4_EEPS4_EENS_9enable_ifIXntsr21__use_branchless_sortIT0_T1_EE5valueEvE4typeESA_SA_SA_SA_SA_S9_, symObjAddr: 0xC7680, symBinAddr: 0x1000CA770, symSize: 0x4C }
  - { offsetInCU: 0xB8FAF, offset: 0xB8FAF, size: 0x8, addend: 0x0, symName: __ZNSt3__114__partial_sortB7v160006INS_17_ClassicAlgPolicyERNS_6__lessIN5Catch8TestCaseES4_EEPS4_S7_EET1_S8_S8_T2_RT0_, symObjAddr: 0xC7884, symBinAddr: 0x1000CA974, symSize: 0x94 }
  - { offsetInCU: 0xB903D, offset: 0xB903D, size: 0x8, addend: 0x0, symName: __ZNSt3__119__sort5_wrap_policyB7v160006INS_17_ClassicAlgPolicyERNS_6__lessIN5Catch8TestCaseES4_EEPS4_EEjT1_S8_S8_S8_S8_T0_, symObjAddr: 0xC7918, symBinAddr: 0x1000CAA08, symSize: 0x54 }
  - { offsetInCU: 0xB90EC, offset: 0xB90EC, size: 0x8, addend: 0x0, symName: __ZNSt3__17__sort3B7v160006INS_17_ClassicAlgPolicyERNS_6__lessIN5Catch8TestCaseES4_EEPS4_EEjT1_S8_S8_T0_, symObjAddr: 0xC796C, symBinAddr: 0x1000CAA5C, symSize: 0x144 }
  - { offsetInCU: 0xB9171, offset: 0xB9171, size: 0x8, addend: 0x0, symName: __ZNSt3__19iter_swapB7v160006IPN5Catch8TestCaseES3_EEvT_T0_, symObjAddr: 0xC7E3C, symBinAddr: 0x1000CAF2C, symSize: 0x2C }
  - { offsetInCU: 0xB91BC, offset: 0xB91BC, size: 0x8, addend: 0x0, symName: __ZNSt3__14swapB7v160006IN5Catch8TestCaseEEENS_9enable_ifIXaasr21is_move_constructibleIT_EE5valuesr18is_move_assignableIS4_EE5valueEvE4typeERS4_S7_, symObjAddr: 0xC7E68, symBinAddr: 0x1000CAF58, symSize: 0x50 }
  - { offsetInCU: 0xB9211, offset: 0xB9211, size: 0x8, addend: 0x0, symName: __ZNSt3__14swapB7v160006IPN5Catch12ITestInvokerEEENS_9enable_ifIXaasr21is_move_constructibleIT_EE5valuesr18is_move_assignableIS5_EE5valueEvE4typeERS5_S8_, symObjAddr: 0xC811C, symBinAddr: 0x1000CB20C, symSize: 0x3C }
  - { offsetInCU: 0xB9266, offset: 0xB9266, size: 0x8, addend: 0x0, symName: __ZNSt3__17__sort4B7v160006INS_17_ClassicAlgPolicyERNS_6__lessIN5Catch8TestCaseES4_EEPS4_EEjT1_S8_S8_S8_T0_, symObjAddr: 0xC8158, symBinAddr: 0x1000CB248, symSize: 0xE4 }
  - { offsetInCU: 0xB9321, offset: 0xB9321, size: 0x8, addend: 0x0, symName: __ZNSt3__123__debug_randomize_rangeB7v160006INS_17_ClassicAlgPolicyEPN5Catch8TestCaseES4_EEvT0_T1_, symObjAddr: 0xC8280, symBinAddr: 0x1000CB370, symSize: 0x14 }
  - { offsetInCU: 0xB9375, offset: 0xB9375, size: 0x8, addend: 0x0, symName: __ZNSt3__119__partial_sort_implB7v160006INS_17_ClassicAlgPolicyERNS_6__lessIN5Catch8TestCaseES4_EEPS4_S7_EET1_S8_S8_T2_OT0_, symObjAddr: 0xC8294, symBinAddr: 0x1000CB384, symSize: 0x110 }
  - { offsetInCU: 0xB9412, offset: 0xB9412, size: 0x8, addend: 0x0, symName: __ZNSt3__111__make_heapB7v160006INS_17_ClassicAlgPolicyERNS_6__lessIN5Catch8TestCaseES4_EEPS4_EEvT1_S8_OT0_, symObjAddr: 0xC83A4, symBinAddr: 0x1000CB494, symSize: 0xC0 }
  - { offsetInCU: 0xB94BC, offset: 0xB94BC, size: 0x8, addend: 0x0, symName: __ZNSt3__111__sort_heapB7v160006INS_17_ClassicAlgPolicyERNS_6__lessIN5Catch8TestCaseES4_EEPS4_EEvT1_S8_OT0_, symObjAddr: 0xC86F8, symBinAddr: 0x1000CB7E8, symSize: 0x90 }
  - { offsetInCU: 0xB9557, offset: 0xB9557, size: 0x8, addend: 0x0, symName: __ZNSt3__110__pop_heapB7v160006INS_17_ClassicAlgPolicyENS_6__lessIN5Catch8TestCaseES4_EEPS4_EEvT1_S7_RT0_NS_15iterator_traitsIS7_E15difference_typeE, symObjAddr: 0xC8788, symBinAddr: 0x1000CB878, symSize: 0x158 }
  - { offsetInCU: 0xB9608, offset: 0xB9608, size: 0x8, addend: 0x0, symName: __ZNSt3__19__sift_upB7v160006INS_17_ClassicAlgPolicyERNS_6__lessIN5Catch8TestCaseES4_EEPS4_EEvT1_S8_OT0_NS_15iterator_traitsIS8_E15difference_typeE, symObjAddr: 0xC89E8, symBinAddr: 0x1000CBAD8, symSize: 0x18C }
  - { offsetInCU: 0xB96B0, offset: 0xB96B0, size: 0x8, addend: 0x0, symName: __ZNSt3__17__sort5IRNS_6__lessIN5Catch8TestCaseES3_EEPS3_EEjT0_S7_S7_S7_S7_T_, symObjAddr: 0xC8B74, symBinAddr: 0x1000CBC64, symSize: 0x12C }
  - { offsetInCU: 0xB97BD, offset: 0xB97BD, size: 0x8, addend: 0x0, symName: __ZNSt3__112__to_addressB7v160006INS_11__wrap_iterIPN5Catch8TestCaseEEEvEENS_5decayIDTclsr19__to_address_helperIT_EE6__callclsr3stdE7declvalIRKS7_EEEEE4typeES9_, symObjAddr: 0xC8CC8, symBinAddr: 0x1000CBDB8, symSize: 0x24 }
  - { offsetInCU: 0xB98A4, offset: 0xB98A4, size: 0x8, addend: 0x0, symName: __ZNSt3__119__debug_db_insert_cB7v160006INS_6vectorINS_4pairIyPKN5Catch8TestCaseEEENS_9allocatorIS7_EEEEEEvPT_, symObjAddr: 0xC8DDC, symBinAddr: 0x1000CBECC, symSize: 0x10 }
  - { offsetInCU: 0xB98D7, offset: 0xB98D7, size: 0x8, addend: 0x0, symName: __ZNSt3__118__debug_db_erase_cB7v160006INS_6vectorINS_4pairIyPKN5Catch8TestCaseEEENS_9allocatorIS7_EEEEEEvPT_, symObjAddr: 0xC90A0, symBinAddr: 0x1000CC190, symSize: 0x10 }
  - { offsetInCU: 0xB990A, offset: 0xB990A, size: 0x8, addend: 0x0, symName: __ZNSt3__112__to_addressB7v160006INS_4pairIyPKN5Catch8TestCaseEEEEEPT_S8_, symObjAddr: 0xC91BC, symBinAddr: 0x1000CC2AC, symSize: 0x14 }
  - { offsetInCU: 0xB9941, offset: 0xB9941, size: 0x8, addend: 0x0, symName: __ZNSt3__119__allocate_at_leastB7v160006INS_9allocatorINS_4pairIyPKN5Catch8TestCaseEEEEEEENS_19__allocation_resultINS_16allocator_traitsIT_E7pointerEEERSB_m, symObjAddr: 0xC9720, symBinAddr: 0x1000CC810, symSize: 0x40 }
  - { offsetInCU: 0xB9986, offset: 0xB9986, size: 0x8, addend: 0x0, symName: __ZNSt3__142__uninitialized_allocator_move_if_noexceptB7v160006INS_9allocatorINS_4pairIyPKN5Catch8TestCaseEEEEENS_16reverse_iteratorIPS7_EESB_SB_EET2_RT_T0_T1_SC_, symObjAddr: 0xC98E8, symBinAddr: 0x1000CC9D8, symSize: 0x12C }
  - { offsetInCU: 0xB9A27, offset: 0xB9A27, size: 0x8, addend: 0x0, symName: __ZNSt3__14swapB7v160006IPNS_4pairIyPKN5Catch8TestCaseEEEEENS_9enable_ifIXaasr21is_move_constructibleIT_EE5valuesr18is_move_assignableIS9_EE5valueEvE4typeERS9_SC_, symObjAddr: 0xC9A60, symBinAddr: 0x1000CCB50, symSize: 0x3C }
  - { offsetInCU: 0xB9A7C, offset: 0xB9A7C, size: 0x8, addend: 0x0, symName: __ZNSt3__125__debug_db_invalidate_allB7v160006INS_6vectorINS_4pairIyPKN5Catch8TestCaseEEENS_9allocatorIS7_EEEEEEvPT_, symObjAddr: 0xC9B70, symBinAddr: 0x1000CCC60, symSize: 0x10 }
  - { offsetInCU: 0xB9AAF, offset: 0xB9AAF, size: 0x8, addend: 0x0, symName: __ZNSt3__122__make_exception_guardB7v160006INS_29_AllocatorDestroyRangeReverseINS_9allocatorINS_4pairIyPKN5Catch8TestCaseEEEEENS_16reverse_iteratorIPS8_EEEEEENS_28__exception_guard_exceptionsIT_EESF_, symObjAddr: 0xC9B80, symBinAddr: 0x1000CCC70, symSize: 0x4C }
  - { offsetInCU: 0xB9AE7, offset: 0xB9AE7, size: 0x8, addend: 0x0, symName: __ZNSt3__1neB7v160006IPNS_4pairIyPKN5Catch8TestCaseEEES7_EEbRKNS_16reverse_iteratorIT_EERKNS8_IT0_EE, symObjAddr: 0xC9C10, symBinAddr: 0x1000CCD00, symSize: 0x48 }
  - { offsetInCU: 0xB9B36, offset: 0xB9B36, size: 0x8, addend: 0x0, symName: __ZNSt3__112__to_addressB7v160006INS_16reverse_iteratorIPNS_4pairIyPKN5Catch8TestCaseEEEEEvEENS_5decayIDTclsr19__to_address_helperIT_EE6__callclsr3stdE7declvalIRKSB_EEEEE4typeESD_, symObjAddr: 0xC9C8C, symBinAddr: 0x1000CCD7C, symSize: 0x24 }
  - { offsetInCU: 0xB9B98, offset: 0xB9B98, size: 0x8, addend: 0x0, symName: __ZNSt3__119__allocator_destroyB7v160006INS_9allocatorINS_4pairIyPKN5Catch8TestCaseEEEEENS_16reverse_iteratorINS9_IPS7_EEEESC_EEvRT_T0_T1_, symObjAddr: 0xC9F64, symBinAddr: 0x1000CD054, symSize: 0x70 }
  - { offsetInCU: 0xB9BFE, offset: 0xB9BFE, size: 0x8, addend: 0x0, symName: __ZNSt3__1neB7v160006INS_16reverse_iteratorIPNS_4pairIyPKN5Catch8TestCaseEEEEES9_EEbRKNS1_IT_EERKNS1_IT0_EE, symObjAddr: 0xCA010, symBinAddr: 0x1000CD100, symSize: 0x60 }
  - { offsetInCU: 0xB9C4D, offset: 0xB9C4D, size: 0x8, addend: 0x0, symName: __ZNSt3__112__to_addressB7v160006INS_16reverse_iteratorINS1_IPNS_4pairIyPKN5Catch8TestCaseEEEEEEEvEENS_5decayIDTclsr19__to_address_helperIT_EE6__callclsr3stdE7declvalIRKSC_EEEEE4typeESE_, symObjAddr: 0xCA070, symBinAddr: 0x1000CD160, symSize: 0x24 }
  - { offsetInCU: 0xB9CAF, offset: 0xB9CAF, size: 0x8, addend: 0x0, symName: '__ZNSt3__111__sort_implB7v160006INS_17_ClassicAlgPolicyENS_11__wrap_iterIPNS_4pairIyPKN5Catch8TestCaseEEEEEZNS4_9sortTestsERKNS4_7IConfigERKNS_6vectorIS5_NS_9allocatorIS5_EEEEE4$_15EEvT0_SL_RT1_', symObjAddr: 0xCA86C, symBinAddr: 0x1000CD95C, symSize: 0x84 }
  - { offsetInCU: 0xB9D57, offset: 0xB9D57, size: 0x8, addend: 0x0, symName: __ZNSt3__123__debug_randomize_rangeB7v160006INS_17_ClassicAlgPolicyENS_11__wrap_iterIPNS_4pairIyPKN5Catch8TestCaseEEEEESA_EEvT0_T1_, symObjAddr: 0xCA8F0, symBinAddr: 0x1000CD9E0, symSize: 0x14 }
  - { offsetInCU: 0xB9DAA, offset: 0xB9DAA, size: 0x8, addend: 0x0, symName: '__ZNSt3__16__sortIRZN5Catch9sortTestsERKNS1_7IConfigERKNS_6vectorINS1_8TestCaseENS_9allocatorIS6_EEEEE4$_15PNS_4pairIyPKS6_EEEEvT0_SJ_T_', symObjAddr: 0xCA904, symBinAddr: 0x1000CD9F4, symSize: 0x68 }
  - { offsetInCU: 0xB9E3B, offset: 0xB9E3B, size: 0x8, addend: 0x0, symName: __ZNSt3__113__unwrap_iterB7v160006INS_11__wrap_iterIPNS_4pairIyPKN5Catch8TestCaseEEEEENS_18__unwrap_iter_implIS9_Lb1EEELi0EEEDTclsrT0_8__unwrapclsr3stdE7declvalIT_EEEESD_, symObjAddr: 0xCA96C, symBinAddr: 0x1000CDA5C, symSize: 0x2C }
  - { offsetInCU: 0xB9EB8, offset: 0xB9EB8, size: 0x8, addend: 0x0, symName: '__ZNSt3__124__sort3_maybe_branchlessB7v160006INS_17_ClassicAlgPolicyERZN5Catch9sortTestsERKNS2_7IConfigERKNS_6vectorINS2_8TestCaseENS_9allocatorIS7_EEEEE4$_15PNS_4pairIyPKS7_EEEENS_9enable_ifIXntsr21__use_branchless_sortIT0_T1_EE5valueEvE4typeESM_SM_SM_SL_', symObjAddr: 0xCB148, symBinAddr: 0x1000CE238, symSize: 0x3C }
  - { offsetInCU: 0xB9F2D, offset: 0xB9F2D, size: 0x8, addend: 0x0, symName: '__ZNSt3__124__sort4_maybe_branchlessB7v160006INS_17_ClassicAlgPolicyERZN5Catch9sortTestsERKNS2_7IConfigERKNS_6vectorINS2_8TestCaseENS_9allocatorIS7_EEEEE4$_15PNS_4pairIyPKS7_EEEENS_9enable_ifIXntsr21__use_branchless_sortIT0_T1_EE5valueEvE4typeESM_SM_SM_SM_SL_', symObjAddr: 0xCB184, symBinAddr: 0x1000CE274, symSize: 0x44 }
  - { offsetInCU: 0xB9FB2, offset: 0xB9FB2, size: 0x8, addend: 0x0, symName: '__ZNSt3__124__sort5_maybe_branchlessB7v160006INS_17_ClassicAlgPolicyERZN5Catch9sortTestsERKNS2_7IConfigERKNS_6vectorINS2_8TestCaseENS_9allocatorIS7_EEEEE4$_15PNS_4pairIyPKS7_EEEENS_9enable_ifIXntsr21__use_branchless_sortIT0_T1_EE5valueEvE4typeESM_SM_SM_SM_SM_SL_', symObjAddr: 0xCB1C8, symBinAddr: 0x1000CE2B8, symSize: 0x4C }
  - { offsetInCU: 0xBA047, offset: 0xBA047, size: 0x8, addend: 0x0, symName: '__ZNSt3__114__partial_sortB7v160006INS_17_ClassicAlgPolicyERZN5Catch9sortTestsERKNS2_7IConfigERKNS_6vectorINS2_8TestCaseENS_9allocatorIS7_EEEEE4$_15PNS_4pairIyPKS7_EESJ_EET1_SK_SK_T2_RT0_', symObjAddr: 0xCB358, symBinAddr: 0x1000CE448, symSize: 0x94 }
  - { offsetInCU: 0xBA0D5, offset: 0xBA0D5, size: 0x8, addend: 0x0, symName: '__ZNSt3__119__sort5_wrap_policyB7v160006INS_17_ClassicAlgPolicyERZN5Catch9sortTestsERKNS2_7IConfigERKNS_6vectorINS2_8TestCaseENS_9allocatorIS7_EEEEE4$_15PNS_4pairIyPKS7_EEEEjT1_SK_SK_SK_SK_T0_', symObjAddr: 0xCB3EC, symBinAddr: 0x1000CE4DC, symSize: 0x54 }
  - { offsetInCU: 0xBA184, offset: 0xBA184, size: 0x8, addend: 0x0, symName: '__ZNSt3__17__sort3B7v160006INS_17_ClassicAlgPolicyERZN5Catch9sortTestsERKNS2_7IConfigERKNS_6vectorINS2_8TestCaseENS_9allocatorIS7_EEEEE4$_15PNS_4pairIyPKS7_EEEEjT1_SK_SK_T0_', symObjAddr: 0xCB440, symBinAddr: 0x1000CE530, symSize: 0x144 }
  - { offsetInCU: 0xBA209, offset: 0xBA209, size: 0x8, addend: 0x0, symName: __ZNSt3__19iter_swapB7v160006IPNS_4pairIyPKN5Catch8TestCaseEEES7_EEvT_T0_, symObjAddr: 0xCB8AC, symBinAddr: 0x1000CE99C, symSize: 0x2C }
  - { offsetInCU: 0xBA253, offset: 0xBA253, size: 0x8, addend: 0x0, symName: __ZNSt3__14swapB7v160006IyPKN5Catch8TestCaseEEENS_9enable_ifIXaasr14__is_swappableIT_EE5valuesr14__is_swappableIT0_EE5valueEvE4typeERNS_4pairIS6_S7_EESC_, symObjAddr: 0xCB8D8, symBinAddr: 0x1000CE9C8, symSize: 0x2C }
  - { offsetInCU: 0xBA2A3, offset: 0xBA2A3, size: 0x8, addend: 0x0, symName: __ZNSt3__14swapB7v160006IyEENS_9enable_ifIXaasr21is_move_constructibleIT_EE5valuesr18is_move_assignableIS2_EE5valueEvE4typeERS2_S5_, symObjAddr: 0xCB948, symBinAddr: 0x1000CEA38, symSize: 0x3C }
  - { offsetInCU: 0xBA2F8, offset: 0xBA2F8, size: 0x8, addend: 0x0, symName: __ZNSt3__14swapB7v160006IPKN5Catch8TestCaseEEENS_9enable_ifIXaasr21is_move_constructibleIT_EE5valuesr18is_move_assignableIS6_EE5valueEvE4typeERS6_S9_, symObjAddr: 0xCB984, symBinAddr: 0x1000CEA74, symSize: 0x3C }
  - { offsetInCU: 0xBA34D, offset: 0xBA34D, size: 0x8, addend: 0x0, symName: '__ZNSt3__17__sort4B7v160006INS_17_ClassicAlgPolicyERZN5Catch9sortTestsERKNS2_7IConfigERKNS_6vectorINS2_8TestCaseENS_9allocatorIS7_EEEEE4$_15PNS_4pairIyPKS7_EEEEjT1_SK_SK_SK_T0_', symObjAddr: 0xCB9C0, symBinAddr: 0x1000CEAB0, symSize: 0xE4 }
  - { offsetInCU: 0xBA408, offset: 0xBA408, size: 0x8, addend: 0x0, symName: __ZNSt3__123__debug_randomize_rangeB7v160006INS_17_ClassicAlgPolicyEPNS_4pairIyPKN5Catch8TestCaseEEES8_EEvT0_T1_, symObjAddr: 0xCBB18, symBinAddr: 0x1000CEC08, symSize: 0x14 }
  - { offsetInCU: 0xBA45C, offset: 0xBA45C, size: 0x8, addend: 0x0, symName: '__ZNSt3__119__partial_sort_implB7v160006INS_17_ClassicAlgPolicyERZN5Catch9sortTestsERKNS2_7IConfigERKNS_6vectorINS2_8TestCaseENS_9allocatorIS7_EEEEE4$_15PNS_4pairIyPKS7_EESJ_EET1_SK_SK_T2_OT0_', symObjAddr: 0xCBB2C, symBinAddr: 0x1000CEC1C, symSize: 0x110 }
  - { offsetInCU: 0xBA4F9, offset: 0xBA4F9, size: 0x8, addend: 0x0, symName: '__ZNSt3__111__make_heapB7v160006INS_17_ClassicAlgPolicyERZN5Catch9sortTestsERKNS2_7IConfigERKNS_6vectorINS2_8TestCaseENS_9allocatorIS7_EEEEE4$_15PNS_4pairIyPKS7_EEEEvT1_SK_OT0_', symObjAddr: 0xCBC3C, symBinAddr: 0x1000CED2C, symSize: 0xB8 }
  - { offsetInCU: 0xBA5A3, offset: 0xBA5A3, size: 0x8, addend: 0x0, symName: '__ZNSt3__111__sort_heapB7v160006INS_17_ClassicAlgPolicyERZN5Catch9sortTestsERKNS2_7IConfigERKNS_6vectorINS2_8TestCaseENS_9allocatorIS7_EEEEE4$_15PNS_4pairIyPKS7_EEEEvT1_SK_OT0_', symObjAddr: 0xCBF00, symBinAddr: 0x1000CEFF0, symSize: 0x90 }
  - { offsetInCU: 0xBA63E, offset: 0xBA63E, size: 0x8, addend: 0x0, symName: '__ZNSt3__110__pop_heapB7v160006INS_17_ClassicAlgPolicyEZN5Catch9sortTestsERKNS2_7IConfigERKNS_6vectorINS2_8TestCaseENS_9allocatorIS7_EEEEE4$_15PNS_4pairIyPKS7_EEEEvT1_SJ_RT0_NS_15iterator_traitsISJ_E15difference_typeE', symObjAddr: 0xCBF90, symBinAddr: 0x1000CF080, symSize: 0xF4 }
  - { offsetInCU: 0xBA6F7, offset: 0xBA6F7, size: 0x8, addend: 0x0, symName: '__ZNSt3__19__sift_upB7v160006INS_17_ClassicAlgPolicyERZN5Catch9sortTestsERKNS2_7IConfigERKNS_6vectorINS2_8TestCaseENS_9allocatorIS7_EEEEE4$_15PNS_4pairIyPKS7_EEEEvT1_SK_OT0_NS_15iterator_traitsISK_E15difference_typeE', symObjAddr: 0xCC184, symBinAddr: 0x1000CF274, symSize: 0x11C }
  - { offsetInCU: 0xBA7AF, offset: 0xBA7AF, size: 0x8, addend: 0x0, symName: '__ZNSt3__17__sort5IRZN5Catch9sortTestsERKNS1_7IConfigERKNS_6vectorINS1_8TestCaseENS_9allocatorIS6_EEEEE4$_15PNS_4pairIyPKS6_EEEEjT0_SJ_SJ_SJ_SJ_T_', symObjAddr: 0xCC2A0, symBinAddr: 0x1000CF390, symSize: 0x12C }
  - { offsetInCU: 0xBA8BC, offset: 0xBA8BC, size: 0x8, addend: 0x0, symName: __ZNSt3__112__to_addressB7v160006INS_11__wrap_iterIPNS_4pairIyPKN5Catch8TestCaseEEEEEvEENS_5decayIDTclsr19__to_address_helperIT_EE6__callclsr3stdE7declvalIRKSB_EEEEE4typeESD_, symObjAddr: 0xCC3F4, symBinAddr: 0x1000CF4E4, symSize: 0x24 }
  - { offsetInCU: 0xBA9A2, offset: 0xBA9A2, size: 0x8, addend: 0x0, symName: __ZNSt3__142__uninitialized_allocator_move_if_noexceptB7v160006INS_9allocatorIN5Catch8TestCaseEEENS_16reverse_iteratorIPS3_EES7_S7_EET2_RT_T0_T1_S8_, symObjAddr: 0xCC970, symBinAddr: 0x1000CFA60, symSize: 0x11C }
  - { offsetInCU: 0xBAA43, offset: 0xBAA43, size: 0x8, addend: 0x0, symName: __ZNSt3__14swapB7v160006IPN5Catch8TestCaseEEENS_9enable_ifIXaasr21is_move_constructibleIT_EE5valuesr18is_move_assignableIS5_EE5valueEvE4typeERS5_S8_, symObjAddr: 0xCCA8C, symBinAddr: 0x1000CFB7C, symSize: 0x3C }
  - { offsetInCU: 0xBAA98, offset: 0xBAA98, size: 0x8, addend: 0x0, symName: __ZNSt3__125__debug_db_invalidate_allB7v160006INS_6vectorIN5Catch8TestCaseENS_9allocatorIS3_EEEEEEvPT_, symObjAddr: 0xCCAC8, symBinAddr: 0x1000CFBB8, symSize: 0x10 }
  - { offsetInCU: 0xBAACB, offset: 0xBAACB, size: 0x8, addend: 0x0, symName: __ZNSt3__122__make_exception_guardB7v160006INS_29_AllocatorDestroyRangeReverseINS_9allocatorIN5Catch8TestCaseEEENS_16reverse_iteratorIPS4_EEEEEENS_28__exception_guard_exceptionsIT_EESB_, symObjAddr: 0xCCAD8, symBinAddr: 0x1000CFBC8, symSize: 0x4C }
  - { offsetInCU: 0xBAB02, offset: 0xBAB02, size: 0x8, addend: 0x0, symName: __ZNSt3__119__allocator_destroyB7v160006INS_9allocatorIN5Catch8TestCaseEEENS_16reverse_iteratorINS5_IPS3_EEEES8_EEvRT_T0_T1_, symObjAddr: 0xCCDB4, symBinAddr: 0x1000CFEA4, symSize: 0x70 }
  - { offsetInCU: 0xBAB68, offset: 0xBAB68, size: 0x8, addend: 0x0, symName: __ZNSt3__1neB7v160006INS_16reverse_iteratorIPN5Catch8TestCaseEEES5_EEbRKNS1_IT_EERKNS1_IT0_EE, symObjAddr: 0xCCE60, symBinAddr: 0x1000CFF50, symSize: 0x60 }
  - { offsetInCU: 0xBABB7, offset: 0xBABB7, size: 0x8, addend: 0x0, symName: __ZNSt3__112__to_addressB7v160006INS_16reverse_iteratorINS1_IPN5Catch8TestCaseEEEEEvEENS_5decayIDTclsr19__to_address_helperIT_EE6__callclsr3stdE7declvalIRKS8_EEEEE4typeESA_, symObjAddr: 0xCCEC0, symBinAddr: 0x1000CFFB0, symSize: 0x24 }
  - { offsetInCU: 0xBAC70, offset: 0xBAC70, size: 0x8, addend: 0x0, symName: __ZNSt3__115__debug_db_swapB7v160006INS_6vectorIN5Catch8TestCaseENS_9allocatorIS3_EEEEEEvPT_S8_, symObjAddr: 0xCE960, symBinAddr: 0x1000D1A50, symSize: 0x14 }
  - { offsetInCU: 0xBACB1, offset: 0xBACB1, size: 0x8, addend: 0x0, symName: __ZNSt3__111__str_rfindB7v160006IcmNS_11char_traitsIcEELm18446744073709551615EEET0_PKT_S3_S6_S3_S3_, symObjAddr: 0xCEAC8, symBinAddr: 0x1000D1BB8, symSize: 0x128 }
  - { offsetInCU: 0xBAD5A, offset: 0xBAD5A, size: 0x8, addend: 0x0, symName: __ZNSt3__118__find_end_classicB7v160006IPKcS2_FbccEEET_S4_S4_T0_S5_RT1_, symObjAddr: 0xCEBF0, symBinAddr: 0x1000D1CE0, symSize: 0x64 }
  - { offsetInCU: 0xBADEE, offset: 0xBADEE, size: 0x8, addend: 0x0, symName: __ZNSt3__115__find_end_implB7v160006INS_17_ClassicAlgPolicyEPKcS3_S3_S3_FbccENS_10__identityES5_EENS_4pairIT0_S7_EES7_T1_T2_T3_RT4_RT5_RT6_NS_20forward_iterator_tagESI_, symObjAddr: 0xCEC54, symBinAddr: 0x1000D1D44, symSize: 0x1F4 }
  - { offsetInCU: 0xBAF1F, offset: 0xBAF1F, size: 0x8, addend: 0x0, symName: __ZNSt3__18__invokeB7v160006IRFbccEJRKcS4_EEEDTclclsr3stdE7declvalIT_EEspclsr3stdE7declvalIT0_EEEEOS5_DpOS6_, symObjAddr: 0xCEE9C, symBinAddr: 0x1000D1F8C, symSize: 0x40 }
  - { offsetInCU: 0xBAF87, offset: 0xBAF87, size: 0x8, addend: 0x0, symName: __ZNSt3__115allocate_sharedB7v160006IN5Catch16TestCaseTracking14SectionTrackerENS_9allocatorIS3_EEJNS2_15NameAndLocationERNS2_14TrackerContextEDnEvEENS_10shared_ptrIT_EERKT0_DpOT1_, symObjAddr: 0xCEF10, symBinAddr: 0x1000D2000, symSize: 0xA8 }
  - { offsetInCU: 0xBB319, offset: 0xBB319, size: 0x8, addend: 0x0, symName: __ZNSt3__14swapB7v160006IPN5Catch16TestCaseTracking8ITrackerEEENS_9enable_ifIXaasr21is_move_constructibleIT_EE5valuesr18is_move_assignableIS6_EE5valueEvE4typeERS6_S9_, symObjAddr: 0xCF8E0, symBinAddr: 0x1000D29D0, symSize: 0x3C }
  - { offsetInCU: 0xBB36E, offset: 0xBB36E, size: 0x8, addend: 0x0, symName: __ZNSt3__119__debug_db_insert_cB7v160006INS_6vectorINS_10shared_ptrIN5Catch16TestCaseTracking8ITrackerEEENS_9allocatorIS6_EEEEEEvPT_, symObjAddr: 0xCF9B0, symBinAddr: 0x1000D2AA0, symSize: 0x10 }
  - { offsetInCU: 0xBB3A1, offset: 0xBB3A1, size: 0x8, addend: 0x0, symName: __ZNSt3__119__allocate_at_leastB7v160006INS_9allocatorINS_10shared_ptrIN5Catch16TestCaseTracking8ITrackerEEEEEEENS_19__allocation_resultINS_16allocator_traitsIT_E7pointerEEERSA_m, symObjAddr: 0xD01E0, symBinAddr: 0x1000D32D0, symSize: 0x40 }
  - { offsetInCU: 0xBB3E6, offset: 0xBB3E6, size: 0x8, addend: 0x0, symName: __ZNSt3__142__uninitialized_allocator_move_if_noexceptB7v160006INS_9allocatorINS_10shared_ptrIN5Catch16TestCaseTracking8ITrackerEEEEENS_16reverse_iteratorIPS6_EESA_SA_EET2_RT_T0_T1_SB_, symObjAddr: 0xD0394, symBinAddr: 0x1000D3484, symSize: 0x12C }
  - { offsetInCU: 0xBB487, offset: 0xBB487, size: 0x8, addend: 0x0, symName: __ZNSt3__14swapB7v160006IPNS_10shared_ptrIN5Catch16TestCaseTracking8ITrackerEEEEENS_9enable_ifIXaasr21is_move_constructibleIT_EE5valuesr18is_move_assignableIS8_EE5valueEvE4typeERS8_SB_, symObjAddr: 0xD050C, symBinAddr: 0x1000D35FC, symSize: 0x3C }
  - { offsetInCU: 0xBB4DC, offset: 0xBB4DC, size: 0x8, addend: 0x0, symName: __ZNSt3__122__make_exception_guardB7v160006INS_29_AllocatorDestroyRangeReverseINS_9allocatorINS_10shared_ptrIN5Catch16TestCaseTracking8ITrackerEEEEENS_16reverse_iteratorIPS7_EEEEEENS_28__exception_guard_exceptionsIT_EESE_, symObjAddr: 0xD05F4, symBinAddr: 0x1000D36E4, symSize: 0x4C }
  - { offsetInCU: 0xBB514, offset: 0xBB514, size: 0x8, addend: 0x0, symName: __ZNSt3__1neB7v160006IPNS_10shared_ptrIN5Catch16TestCaseTracking8ITrackerEEES6_EEbRKNS_16reverse_iteratorIT_EERKNS7_IT0_EE, symObjAddr: 0xD0684, symBinAddr: 0x1000D3774, symSize: 0x48 }
  - { offsetInCU: 0xBB563, offset: 0xBB563, size: 0x8, addend: 0x0, symName: __ZNSt3__112__to_addressB7v160006INS_16reverse_iteratorIPNS_10shared_ptrIN5Catch16TestCaseTracking8ITrackerEEEEEvEENS_5decayIDTclsr19__to_address_helperIT_EE6__callclsr3stdE7declvalIRKSA_EEEEE4typeESC_, symObjAddr: 0xD0700, symBinAddr: 0x1000D37F0, symSize: 0x24 }
  - { offsetInCU: 0xBB5C5, offset: 0xBB5C5, size: 0x8, addend: 0x0, symName: __ZNSt3__119__allocator_destroyB7v160006INS_9allocatorINS_10shared_ptrIN5Catch16TestCaseTracking8ITrackerEEEEENS_16reverse_iteratorINS8_IPS6_EEEESB_EEvRT_T0_T1_, symObjAddr: 0xD0A54, symBinAddr: 0x1000D3B44, symSize: 0x70 }
  - { offsetInCU: 0xBB62B, offset: 0xBB62B, size: 0x8, addend: 0x0, symName: __ZNSt3__1neB7v160006INS_16reverse_iteratorIPNS_10shared_ptrIN5Catch16TestCaseTracking8ITrackerEEEEES8_EEbRKNS1_IT_EERKNS1_IT0_EE, symObjAddr: 0xD0B00, symBinAddr: 0x1000D3BF0, symSize: 0x60 }
  - { offsetInCU: 0xBB67A, offset: 0xBB67A, size: 0x8, addend: 0x0, symName: __ZNSt3__112__to_addressB7v160006INS_16reverse_iteratorINS1_IPNS_10shared_ptrIN5Catch16TestCaseTracking8ITrackerEEEEEEEvEENS_5decayIDTclsr19__to_address_helperIT_EE6__callclsr3stdE7declvalIRKSB_EEEEE4typeESD_, symObjAddr: 0xD0B60, symBinAddr: 0x1000D3C50, symSize: 0x24 }
  - { offsetInCU: 0xBB6DD, offset: 0xBB6DD, size: 0x8, addend: 0x0, symName: __ZNSt3__14swapB7v160006IPN5Catch16TestCaseTracking14SectionTrackerEEENS_9enable_ifIXaasr21is_move_constructibleIT_EE5valuesr18is_move_assignableIS6_EE5valueEvE4typeERS6_S9_, symObjAddr: 0xD1154, symBinAddr: 0x1000D4244, symSize: 0x3C }
  - { offsetInCU: 0xBB731, offset: 0xBB731, size: 0x8, addend: 0x0, symName: __ZNSt3__115allocate_sharedB7v160006IN5Catch16TestCaseTracking14SectionTrackerENS_9allocatorIS3_EEJRKNS2_15NameAndLocationERNS2_14TrackerContextEPNS2_8ITrackerEEvEENS_10shared_ptrIT_EERKT0_DpOT1_, symObjAddr: 0xD1190, symBinAddr: 0x1000D4280, symSize: 0xA8 }
  - { offsetInCU: 0xBB7D8, offset: 0xBB7D8, size: 0x8, addend: 0x0, symName: __ZNSt3__18distanceB7v160006INS_11__wrap_iterIPKNS_12basic_stringIcNS_11char_traitsIcEENS_9allocatorIcEEEEEEEENS_15iterator_traitsIT_E15difference_typeESC_SC_, symObjAddr: 0xD1584, symBinAddr: 0x1000D4674, symSize: 0x3C }
  - { offsetInCU: 0xBB81E, offset: 0xBB81E, size: 0x8, addend: 0x0, symName: __ZNSt3__14copyB7v160006INS_11__wrap_iterIPKNS_12basic_stringIcNS_11char_traitsIcEENS_9allocatorIcEEEEEEPS7_EET0_T_SD_SC_, symObjAddr: 0xD16AC, symBinAddr: 0x1000D479C, symSize: 0x50 }
  - { offsetInCU: 0xBB87C, offset: 0xBB87C, size: 0x8, addend: 0x0, symName: __ZNSt3__110__distanceB7v160006INS_11__wrap_iterIPKNS_12basic_stringIcNS_11char_traitsIcEENS_9allocatorIcEEEEEEEENS_15iterator_traitsIT_E15difference_typeESC_SC_NS_26random_access_iterator_tagE, symObjAddr: 0xD17EC, symBinAddr: 0x1000D48DC, symSize: 0x30 }
  - { offsetInCU: 0xBB8CD, offset: 0xBB8CD, size: 0x8, addend: 0x0, symName: __ZNSt3__19__advanceB7v160006INS_11__wrap_iterIPKNS_12basic_stringIcNS_11char_traitsIcEENS_9allocatorIcEEEEEEEEvRT_NS_15iterator_traitsISB_E15difference_typeENS_26random_access_iterator_tagE, symObjAddr: 0xD181C, symBinAddr: 0x1000D490C, symSize: 0x2C }
  - { offsetInCU: 0xBB919, offset: 0xBB919, size: 0x8, addend: 0x0, symName: __ZNSt3__130__uninitialized_allocator_copyB7v160006INS_9allocatorINS_12basic_stringIcNS_11char_traitsIcEENS1_IcEEEEEENS_11__wrap_iterIPKS6_EESB_PS6_EET2_RT_T0_T1_SD_, symObjAddr: 0xD1848, symBinAddr: 0x1000D4938, symSize: 0xF8 }
  - { offsetInCU: 0xBB9B8, offset: 0xBB9B8, size: 0x8, addend: 0x0, symName: __ZNSt3__16__copyB7v160006INS_17_ClassicAlgPolicyENS_11__wrap_iterIPKNS_12basic_stringIcNS_11char_traitsIcEENS_9allocatorIcEEEEEESB_PS8_EENS_4pairIT0_T2_EESE_T1_SF_, symObjAddr: 0xD1940, symBinAddr: 0x1000D4A30, symSize: 0x54 }
  - { offsetInCU: 0xBBA28, offset: 0xBBA28, size: 0x8, addend: 0x0, symName: __ZNSt3__123__dispatch_copy_or_moveB7v160006INS_17_ClassicAlgPolicyENS_11__copy_loopIS1_EENS_14__copy_trivialENS_11__wrap_iterIPKNS_12basic_stringIcNS_11char_traitsIcEENS_9allocatorIcEEEEEESE_PSB_EENS_4pairIT2_T4_EESH_T3_SI_, symObjAddr: 0xD1994, symBinAddr: 0x1000D4A84, symSize: 0x54 }
  - { offsetInCU: 0xBBAAA, offset: 0xBBAAA, size: 0x8, addend: 0x0, symName: __ZNSt3__121__unwrap_and_dispatchB7v160006INS_10__overloadINS_11__copy_loopINS_17_ClassicAlgPolicyEEENS_14__copy_trivialEEENS_11__wrap_iterIPKNS_12basic_stringIcNS_11char_traitsIcEENS_9allocatorIcEEEEEESG_PSD_Li0EEENS_4pairIT0_T2_EESJ_T1_SK_, symObjAddr: 0xD19E8, symBinAddr: 0x1000D4AD8, symSize: 0xCC }
  - { offsetInCU: 0xBBB3F, offset: 0xBBB3F, size: 0x8, addend: 0x0, symName: __ZNSt3__114__unwrap_rangeB7v160006INS_11__wrap_iterIPKNS_12basic_stringIcNS_11char_traitsIcEENS_9allocatorIcEEEEEES9_EENS_4pairIT0_SC_EET_SE_, symObjAddr: 0xD1AB4, symBinAddr: 0x1000D4BA4, symSize: 0x70 }
  - { offsetInCU: 0xBBB8D, offset: 0xBBB8D, size: 0x8, addend: 0x0, symName: __ZNSt3__19make_pairB7v160006INS_11__wrap_iterIPKNS_12basic_stringIcNS_11char_traitsIcEENS_9allocatorIcEEEEEEPS7_EENS_4pairINS_18__unwrap_ref_decayIT_E4typeENSD_IT0_E4typeEEEOSE_OSH_, symObjAddr: 0xD1B24, symBinAddr: 0x1000D4C14, symSize: 0x38 }
  - { offsetInCU: 0xBBBDD, offset: 0xBBBDD, size: 0x8, addend: 0x0, symName: __ZNSt3__114__rewrap_rangeB7v160006INS_11__wrap_iterIPKNS_12basic_stringIcNS_11char_traitsIcEENS_9allocatorIcEEEEEES9_EET_SB_T0_, symObjAddr: 0xD1B5C, symBinAddr: 0x1000D4C4C, symSize: 0x3C }
  - { offsetInCU: 0xBBC2C, offset: 0xBBC2C, size: 0x8, addend: 0x0, symName: __ZNSt3__113__unwrap_iterB7v160006INS_11__wrap_iterIPKNS_12basic_stringIcNS_11char_traitsIcEENS_9allocatorIcEEEEEENS_18__unwrap_iter_implISA_Lb1EEELi0EEEDTclsrT0_8__unwrapclsr3stdE7declvalIT_EEEESE_, symObjAddr: 0xD1B98, symBinAddr: 0x1000D4C88, symSize: 0x2C }
  - { offsetInCU: 0xBBCCB, offset: 0xBBCCB, size: 0x8, addend: 0x0, symName: __ZNSt3__112__to_addressB7v160006INS_11__wrap_iterIPKNS_12basic_stringIcNS_11char_traitsIcEENS_9allocatorIcEEEEEEvEENS_5decayIDTclsr19__to_address_helperIT_EE6__callclsr3stdE7declvalIRKSC_EEEEE4typeESE_, symObjAddr: 0xD1BEC, symBinAddr: 0x1000D4CDC, symSize: 0x24 }
  - { offsetInCU: 0xBBE8D, offset: 0xBBE8D, size: 0x8, addend: 0x0, symName: __ZNSt3__113__rewrap_iterB7v160006INS_11__wrap_iterIPKNS_12basic_stringIcNS_11char_traitsIcEENS_9allocatorIcEEEEEES9_NS_18__unwrap_iter_implISA_Lb1EEEEET_SD_T0_, symObjAddr: 0xD1CDC, symBinAddr: 0x1000D4DCC, symSize: 0x4C }
  - { offsetInCU: 0xBBEE5, offset: 0xBBEE5, size: 0x8, addend: 0x0, symName: __ZNSt3__1neB7v160006IPKN5Catch8TestSpec6FilterEEEbRKNS_11__wrap_iterIT_EESA_, symObjAddr: 0xD1FB8, symBinAddr: 0x1000D50A8, symSize: 0x34 }
  - { offsetInCU: 0xBBF2B, offset: 0xBBF2B, size: 0x8, addend: 0x0, symName: __ZNSt3__1eqB7v160006IPKN5Catch8TestSpec6FilterEEEbRKNS_11__wrap_iterIT_EESA_, symObjAddr: 0xD2058, symBinAddr: 0x1000D5148, symSize: 0x48 }
  - { offsetInCU: 0xBBF71, offset: 0xBBF71, size: 0x8, addend: 0x0, symName: __ZNSt3__122__make_exception_guardB7v160006INS_6vectorIN5Catch8TestSpec11FilterMatchENS_9allocatorIS4_EEE16__destroy_vectorEEENS_28__exception_guard_exceptionsIT_EESA_, symObjAddr: 0xD2194, symBinAddr: 0x1000D5284, symSize: 0x40 }
  - { offsetInCU: 0xBBFA8, offset: 0xBBFA8, size: 0x8, addend: 0x0, symName: __ZNSt3__119__allocate_at_leastB7v160006INS_9allocatorIN5Catch8TestSpec11FilterMatchEEEEENS_19__allocation_resultINS_16allocator_traitsIT_E7pointerEEERS8_m, symObjAddr: 0xD246C, symBinAddr: 0x1000D555C, symSize: 0x40 }
  - { offsetInCU: 0xBBFEE, offset: 0xBBFEE, size: 0x8, addend: 0x0, symName: __ZNSt3__119__debug_db_insert_cB7v160006INS_6vectorIPKN5Catch8TestCaseENS_9allocatorIS5_EEEEEEvPT_, symObjAddr: 0xD28AC, symBinAddr: 0x1000D599C, symSize: 0x10 }
  - { offsetInCU: 0xBC021, offset: 0xBC021, size: 0x8, addend: 0x0, symName: __ZNSt3__119__allocate_at_leastB7v160006INS_9allocatorIPKN5Catch8TestCaseEEEEENS_19__allocation_resultINS_16allocator_traitsIT_E7pointerEEERS9_m, symObjAddr: 0xD3388, symBinAddr: 0x1000D6478, symSize: 0x40 }
  - { offsetInCU: 0xBC066, offset: 0xBC066, size: 0x8, addend: 0x0, symName: __ZNSt3__142__uninitialized_allocator_move_if_noexceptB7v160006INS_9allocatorIPKN5Catch8TestCaseEEENS_16reverse_iteratorIPS5_EES9_S5_vEET1_RT_T0_SD_SA_, symObjAddr: 0xD353C, symBinAddr: 0x1000D662C, symSize: 0x78 }
  - { offsetInCU: 0xBC0E4, offset: 0xBC0E4, size: 0x8, addend: 0x0, symName: __ZNSt3__14swapB7v160006IPPKN5Catch8TestCaseEEENS_9enable_ifIXaasr21is_move_constructibleIT_EE5valuesr18is_move_assignableIS7_EE5valueEvE4typeERS7_SA_, symObjAddr: 0xD3600, symBinAddr: 0x1000D66F0, symSize: 0x3C }
  - { offsetInCU: 0xBC139, offset: 0xBC139, size: 0x8, addend: 0x0, symName: __ZNSt3__125__debug_db_invalidate_allB7v160006INS_6vectorIPKN5Catch8TestCaseENS_9allocatorIS5_EEEEEEvPT_, symObjAddr: 0xD36E8, symBinAddr: 0x1000D67D8, symSize: 0x10 }
  - { offsetInCU: 0xBC16C, offset: 0xBC16C, size: 0x8, addend: 0x0, symName: __ZNSt3__14moveB7v160006INS_16reverse_iteratorIPPKN5Catch8TestCaseEEES7_EET0_T_S9_S8_, symObjAddr: 0xD36F8, symBinAddr: 0x1000D67E8, symSize: 0x78 }
  - { offsetInCU: 0xBC1CA, offset: 0xBC1CA, size: 0x8, addend: 0x0, symName: __ZNSt3__16__moveB7v160006INS_17_ClassicAlgPolicyENS_16reverse_iteratorIPPKN5Catch8TestCaseEEES8_S8_EENS_4pairIT0_T2_EESA_T1_SB_, symObjAddr: 0xD3770, symBinAddr: 0x1000D6860, symSize: 0x64 }
  - { offsetInCU: 0xBC23A, offset: 0xBC23A, size: 0x8, addend: 0x0, symName: __ZNSt3__123__dispatch_copy_or_moveB7v160006INS_17_ClassicAlgPolicyENS_11__move_loopIS1_EENS_14__move_trivialENS_16reverse_iteratorIPPKN5Catch8TestCaseEEESB_SB_EENS_4pairIT2_T4_EESD_T3_SE_, symObjAddr: 0xD37D4, symBinAddr: 0x1000D68C4, symSize: 0x64 }
  - { offsetInCU: 0xBC2BC, offset: 0xBC2BC, size: 0x8, addend: 0x0, symName: __ZNSt3__121__unwrap_and_dispatchB7v160006INS_10__overloadINS_11__move_loopINS_17_ClassicAlgPolicyEEENS_14__move_trivialEEENS_16reverse_iteratorIPPKN5Catch8TestCaseEEESD_SD_Li0EEENS_4pairIT0_T2_EESF_T1_SG_, symObjAddr: 0xD3838, symBinAddr: 0x1000D6928, symSize: 0x12C }
  - { offsetInCU: 0xBC353, offset: 0xBC353, size: 0x8, addend: 0x0, symName: __ZNSt3__114__unwrap_rangeB7v160006INS_16reverse_iteratorIPPKN5Catch8TestCaseEEES7_EENS_4pairIT0_S9_EET_SB_, symObjAddr: 0xD3964, symBinAddr: 0x1000D6A54, symSize: 0x84 }
  - { offsetInCU: 0xBC47D, offset: 0xBC47D, size: 0x8, addend: 0x0, symName: __ZNSt3__113__unwrap_iterB7v160006INS_16reverse_iteratorIPPKN5Catch8TestCaseEEENS_18__unwrap_iter_implIS7_Lb0EEELi0EEEDTclsrT0_8__unwrapclsr3stdE7declvalIT_EEEESB_, symObjAddr: 0xD3A88, symBinAddr: 0x1000D6B78, symSize: 0x44 }
  - { offsetInCU: 0xBC4C3, offset: 0xBC4C3, size: 0x8, addend: 0x0, symName: __ZNSt3__19make_pairB7v160006INS_16reverse_iteratorIPPKN5Catch8TestCaseEEES7_EENS_4pairINS_18__unwrap_ref_decayIT_E4typeENS9_IT0_E4typeEEEOSA_OSD_, symObjAddr: 0xD3ACC, symBinAddr: 0x1000D6BBC, symSize: 0x38 }
  - { offsetInCU: 0xBC513, offset: 0xBC513, size: 0x8, addend: 0x0, symName: __ZNSt3__114__rewrap_rangeB7v160006INS_16reverse_iteratorIPPKN5Catch8TestCaseEEES7_EET_S8_T0_, symObjAddr: 0xD3B04, symBinAddr: 0x1000D6BF4, symSize: 0x5C }
  - { offsetInCU: 0xBC562, offset: 0xBC562, size: 0x8, addend: 0x0, symName: __ZNSt3__113__rewrap_iterB7v160006INS_16reverse_iteratorIPPKN5Catch8TestCaseEEES7_NS_18__unwrap_iter_implIS7_Lb0EEEEET_SA_T0_, symObjAddr: 0xD3B60, symBinAddr: 0x1000D6C50, symSize: 0x74 }
  - { offsetInCU: 0xBC5BA, offset: 0xBC5BA, size: 0x8, addend: 0x0, symName: __ZNSt3__1neB7v160006IPPKN5Catch8TestCaseES5_EEbRKNS_16reverse_iteratorIT_EERKNS6_IT0_EE, symObjAddr: 0xD3BD4, symBinAddr: 0x1000D6CC4, symSize: 0x48 }
  - { offsetInCU: 0xBC67C, offset: 0xBC67C, size: 0x8, addend: 0x0, symName: __ZNSt3__122__make_exception_guardB7v160006INS_6vectorIPKN5Catch8TestCaseENS_9allocatorIS5_EEE16__destroy_vectorEEENS_28__exception_guard_exceptionsIT_EESB_, symObjAddr: 0xD40C0, symBinAddr: 0x1000D71B0, symSize: 0x40 }
  - { offsetInCU: 0xBC6B2, offset: 0xBC6B2, size: 0x8, addend: 0x0, symName: __ZNSt3__130__uninitialized_allocator_copyB7v160006INS_9allocatorIPKN5Catch8TestCaseEEEPS5_S7_S7_EET2_RT_T0_T1_S8_, symObjAddr: 0xD4334, symBinAddr: 0x1000D7424, symSize: 0xF4 }
  - { offsetInCU: 0xBC751, offset: 0xBC751, size: 0x8, addend: 0x0, symName: __ZNSt3__122__make_exception_guardB7v160006INS_29_AllocatorDestroyRangeReverseINS_9allocatorIPKN5Catch8TestCaseEEEPS6_EEEENS_28__exception_guard_exceptionsIT_EESB_, symObjAddr: 0xD4428, symBinAddr: 0x1000D7518, symSize: 0x4C }
  - { offsetInCU: 0xBC788, offset: 0xBC788, size: 0x8, addend: 0x0, symName: __ZNSt3__119__allocator_destroyB7v160006INS_9allocatorIPKN5Catch8TestCaseEEENS_16reverse_iteratorIPS5_EES9_EEvRT_T0_T1_, symObjAddr: 0xD46B0, symBinAddr: 0x1000D77A0, symSize: 0x70 }
  - { offsetInCU: 0xBC7EC, offset: 0xBC7EC, size: 0x8, addend: 0x0, symName: __ZNSt3__112__to_addressB7v160006INS_16reverse_iteratorIPPKN5Catch8TestCaseEEEvEENS_5decayIDTclsr19__to_address_helperIT_EE6__callclsr3stdE7declvalIRKS9_EEEEE4typeESB_, symObjAddr: 0xD4720, symBinAddr: 0x1000D7810, symSize: 0x24 }
  - { offsetInCU: 0xBC84F, offset: 0xBC84F, size: 0x8, addend: 0x0, symName: __ZNSt3__115__debug_db_swapB7v160006INS_6vectorIPKN5Catch8TestCaseENS_9allocatorIS5_EEEEEEvPT_SA_, symObjAddr: 0xD4988, symBinAddr: 0x1000D7A78, symSize: 0x14 }
  - { offsetInCU: 0xBC891, offset: 0xBC891, size: 0x8, addend: 0x0, symName: __ZNSt3__119__debug_db_insert_cB7v160006INS_6vectorImNS_9allocatorImEEEEEEvPT_, symObjAddr: 0xD4B68, symBinAddr: 0x1000D7C58, symSize: 0x10 }
  - { offsetInCU: 0xBC8C3, offset: 0xBC8C3, size: 0x8, addend: 0x0, symName: __ZNSt3__142__uninitialized_allocator_move_if_noexceptB7v160006INS_9allocatorIN5Catch8TestSpec6FilterEEENS_16reverse_iteratorIPS4_EES8_S8_EET2_RT_T0_T1_S9_, symObjAddr: 0xD5264, symBinAddr: 0x1000D8354, symSize: 0x11C }
  - { offsetInCU: 0xBC964, offset: 0xBC964, size: 0x8, addend: 0x0, symName: __ZNSt3__14swapB7v160006IPN5Catch8TestSpec6FilterEEENS_9enable_ifIXaasr21is_move_constructibleIT_EE5valuesr18is_move_assignableIS6_EE5valueEvE4typeERS6_S9_, symObjAddr: 0xD5380, symBinAddr: 0x1000D8470, symSize: 0x3C }
  - { offsetInCU: 0xBC9B9, offset: 0xBC9B9, size: 0x8, addend: 0x0, symName: __ZNSt3__122__make_exception_guardB7v160006INS_29_AllocatorDestroyRangeReverseINS_9allocatorIN5Catch8TestSpec6FilterEEENS_16reverse_iteratorIPS5_EEEEEENS_28__exception_guard_exceptionsIT_EESC_, symObjAddr: 0xD53BC, symBinAddr: 0x1000D84AC, symSize: 0x4C }
  - { offsetInCU: 0xBC9F0, offset: 0xBC9F0, size: 0x8, addend: 0x0, symName: __ZNSt3__119__allocator_destroyB7v160006INS_9allocatorIN5Catch8TestSpec6FilterEEENS_16reverse_iteratorINS6_IPS4_EEEES9_EEvRT_T0_T1_, symObjAddr: 0xD580C, symBinAddr: 0x1000D88FC, symSize: 0x70 }
  - { offsetInCU: 0xBCA56, offset: 0xBCA56, size: 0x8, addend: 0x0, symName: __ZNSt3__1neB7v160006INS_16reverse_iteratorIPN5Catch8TestSpec6FilterEEES6_EEbRKNS1_IT_EERKNS1_IT0_EE, symObjAddr: 0xD58B8, symBinAddr: 0x1000D89A8, symSize: 0x60 }
  - { offsetInCU: 0xBCAA5, offset: 0xBCAA5, size: 0x8, addend: 0x0, symName: __ZNSt3__112__to_addressB7v160006INS_16reverse_iteratorINS1_IPN5Catch8TestSpec6FilterEEEEEvEENS_5decayIDTclsr19__to_address_helperIT_EE6__callclsr3stdE7declvalIRKS9_EEEEE4typeESB_, symObjAddr: 0xD5918, symBinAddr: 0x1000D8A08, symSize: 0x24 }
  - { offsetInCU: 0xBCB07, offset: 0xBCB07, size: 0x8, addend: 0x0, symName: __ZNSt3__115allocate_sharedB7v160006IN5Catch8TestSpec11NamePatternENS_9allocatorIS3_EEJRNS_12basic_stringIcNS_11char_traitsIcEENS4_IcEEEESB_EvEENS_10shared_ptrIT_EERKT0_DpOT1_, symObjAddr: 0xD5C58, symBinAddr: 0x1000D8D48, symSize: 0xA0 }
  - { offsetInCU: 0xBCE82, offset: 0xBCE82, size: 0x8, addend: 0x0, symName: __ZNSt3__115allocate_sharedB7v160006IN5Catch8TestSpec15ExcludedPatternENS_9allocatorIS3_EEJRNS_10shared_ptrINS2_7PatternEEEEvEENS6_IT_EERKT0_DpOT1_, symObjAddr: 0xD65D8, symBinAddr: 0x1000D96C8, symSize: 0x98 }
  - { offsetInCU: 0xBD1E9, offset: 0xBD1E9, size: 0x8, addend: 0x0, symName: __ZNSt3__14swapB7v160006IPN5Catch8TestSpec7PatternEEENS_9enable_ifIXaasr21is_move_constructibleIT_EE5valuesr18is_move_assignableIS6_EE5valueEvE4typeERS6_S9_, symObjAddr: 0xD6FC0, symBinAddr: 0x1000DA0B0, symSize: 0x3C }
  - { offsetInCU: 0xBD23D, offset: 0xBD23D, size: 0x8, addend: 0x0, symName: __ZNSt3__142__uninitialized_allocator_move_if_noexceptB7v160006INS_9allocatorINS_10shared_ptrIN5Catch8TestSpec7PatternEEEEENS_16reverse_iteratorIPS6_EESA_SA_EET2_RT_T0_T1_SB_, symObjAddr: 0xD7630, symBinAddr: 0x1000DA720, symSize: 0x11C }
  - { offsetInCU: 0xBD2DE, offset: 0xBD2DE, size: 0x8, addend: 0x0, symName: __ZNSt3__14swapB7v160006IPNS_10shared_ptrIN5Catch8TestSpec7PatternEEEEENS_9enable_ifIXaasr21is_move_constructibleIT_EE5valuesr18is_move_assignableIS8_EE5valueEvE4typeERS8_SB_, symObjAddr: 0xD774C, symBinAddr: 0x1000DA83C, symSize: 0x3C }
  - { offsetInCU: 0xBD333, offset: 0xBD333, size: 0x8, addend: 0x0, symName: __ZNSt3__122__make_exception_guardB7v160006INS_29_AllocatorDestroyRangeReverseINS_9allocatorINS_10shared_ptrIN5Catch8TestSpec7PatternEEEEENS_16reverse_iteratorIPS7_EEEEEENS_28__exception_guard_exceptionsIT_EESE_, symObjAddr: 0xD7788, symBinAddr: 0x1000DA878, symSize: 0x4C }
  - { offsetInCU: 0xBD36A, offset: 0xBD36A, size: 0x8, addend: 0x0, symName: __ZNSt3__119__allocator_destroyB7v160006INS_9allocatorINS_10shared_ptrIN5Catch8TestSpec7PatternEEEEENS_16reverse_iteratorINS8_IPS6_EEEESB_EEvRT_T0_T1_, symObjAddr: 0xD7AD8, symBinAddr: 0x1000DABC8, symSize: 0x70 }
  - { offsetInCU: 0xBD3D0, offset: 0xBD3D0, size: 0x8, addend: 0x0, symName: __ZNSt3__1neB7v160006INS_16reverse_iteratorIPNS_10shared_ptrIN5Catch8TestSpec7PatternEEEEES8_EEbRKNS1_IT_EERKNS1_IT0_EE, symObjAddr: 0xD7B84, symBinAddr: 0x1000DAC74, symSize: 0x60 }
  - { offsetInCU: 0xBD41F, offset: 0xBD41F, size: 0x8, addend: 0x0, symName: __ZNSt3__112__to_addressB7v160006INS_16reverse_iteratorINS1_IPNS_10shared_ptrIN5Catch8TestSpec7PatternEEEEEEEvEENS_5decayIDTclsr19__to_address_helperIT_EE6__callclsr3stdE7declvalIRKSB_EEEEE4typeESD_, symObjAddr: 0xD7BE4, symBinAddr: 0x1000DACD4, symSize: 0x24 }
  - { offsetInCU: 0xBD482, offset: 0xBD482, size: 0x8, addend: 0x0, symName: __ZNSt3__1miB7v160006IPKcPcEEDTmicldtfp_4baseEcldtfp0_4baseEERKNS_11__wrap_iterIT_EERKNS5_IT0_EE, symObjAddr: 0xD7F24, symBinAddr: 0x1000DB014, symSize: 0x40 }
  - { offsetInCU: 0xBD4D0, offset: 0xBD4D0, size: 0x8, addend: 0x0, symName: __ZNSt3__115allocate_sharedB7v160006IN5Catch8TestSpec10TagPatternENS_9allocatorIS3_EEJRA2_KcRNS_12basic_stringIcNS_11char_traitsIcEENS4_IcEEEEEvEENS_10shared_ptrIT_EERKT0_DpOT1_, symObjAddr: 0xD7FC8, symBinAddr: 0x1000DB0B8, symSize: 0xA0 }
  - { offsetInCU: 0xBD84B, offset: 0xBD84B, size: 0x8, addend: 0x0, symName: __ZNSt3__115allocate_sharedB7v160006IN5Catch8TestSpec10TagPatternENS_9allocatorIS3_EEJRNS_12basic_stringIcNS_11char_traitsIcEENS4_IcEEEESB_EvEENS_10shared_ptrIT_EERKT0_DpOT1_, symObjAddr: 0xD8980, symBinAddr: 0x1000DBA70, symSize: 0xA0 }
  - { offsetInCU: 0xBD912, offset: 0xBD912, size: 0x8, addend: 0x0, symName: __ZNSt3__119__debug_db_insert_cB7v160006INS_12basic_stringIwNS_11char_traitsIwEENS_9allocatorIwEEEEEEvPT_, symObjAddr: 0xD8E58, symBinAddr: 0x1000DBF48, symSize: 0x10 }
  - { offsetInCU: 0xBD945, offset: 0xBD945, size: 0x8, addend: 0x0, symName: __ZNSt3__118__constexpr_wcslenB7v160006EPKw, symObjAddr: 0xD8F24, symBinAddr: 0x1000DC014, symSize: 0x24 }
  - { offsetInCU: 0xBD972, offset: 0xBD972, size: 0x8, addend: 0x0, symName: __ZNSt3__122__str_find_last_not_ofB7v160006IcmNS_11char_traitsIcEELm18446744073709551615EEET0_PKT_S3_S4_S3_, symObjAddr: 0xD8FD8, symBinAddr: 0x1000DC0C8, symSize: 0xD0 }
  - { offsetInCU: 0xBDA1A, offset: 0xBDA1A, size: 0x8, addend: 0x0, symName: __ZNSt3__119__debug_db_insert_cB7v160006INS_6vectorIN5Catch11SectionInfoENS_9allocatorIS3_EEEEEEvPT_, symObjAddr: 0xD931C, symBinAddr: 0x1000DC40C, symSize: 0x10 }
  - { offsetInCU: 0xBDA4C, offset: 0xBDA4C, size: 0x8, addend: 0x0, symName: __ZNSt3__1eqB7v160006ERKNS_21__tree_const_iteratorIN5Catch9VerbosityEPNS_11__tree_nodeIS2_PvEElEES9_, symObjAddr: 0xDA400, symBinAddr: 0x1000DD4F0, symSize: 0x30 }
  - { offsetInCU: 0xBDA8A, offset: 0xBDA8A, size: 0x8, addend: 0x0, symName: __ZNSt3__14nextB7v160006INS_21__tree_const_iteratorIN5Catch9VerbosityEPNS_11__tree_nodeIS3_PvEElEEEENS_9enable_ifIXsr25__is_cpp17_input_iteratorIT_EE5valueESA_E4typeESA_NS_15iterator_traitsISA_E15difference_typeE, symObjAddr: 0xDA6D8, symBinAddr: 0x1000DD7C8, symSize: 0x50 }
  - { offsetInCU: 0xBDAD0, offset: 0xBDAD0, size: 0x8, addend: 0x0, symName: __ZNSt3__19__advanceB7v160006INS_21__tree_const_iteratorIN5Catch9VerbosityEPNS_11__tree_nodeIS3_PvEElEEEEvRT_NS_15iterator_traitsIS9_E15difference_typeENS_26bidirectional_iterator_tagE, symObjAddr: 0xDA860, symBinAddr: 0x1000DD950, symSize: 0xA4 }
  - { offsetInCU: 0xBDB3C, offset: 0xBDB3C, size: 0x8, addend: 0x0, symName: __ZNSt3__111make_sharedB7v160006IN5Catch17ReporterRegistrarINS1_15CompactReporterEE15ReporterFactoryEJEvEENS_10shared_ptrIT_EEDpOT0_, symObjAddr: 0xDB0C0, symBinAddr: 0x1000DE1B0, symSize: 0x38 }
  - { offsetInCU: 0xBDD57, offset: 0xBDD57, size: 0x8, addend: 0x0, symName: __ZNSt3__115allocate_sharedB7v160006IN5Catch17ReporterRegistrarINS1_15CompactReporterEE15ReporterFactoryENS_9allocatorIS5_EEJEvEENS_10shared_ptrIT_EERKT0_DpOT1_, symObjAddr: 0xDB158, symBinAddr: 0x1000DE248, symSize: 0x90 }
  - { offsetInCU: 0xBE0A8, offset: 0xBE0A8, size: 0x8, addend: 0x0, symName: __ZNSt3__119__allocate_at_leastB7v160006INS_9allocatorIN5Catch11SectionInfoEEEEENS_19__allocation_resultINS_16allocator_traitsIT_E7pointerEEERS7_m, symObjAddr: 0xDCF60, symBinAddr: 0x1000E0050, symSize: 0x40 }
  - { offsetInCU: 0xBE0ED, offset: 0xBE0ED, size: 0x8, addend: 0x0, symName: __ZNSt3__142__uninitialized_allocator_move_if_noexceptB7v160006INS_9allocatorIN5Catch11SectionInfoEEENS_16reverse_iteratorIPS3_EES7_S7_EET2_RT_T0_T1_S8_, symObjAddr: 0xDD114, symBinAddr: 0x1000E0204, symSize: 0x12C }
  - { offsetInCU: 0xBE18E, offset: 0xBE18E, size: 0x8, addend: 0x0, symName: __ZNSt3__14swapB7v160006IPN5Catch11SectionInfoEEENS_9enable_ifIXaasr21is_move_constructibleIT_EE5valuesr18is_move_assignableIS5_EE5valueEvE4typeERS5_S8_, symObjAddr: 0xDD28C, symBinAddr: 0x1000E037C, symSize: 0x3C }
  - { offsetInCU: 0xBE1E3, offset: 0xBE1E3, size: 0x8, addend: 0x0, symName: __ZNSt3__125__debug_db_invalidate_allB7v160006INS_6vectorIN5Catch11SectionInfoENS_9allocatorIS3_EEEEEEvPT_, symObjAddr: 0xDD374, symBinAddr: 0x1000E0464, symSize: 0x10 }
  - { offsetInCU: 0xBE216, offset: 0xBE216, size: 0x8, addend: 0x0, symName: __ZNSt3__122__make_exception_guardB7v160006INS_29_AllocatorDestroyRangeReverseINS_9allocatorIN5Catch11SectionInfoEEENS_16reverse_iteratorIPS4_EEEEEENS_28__exception_guard_exceptionsIT_EESB_, symObjAddr: 0xDD384, symBinAddr: 0x1000E0474, symSize: 0x4C }
  - { offsetInCU: 0xBE24E, offset: 0xBE24E, size: 0x8, addend: 0x0, symName: __ZNSt3__1neB7v160006IPN5Catch11SectionInfoES3_EEbRKNS_16reverse_iteratorIT_EERKNS4_IT0_EE, symObjAddr: 0xDD414, symBinAddr: 0x1000E0504, symSize: 0x48 }
  - { offsetInCU: 0xBE29D, offset: 0xBE29D, size: 0x8, addend: 0x0, symName: __ZNSt3__112__to_addressB7v160006INS_16reverse_iteratorIPN5Catch11SectionInfoEEEvEENS_5decayIDTclsr19__to_address_helperIT_EE6__callclsr3stdE7declvalIRKS7_EEEEE4typeES9_, symObjAddr: 0xDD490, symBinAddr: 0x1000E0580, symSize: 0x24 }
  - { offsetInCU: 0xBE2FF, offset: 0xBE2FF, size: 0x8, addend: 0x0, symName: __ZNSt3__119__allocator_destroyB7v160006INS_9allocatorIN5Catch11SectionInfoEEENS_16reverse_iteratorINS5_IPS3_EEEES8_EEvRT_T0_T1_, symObjAddr: 0xDD770, symBinAddr: 0x1000E0860, symSize: 0x70 }
  - { offsetInCU: 0xBE365, offset: 0xBE365, size: 0x8, addend: 0x0, symName: __ZNSt3__1neB7v160006INS_16reverse_iteratorIPN5Catch11SectionInfoEEES5_EEbRKNS1_IT_EERKNS1_IT0_EE, symObjAddr: 0xDD81C, symBinAddr: 0x1000E090C, symSize: 0x60 }
  - { offsetInCU: 0xBE3B4, offset: 0xBE3B4, size: 0x8, addend: 0x0, symName: __ZNSt3__112__to_addressB7v160006INS_16reverse_iteratorINS1_IPN5Catch11SectionInfoEEEEEvEENS_5decayIDTclsr19__to_address_helperIT_EE6__callclsr3stdE7declvalIRKS8_EEEEE4typeESA_, symObjAddr: 0xDD87C, symBinAddr: 0x1000E096C, symSize: 0x24 }
  - { offsetInCU: 0xBE417, offset: 0xBE417, size: 0x8, addend: 0x0, symName: __ZNSt3__119__debug_db_insert_cB7v160006INS_6vectorIN5Catch13SummaryColumnENS_9allocatorIS3_EEEEEEvPT_, symObjAddr: 0xDDD90, symBinAddr: 0x1000E0E80, symSize: 0x10 }
  - { offsetInCU: 0xBE44A, offset: 0xBE44A, size: 0x8, addend: 0x0, symName: __ZNSt3__118__debug_db_erase_cB7v160006INS_6vectorIN5Catch13SummaryColumnENS_9allocatorIS3_EEEEEEvPT_, symObjAddr: 0xDE070, symBinAddr: 0x1000E1160, symSize: 0x10 }
  - { offsetInCU: 0xBE47D, offset: 0xBE47D, size: 0x8, addend: 0x0, symName: __ZNSt3__112__to_addressB7v160006IN5Catch13SummaryColumnEEEPT_S4_, symObjAddr: 0xDE1B4, symBinAddr: 0x1000E12A4, symSize: 0x14 }
  - { offsetInCU: 0xBE4B4, offset: 0xBE4B4, size: 0x8, addend: 0x0, symName: __ZNSt3__119__allocate_at_leastB7v160006INS_9allocatorIN5Catch13SummaryColumnEEEEENS_19__allocation_resultINS_16allocator_traitsIT_E7pointerEEERS7_m, symObjAddr: 0xDEB84, symBinAddr: 0x1000E1C74, symSize: 0x40 }
  - { offsetInCU: 0xBE4F9, offset: 0xBE4F9, size: 0x8, addend: 0x0, symName: __ZNSt3__142__uninitialized_allocator_move_if_noexceptB7v160006INS_9allocatorIN5Catch13SummaryColumnEEENS_16reverse_iteratorIPS3_EES7_S7_EET2_RT_T0_T1_S8_, symObjAddr: 0xDED3C, symBinAddr: 0x1000E1E2C, symSize: 0x12C }
  - { offsetInCU: 0xBE59A, offset: 0xBE59A, size: 0x8, addend: 0x0, symName: __ZNSt3__14swapB7v160006IPN5Catch13SummaryColumnEEENS_9enable_ifIXaasr21is_move_constructibleIT_EE5valuesr18is_move_assignableIS5_EE5valueEvE4typeERS5_S8_, symObjAddr: 0xDEEB4, symBinAddr: 0x1000E1FA4, symSize: 0x3C }
  - { offsetInCU: 0xBE5EF, offset: 0xBE5EF, size: 0x8, addend: 0x0, symName: __ZNSt3__125__debug_db_invalidate_allB7v160006INS_6vectorIN5Catch13SummaryColumnENS_9allocatorIS3_EEEEEEvPT_, symObjAddr: 0xDEFB8, symBinAddr: 0x1000E20A8, symSize: 0x10 }
  - { offsetInCU: 0xBE622, offset: 0xBE622, size: 0x8, addend: 0x0, symName: __ZNSt3__122__make_exception_guardB7v160006INS_29_AllocatorDestroyRangeReverseINS_9allocatorIN5Catch13SummaryColumnEEENS_16reverse_iteratorIPS4_EEEEEENS_28__exception_guard_exceptionsIT_EESB_, symObjAddr: 0xDEFC8, symBinAddr: 0x1000E20B8, symSize: 0x4C }
  - { offsetInCU: 0xBE65A, offset: 0xBE65A, size: 0x8, addend: 0x0, symName: __ZNSt3__1neB7v160006IPN5Catch13SummaryColumnES3_EEbRKNS_16reverse_iteratorIT_EERKNS4_IT0_EE, symObjAddr: 0xDF058, symBinAddr: 0x1000E2148, symSize: 0x48 }
  - { offsetInCU: 0xBE6A9, offset: 0xBE6A9, size: 0x8, addend: 0x0, symName: __ZNSt3__112__to_addressB7v160006INS_16reverse_iteratorIPN5Catch13SummaryColumnEEEvEENS_5decayIDTclsr19__to_address_helperIT_EE6__callclsr3stdE7declvalIRKS7_EEEEE4typeES9_, symObjAddr: 0xDF0A0, symBinAddr: 0x1000E2190, symSize: 0x24 }
  - { offsetInCU: 0xBE70B, offset: 0xBE70B, size: 0x8, addend: 0x0, symName: __ZNSt3__119__allocator_destroyB7v160006INS_9allocatorIN5Catch13SummaryColumnEEENS_16reverse_iteratorINS5_IPS3_EEEES8_EEvRT_T0_T1_, symObjAddr: 0xDF350, symBinAddr: 0x1000E2440, symSize: 0x70 }
  - { offsetInCU: 0xBE771, offset: 0xBE771, size: 0x8, addend: 0x0, symName: __ZNSt3__1neB7v160006INS_16reverse_iteratorIPN5Catch13SummaryColumnEEES5_EEbRKNS1_IT_EERKNS1_IT0_EE, symObjAddr: 0xDF3FC, symBinAddr: 0x1000E24EC, symSize: 0x60 }
  - { offsetInCU: 0xBE7C0, offset: 0xBE7C0, size: 0x8, addend: 0x0, symName: __ZNSt3__112__to_addressB7v160006INS_16reverse_iteratorINS1_IPN5Catch13SummaryColumnEEEEEvEENS_5decayIDTclsr19__to_address_helperIT_EE6__callclsr3stdE7declvalIRKS8_EEEEE4typeESA_, symObjAddr: 0xDF45C, symBinAddr: 0x1000E254C, symSize: 0x24 }
  - { offsetInCU: 0xBE822, offset: 0xBE822, size: 0x8, addend: 0x0, symName: __ZNSt3__111make_sharedB7v160006IN5Catch17ReporterRegistrarINS1_15ConsoleReporterEE15ReporterFactoryEJEvEENS_10shared_ptrIT_EEDpOT0_, symObjAddr: 0xDF904, symBinAddr: 0x1000E29F4, symSize: 0x38 }
  - { offsetInCU: 0xBEA3D, offset: 0xBEA3D, size: 0x8, addend: 0x0, symName: __ZNSt3__115allocate_sharedB7v160006IN5Catch17ReporterRegistrarINS1_15ConsoleReporterEE15ReporterFactoryENS_9allocatorIS5_EEJEvEENS_10shared_ptrIT_EERKT0_DpOT1_, symObjAddr: 0xDF99C, symBinAddr: 0x1000E2A8C, symSize: 0x90 }
  - { offsetInCU: 0xBED8E, offset: 0xBED8E, size: 0x8, addend: 0x0, symName: __ZNSt3__119__debug_db_insert_cB7v160006INS_6vectorIN5Catch14AssertionStatsENS_9allocatorIS3_EEEEEEvPT_, symObjAddr: 0xE0B2C, symBinAddr: 0x1000E3C1C, symSize: 0x10 }
  - { offsetInCU: 0xBEDC1, offset: 0xBEDC1, size: 0x8, addend: 0x0, symName: __ZNSt3__119__debug_db_insert_cB7v160006INS_6vectorINS1_INS_10shared_ptrIN5Catch22CumulativeReporterBaseINS3_13JunitReporterEE11SectionNodeEEENS_9allocatorIS8_EEEENS9_ISB_EEEEEEvPT_, symObjAddr: 0xE0C98, symBinAddr: 0x1000E3D88, symSize: 0x10 }
  - { offsetInCU: 0xBEDF4, offset: 0xBEDF4, size: 0x8, addend: 0x0, symName: __ZNSt3__119__debug_db_insert_cB7v160006INS_6vectorINS_10shared_ptrIN5Catch22CumulativeReporterBaseINS3_13JunitReporterEE4NodeINS3_13TestCaseStatsENS6_11SectionNodeEEEEENS_9allocatorISB_EEEEEEvPT_, symObjAddr: 0xE0E04, symBinAddr: 0x1000E3EF4, symSize: 0x10 }
  - { offsetInCU: 0xBEE27, offset: 0xBEE27, size: 0x8, addend: 0x0, symName: __ZNSt3__119__debug_db_insert_cB7v160006INS_6vectorINS_10shared_ptrIN5Catch22CumulativeReporterBaseINS3_13JunitReporterEE4NodeINS3_14TestGroupStatsENS7_INS3_13TestCaseStatsENS6_11SectionNodeEEEEEEENS_9allocatorISD_EEEEEEvPT_, symObjAddr: 0xE0F70, symBinAddr: 0x1000E4060, symSize: 0x10 }
  - { offsetInCU: 0xBEE5A, offset: 0xBEE5A, size: 0x8, addend: 0x0, symName: __ZNSt3__119__debug_db_insert_cB7v160006INS_6vectorINS_10shared_ptrIN5Catch22CumulativeReporterBaseINS3_13JunitReporterEE4NodeINS3_12TestRunStatsENS7_INS3_14TestGroupStatsENS7_INS3_13TestCaseStatsENS6_11SectionNodeEEEEEEEEENS_9allocatorISF_EEEEEEvPT_, symObjAddr: 0xE10DC, symBinAddr: 0x1000E41CC, symSize: 0x10 }
  - { offsetInCU: 0xBEE8D, offset: 0xBEE8D, size: 0x8, addend: 0x0, symName: __ZNSt3__119__debug_db_insert_cB7v160006INS_6vectorINS_10shared_ptrIN5Catch22CumulativeReporterBaseINS3_13JunitReporterEE11SectionNodeEEENS_9allocatorIS8_EEEEEEvPT_, symObjAddr: 0xE1264, symBinAddr: 0x1000E4354, symSize: 0x10 }
  - { offsetInCU: 0xBEEC0, offset: 0xBEEC0, size: 0x8, addend: 0x0, symName: __ZNSt3__119__allocate_at_leastB7v160006INS_9allocatorIN5Catch14AssertionStatsEEEEENS_19__allocation_resultINS_16allocator_traitsIT_E7pointerEEERS7_m, symObjAddr: 0xE1C3C, symBinAddr: 0x1000E4D2C, symSize: 0x40 }
  - { offsetInCU: 0xBEF05, offset: 0xBEF05, size: 0x8, addend: 0x0, symName: __ZNSt3__142__uninitialized_allocator_move_if_noexceptB7v160006INS_9allocatorIN5Catch14AssertionStatsEEENS_16reverse_iteratorIPS3_EES7_S7_EET2_RT_T0_T1_S8_, symObjAddr: 0xE1DF4, symBinAddr: 0x1000E4EE4, symSize: 0x12C }
  - { offsetInCU: 0xBEFA6, offset: 0xBEFA6, size: 0x8, addend: 0x0, symName: __ZNSt3__14swapB7v160006IPN5Catch14AssertionStatsEEENS_9enable_ifIXaasr21is_move_constructibleIT_EE5valuesr18is_move_assignableIS5_EE5valueEvE4typeERS5_S8_, symObjAddr: 0xE1F6C, symBinAddr: 0x1000E505C, symSize: 0x3C }
  - { offsetInCU: 0xBEFFB, offset: 0xBEFFB, size: 0x8, addend: 0x0, symName: __ZNSt3__125__debug_db_invalidate_allB7v160006INS_6vectorIN5Catch14AssertionStatsENS_9allocatorIS3_EEEEEEvPT_, symObjAddr: 0xE2070, symBinAddr: 0x1000E5160, symSize: 0x10 }
  - { offsetInCU: 0xBF02E, offset: 0xBF02E, size: 0x8, addend: 0x0, symName: __ZNSt3__122__make_exception_guardB7v160006INS_29_AllocatorDestroyRangeReverseINS_9allocatorIN5Catch14AssertionStatsEEENS_16reverse_iteratorIPS4_EEEEEENS_28__exception_guard_exceptionsIT_EESB_, symObjAddr: 0xE2080, symBinAddr: 0x1000E5170, symSize: 0x4C }
  - { offsetInCU: 0xBF066, offset: 0xBF066, size: 0x8, addend: 0x0, symName: __ZNSt3__1neB7v160006IPN5Catch14AssertionStatsES3_EEbRKNS_16reverse_iteratorIT_EERKNS4_IT0_EE, symObjAddr: 0xE2110, symBinAddr: 0x1000E5200, symSize: 0x48 }
  - { offsetInCU: 0xBF0B5, offset: 0xBF0B5, size: 0x8, addend: 0x0, symName: __ZNSt3__112__to_addressB7v160006INS_16reverse_iteratorIPN5Catch14AssertionStatsEEEvEENS_5decayIDTclsr19__to_address_helperIT_EE6__callclsr3stdE7declvalIRKS7_EEEEE4typeES9_, symObjAddr: 0xE2158, symBinAddr: 0x1000E5248, symSize: 0x24 }
  - { offsetInCU: 0xBF117, offset: 0xBF117, size: 0x8, addend: 0x0, symName: __ZNSt3__119__allocator_destroyB7v160006INS_9allocatorIN5Catch14AssertionStatsEEENS_16reverse_iteratorINS5_IPS3_EEEES8_EEvRT_T0_T1_, symObjAddr: 0xE2408, symBinAddr: 0x1000E54F8, symSize: 0x70 }
  - { offsetInCU: 0xBF17D, offset: 0xBF17D, size: 0x8, addend: 0x0, symName: __ZNSt3__1neB7v160006INS_16reverse_iteratorIPN5Catch14AssertionStatsEEES5_EEbRKNS1_IT_EERKNS1_IT0_EE, symObjAddr: 0xE24B4, symBinAddr: 0x1000E55A4, symSize: 0x60 }
  - { offsetInCU: 0xBF1CC, offset: 0xBF1CC, size: 0x8, addend: 0x0, symName: __ZNSt3__112__to_addressB7v160006INS_16reverse_iteratorINS1_IPN5Catch14AssertionStatsEEEEEvEENS_5decayIDTclsr19__to_address_helperIT_EE6__callclsr3stdE7declvalIRKS8_EEEEE4typeESA_, symObjAddr: 0xE2514, symBinAddr: 0x1000E5604, symSize: 0x24 }
  - { offsetInCU: 0xBF22E, offset: 0xBF22E, size: 0x8, addend: 0x0, symName: __ZNSt3__111make_sharedB7v160006IN5Catch22CumulativeReporterBaseINS1_13JunitReporterEE4NodeINS1_13TestCaseStatsENS4_11SectionNodeEEEJRKS6_EvEENS_10shared_ptrIT_EEDpOT0_, symObjAddr: 0xE287C, symBinAddr: 0x1000E596C, symSize: 0x40 }
  - { offsetInCU: 0xBF273, offset: 0xBF273, size: 0x8, addend: 0x0, symName: __ZNSt3__115allocate_sharedB7v160006IN5Catch22CumulativeReporterBaseINS1_13JunitReporterEE4NodeINS1_13TestCaseStatsENS4_11SectionNodeEEENS_9allocatorIS8_EEJRKS6_EvEENS_10shared_ptrIT_EERKT0_DpOT1_, symObjAddr: 0xE2A38, symBinAddr: 0x1000E5B28, symSize: 0x98 }
  - { offsetInCU: 0xBF5DA, offset: 0xBF5DA, size: 0x8, addend: 0x0, symName: __ZNSt3__119__allocate_at_leastB7v160006INS_9allocatorINS_10shared_ptrIN5Catch22CumulativeReporterBaseINS3_13JunitReporterEE11SectionNodeEEEEEEENS_19__allocation_resultINS_16allocator_traitsIT_E7pointerEEERSC_m, symObjAddr: 0xE3D58, symBinAddr: 0x1000E6E48, symSize: 0x40 }
  - { offsetInCU: 0xBF61F, offset: 0xBF61F, size: 0x8, addend: 0x0, symName: __ZNSt3__142__uninitialized_allocator_move_if_noexceptB7v160006INS_9allocatorINS_10shared_ptrIN5Catch22CumulativeReporterBaseINS3_13JunitReporterEE11SectionNodeEEEEENS_16reverse_iteratorIPS8_EESC_SC_EET2_RT_T0_T1_SD_, symObjAddr: 0xE3F0C, symBinAddr: 0x1000E6FFC, symSize: 0x12C }
  - { offsetInCU: 0xBF6C0, offset: 0xBF6C0, size: 0x8, addend: 0x0, symName: __ZNSt3__14swapB7v160006IPNS_10shared_ptrIN5Catch22CumulativeReporterBaseINS2_13JunitReporterEE11SectionNodeEEEEENS_9enable_ifIXaasr21is_move_constructibleIT_EE5valuesr18is_move_assignableISA_EE5valueEvE4typeERSA_SD_, symObjAddr: 0xE4084, symBinAddr: 0x1000E7174, symSize: 0x3C }
  - { offsetInCU: 0xBF715, offset: 0xBF715, size: 0x8, addend: 0x0, symName: __ZNSt3__125__debug_db_invalidate_allB7v160006INS_6vectorINS_10shared_ptrIN5Catch22CumulativeReporterBaseINS3_13JunitReporterEE11SectionNodeEEENS_9allocatorIS8_EEEEEEvPT_, symObjAddr: 0xE416C, symBinAddr: 0x1000E725C, symSize: 0x10 }
  - { offsetInCU: 0xBF748, offset: 0xBF748, size: 0x8, addend: 0x0, symName: __ZNSt3__122__make_exception_guardB7v160006INS_29_AllocatorDestroyRangeReverseINS_9allocatorINS_10shared_ptrIN5Catch22CumulativeReporterBaseINS4_13JunitReporterEE11SectionNodeEEEEENS_16reverse_iteratorIPS9_EEEEEENS_28__exception_guard_exceptionsIT_EESG_, symObjAddr: 0xE417C, symBinAddr: 0x1000E726C, symSize: 0x4C }
  - { offsetInCU: 0xBF780, offset: 0xBF780, size: 0x8, addend: 0x0, symName: __ZNSt3__1neB7v160006IPNS_10shared_ptrIN5Catch22CumulativeReporterBaseINS2_13JunitReporterEE11SectionNodeEEES8_EEbRKNS_16reverse_iteratorIT_EERKNS9_IT0_EE, symObjAddr: 0xE420C, symBinAddr: 0x1000E72FC, symSize: 0x48 }
  - { offsetInCU: 0xBF7CF, offset: 0xBF7CF, size: 0x8, addend: 0x0, symName: __ZNSt3__112__to_addressB7v160006INS_16reverse_iteratorIPNS_10shared_ptrIN5Catch22CumulativeReporterBaseINS3_13JunitReporterEE11SectionNodeEEEEEvEENS_5decayIDTclsr19__to_address_helperIT_EE6__callclsr3stdE7declvalIRKSC_EEEEE4typeESE_, symObjAddr: 0xE4288, symBinAddr: 0x1000E7378, symSize: 0x24 }
  - { offsetInCU: 0xBF831, offset: 0xBF831, size: 0x8, addend: 0x0, symName: __ZNSt3__119__allocator_destroyB7v160006INS_9allocatorINS_10shared_ptrIN5Catch22CumulativeReporterBaseINS3_13JunitReporterEE11SectionNodeEEEEENS_16reverse_iteratorINSA_IPS8_EEEESD_EEvRT_T0_T1_, symObjAddr: 0xE45DC, symBinAddr: 0x1000E76CC, symSize: 0x70 }
  - { offsetInCU: 0xBF897, offset: 0xBF897, size: 0x8, addend: 0x0, symName: __ZNSt3__1neB7v160006INS_16reverse_iteratorIPNS_10shared_ptrIN5Catch22CumulativeReporterBaseINS3_13JunitReporterEE11SectionNodeEEEEESA_EEbRKNS1_IT_EERKNS1_IT0_EE, symObjAddr: 0xE4688, symBinAddr: 0x1000E7778, symSize: 0x60 }
  - { offsetInCU: 0xBF8E6, offset: 0xBF8E6, size: 0x8, addend: 0x0, symName: __ZNSt3__112__to_addressB7v160006INS_16reverse_iteratorINS1_IPNS_10shared_ptrIN5Catch22CumulativeReporterBaseINS3_13JunitReporterEE11SectionNodeEEEEEEEvEENS_5decayIDTclsr19__to_address_helperIT_EE6__callclsr3stdE7declvalIRKSD_EEEEE4typeESF_, symObjAddr: 0xE46E8, symBinAddr: 0x1000E77D8, symSize: 0x24 }
  - { offsetInCU: 0xBF949, offset: 0xBF949, size: 0x8, addend: 0x0, symName: __ZNSt3__119__allocate_at_leastB7v160006INS_9allocatorINS_10shared_ptrIN5Catch22CumulativeReporterBaseINS3_13JunitReporterEE4NodeINS3_13TestCaseStatsENS6_11SectionNodeEEEEEEEEENS_19__allocation_resultINS_16allocator_traitsIT_E7pointerEEERSF_m, symObjAddr: 0xE524C, symBinAddr: 0x1000E833C, symSize: 0x40 }
  - { offsetInCU: 0xBF98E, offset: 0xBF98E, size: 0x8, addend: 0x0, symName: __ZNSt3__142__uninitialized_allocator_move_if_noexceptB7v160006INS_9allocatorINS_10shared_ptrIN5Catch22CumulativeReporterBaseINS3_13JunitReporterEE4NodeINS3_13TestCaseStatsENS6_11SectionNodeEEEEEEENS_16reverse_iteratorIPSB_EESF_SF_EET2_RT_T0_T1_SG_, symObjAddr: 0xE5400, symBinAddr: 0x1000E84F0, symSize: 0x12C }
  - { offsetInCU: 0xBFA2F, offset: 0xBFA2F, size: 0x8, addend: 0x0, symName: __ZNSt3__14swapB7v160006IPNS_10shared_ptrIN5Catch22CumulativeReporterBaseINS2_13JunitReporterEE4NodeINS2_13TestCaseStatsENS5_11SectionNodeEEEEEEENS_9enable_ifIXaasr21is_move_constructibleIT_EE5valuesr18is_move_assignableISD_EE5valueEvE4typeERSD_SG_, symObjAddr: 0xE5578, symBinAddr: 0x1000E8668, symSize: 0x3C }
  - { offsetInCU: 0xBFA84, offset: 0xBFA84, size: 0x8, addend: 0x0, symName: __ZNSt3__125__debug_db_invalidate_allB7v160006INS_6vectorINS_10shared_ptrIN5Catch22CumulativeReporterBaseINS3_13JunitReporterEE4NodeINS3_13TestCaseStatsENS6_11SectionNodeEEEEENS_9allocatorISB_EEEEEEvPT_, symObjAddr: 0xE5660, symBinAddr: 0x1000E8750, symSize: 0x10 }
  - { offsetInCU: 0xBFAB7, offset: 0xBFAB7, size: 0x8, addend: 0x0, symName: __ZNSt3__122__make_exception_guardB7v160006INS_29_AllocatorDestroyRangeReverseINS_9allocatorINS_10shared_ptrIN5Catch22CumulativeReporterBaseINS4_13JunitReporterEE4NodeINS4_13TestCaseStatsENS7_11SectionNodeEEEEEEENS_16reverse_iteratorIPSC_EEEEEENS_28__exception_guard_exceptionsIT_EESJ_, symObjAddr: 0xE5670, symBinAddr: 0x1000E8760, symSize: 0x4C }
  - { offsetInCU: 0xBFAEF, offset: 0xBFAEF, size: 0x8, addend: 0x0, symName: __ZNSt3__1neB7v160006IPNS_10shared_ptrIN5Catch22CumulativeReporterBaseINS2_13JunitReporterEE4NodeINS2_13TestCaseStatsENS5_11SectionNodeEEEEESB_EEbRKNS_16reverse_iteratorIT_EERKNSC_IT0_EE, symObjAddr: 0xE5700, symBinAddr: 0x1000E87F0, symSize: 0x48 }
  - { offsetInCU: 0xBFB3E, offset: 0xBFB3E, size: 0x8, addend: 0x0, symName: __ZNSt3__112__to_addressB7v160006INS_16reverse_iteratorIPNS_10shared_ptrIN5Catch22CumulativeReporterBaseINS3_13JunitReporterEE4NodeINS3_13TestCaseStatsENS6_11SectionNodeEEEEEEEvEENS_5decayIDTclsr19__to_address_helperIT_EE6__callclsr3stdE7declvalIRKSF_EEEEE4typeESH_, symObjAddr: 0xE577C, symBinAddr: 0x1000E886C, symSize: 0x24 }
  - { offsetInCU: 0xBFBA0, offset: 0xBFBA0, size: 0x8, addend: 0x0, symName: __ZNSt3__119__allocator_destroyB7v160006INS_9allocatorINS_10shared_ptrIN5Catch22CumulativeReporterBaseINS3_13JunitReporterEE4NodeINS3_13TestCaseStatsENS6_11SectionNodeEEEEEEENS_16reverse_iteratorINSD_IPSB_EEEESG_EEvRT_T0_T1_, symObjAddr: 0xE5AD0, symBinAddr: 0x1000E8BC0, symSize: 0x70 }
  - { offsetInCU: 0xBFC06, offset: 0xBFC06, size: 0x8, addend: 0x0, symName: __ZNSt3__1neB7v160006INS_16reverse_iteratorIPNS_10shared_ptrIN5Catch22CumulativeReporterBaseINS3_13JunitReporterEE4NodeINS3_13TestCaseStatsENS6_11SectionNodeEEEEEEESD_EEbRKNS1_IT_EERKNS1_IT0_EE, symObjAddr: 0xE5B7C, symBinAddr: 0x1000E8C6C, symSize: 0x60 }
  - { offsetInCU: 0xBFC55, offset: 0xBFC55, size: 0x8, addend: 0x0, symName: __ZNSt3__112__to_addressB7v160006INS_16reverse_iteratorINS1_IPNS_10shared_ptrIN5Catch22CumulativeReporterBaseINS3_13JunitReporterEE4NodeINS3_13TestCaseStatsENS6_11SectionNodeEEEEEEEEEvEENS_5decayIDTclsr19__to_address_helperIT_EE6__callclsr3stdE7declvalIRKSG_EEEEE4typeESI_, symObjAddr: 0xE5BDC, symBinAddr: 0x1000E8CCC, symSize: 0x24 }
  - { offsetInCU: 0xBFCB8, offset: 0xBFCB8, size: 0x8, addend: 0x0, symName: __ZNSt3__14swapB7v160006IPN5Catch22CumulativeReporterBaseINS1_13JunitReporterEE11SectionNodeEEENS_9enable_ifIXaasr21is_move_constructibleIT_EE5valuesr18is_move_assignableIS8_EE5valueEvE4typeERS8_SB_, symObjAddr: 0xE5F88, symBinAddr: 0x1000E9078, symSize: 0x3C }
  - { offsetInCU: 0xBFD0C, offset: 0xBFD0C, size: 0x8, addend: 0x0, symName: __ZNSt3__111make_sharedB7v160006IN5Catch22CumulativeReporterBaseINS1_13JunitReporterEE4NodeINS1_14TestGroupStatsENS5_INS1_13TestCaseStatsENS4_11SectionNodeEEEEEJRKS6_EvEENS_10shared_ptrIT_EEDpOT0_, symObjAddr: 0xE5FDC, symBinAddr: 0x1000E90CC, symSize: 0x40 }
  - { offsetInCU: 0xBFD51, offset: 0xBFD51, size: 0x8, addend: 0x0, symName: __ZNSt3__115allocate_sharedB7v160006IN5Catch22CumulativeReporterBaseINS1_13JunitReporterEE4NodeINS1_14TestGroupStatsENS5_INS1_13TestCaseStatsENS4_11SectionNodeEEEEENS_9allocatorISA_EEJRKS6_EvEENS_10shared_ptrIT_EERKT0_DpOT1_, symObjAddr: 0xE6138, symBinAddr: 0x1000E9228, symSize: 0x98 }
  - { offsetInCU: 0xC00B8, offset: 0xC00B8, size: 0x8, addend: 0x0, symName: __ZNSt3__116__swap_allocatorB7v160006INS_9allocatorINS_10shared_ptrIN5Catch22CumulativeReporterBaseINS3_13JunitReporterEE4NodeINS3_13TestCaseStatsENS6_11SectionNodeEEEEEEEEEvRT_SE_NS_17integral_constantIbLb0EEE, symObjAddr: 0xE6BDC, symBinAddr: 0x1000E9CCC, symSize: 0x14 }
  - { offsetInCU: 0xC00FD, offset: 0xC00FD, size: 0x8, addend: 0x0, symName: __ZNSt3__115__debug_db_swapB7v160006INS_6vectorINS_10shared_ptrIN5Catch22CumulativeReporterBaseINS3_13JunitReporterEE4NodeINS3_13TestCaseStatsENS6_11SectionNodeEEEEENS_9allocatorISB_EEEEEEvPT_SG_, symObjAddr: 0xE6BF0, symBinAddr: 0x1000E9CE0, symSize: 0x14 }
  - { offsetInCU: 0xC013F, offset: 0xC013F, size: 0x8, addend: 0x0, symName: __ZNSt3__119__allocate_at_leastB7v160006INS_9allocatorINS_10shared_ptrIN5Catch22CumulativeReporterBaseINS3_13JunitReporterEE4NodeINS3_14TestGroupStatsENS7_INS3_13TestCaseStatsENS6_11SectionNodeEEEEEEEEEEENS_19__allocation_resultINS_16allocator_traitsIT_E7pointerEEERSH_m, symObjAddr: 0xE7400, symBinAddr: 0x1000EA4F0, symSize: 0x40 }
  - { offsetInCU: 0xC0184, offset: 0xC0184, size: 0x8, addend: 0x0, symName: __ZNSt3__142__uninitialized_allocator_move_if_noexceptB7v160006INS_9allocatorINS_10shared_ptrIN5Catch22CumulativeReporterBaseINS3_13JunitReporterEE4NodeINS3_14TestGroupStatsENS7_INS3_13TestCaseStatsENS6_11SectionNodeEEEEEEEEENS_16reverse_iteratorIPSD_EESH_SH_EET2_RT_T0_T1_SI_, symObjAddr: 0xE75B4, symBinAddr: 0x1000EA6A4, symSize: 0x12C }
  - { offsetInCU: 0xC0225, offset: 0xC0225, size: 0x8, addend: 0x0, symName: __ZNSt3__14swapB7v160006IPNS_10shared_ptrIN5Catch22CumulativeReporterBaseINS2_13JunitReporterEE4NodeINS2_14TestGroupStatsENS6_INS2_13TestCaseStatsENS5_11SectionNodeEEEEEEEEENS_9enable_ifIXaasr21is_move_constructibleIT_EE5valuesr18is_move_assignableISF_EE5valueEvE4typeERSF_SI_, symObjAddr: 0xE772C, symBinAddr: 0x1000EA81C, symSize: 0x3C }
  - { offsetInCU: 0xC027A, offset: 0xC027A, size: 0x8, addend: 0x0, symName: __ZNSt3__125__debug_db_invalidate_allB7v160006INS_6vectorINS_10shared_ptrIN5Catch22CumulativeReporterBaseINS3_13JunitReporterEE4NodeINS3_14TestGroupStatsENS7_INS3_13TestCaseStatsENS6_11SectionNodeEEEEEEENS_9allocatorISD_EEEEEEvPT_, symObjAddr: 0xE7814, symBinAddr: 0x1000EA904, symSize: 0x10 }
  - { offsetInCU: 0xC02AD, offset: 0xC02AD, size: 0x8, addend: 0x0, symName: __ZNSt3__122__make_exception_guardB7v160006INS_29_AllocatorDestroyRangeReverseINS_9allocatorINS_10shared_ptrIN5Catch22CumulativeReporterBaseINS4_13JunitReporterEE4NodeINS4_14TestGroupStatsENS8_INS4_13TestCaseStatsENS7_11SectionNodeEEEEEEEEENS_16reverse_iteratorIPSE_EEEEEENS_28__exception_guard_exceptionsIT_EESL_, symObjAddr: 0xE7824, symBinAddr: 0x1000EA914, symSize: 0x4C }
  - { offsetInCU: 0xC02E5, offset: 0xC02E5, size: 0x8, addend: 0x0, symName: __ZNSt3__1neB7v160006IPNS_10shared_ptrIN5Catch22CumulativeReporterBaseINS2_13JunitReporterEE4NodeINS2_14TestGroupStatsENS6_INS2_13TestCaseStatsENS5_11SectionNodeEEEEEEESD_EEbRKNS_16reverse_iteratorIT_EERKNSE_IT0_EE, symObjAddr: 0xE78B4, symBinAddr: 0x1000EA9A4, symSize: 0x48 }
  - { offsetInCU: 0xC0334, offset: 0xC0334, size: 0x8, addend: 0x0, symName: __ZNSt3__112__to_addressB7v160006INS_16reverse_iteratorIPNS_10shared_ptrIN5Catch22CumulativeReporterBaseINS3_13JunitReporterEE4NodeINS3_14TestGroupStatsENS7_INS3_13TestCaseStatsENS6_11SectionNodeEEEEEEEEEvEENS_5decayIDTclsr19__to_address_helperIT_EE6__callclsr3stdE7declvalIRKSH_EEEEE4typeESJ_, symObjAddr: 0xE7930, symBinAddr: 0x1000EAA20, symSize: 0x24 }
  - { offsetInCU: 0xC0396, offset: 0xC0396, size: 0x8, addend: 0x0, symName: __ZNSt3__119__allocator_destroyB7v160006INS_9allocatorINS_10shared_ptrIN5Catch22CumulativeReporterBaseINS3_13JunitReporterEE4NodeINS3_14TestGroupStatsENS7_INS3_13TestCaseStatsENS6_11SectionNodeEEEEEEEEENS_16reverse_iteratorINSF_IPSD_EEEESI_EEvRT_T0_T1_, symObjAddr: 0xE7C84, symBinAddr: 0x1000EAD74, symSize: 0x70 }
  - { offsetInCU: 0xC03FC, offset: 0xC03FC, size: 0x8, addend: 0x0, symName: __ZNSt3__1neB7v160006INS_16reverse_iteratorIPNS_10shared_ptrIN5Catch22CumulativeReporterBaseINS3_13JunitReporterEE4NodeINS3_14TestGroupStatsENS7_INS3_13TestCaseStatsENS6_11SectionNodeEEEEEEEEESF_EEbRKNS1_IT_EERKNS1_IT0_EE, symObjAddr: 0xE7D30, symBinAddr: 0x1000EAE20, symSize: 0x60 }
  - { offsetInCU: 0xC044B, offset: 0xC044B, size: 0x8, addend: 0x0, symName: __ZNSt3__112__to_addressB7v160006INS_16reverse_iteratorINS1_IPNS_10shared_ptrIN5Catch22CumulativeReporterBaseINS3_13JunitReporterEE4NodeINS3_14TestGroupStatsENS7_INS3_13TestCaseStatsENS6_11SectionNodeEEEEEEEEEEEvEENS_5decayIDTclsr19__to_address_helperIT_EE6__callclsr3stdE7declvalIRKSI_EEEEE4typeESK_, symObjAddr: 0xE7D90, symBinAddr: 0x1000EAE80, symSize: 0x24 }
  - { offsetInCU: 0xC04AD, offset: 0xC04AD, size: 0x8, addend: 0x0, symName: __ZNSt3__111make_sharedB7v160006IN5Catch17ReporterRegistrarINS1_13JunitReporterEE15ReporterFactoryEJEvEENS_10shared_ptrIT_EEDpOT0_, symObjAddr: 0xE8660, symBinAddr: 0x1000EB750, symSize: 0x38 }
  - { offsetInCU: 0xC06C8, offset: 0xC06C8, size: 0x8, addend: 0x0, symName: __ZNSt3__115allocate_sharedB7v160006IN5Catch17ReporterRegistrarINS1_13JunitReporterEE15ReporterFactoryENS_9allocatorIS5_EEJEvEENS_10shared_ptrIT_EERKT0_DpOT1_, symObjAddr: 0xE86F8, symBinAddr: 0x1000EB7E8, symSize: 0x90 }
  - { offsetInCU: 0xC0A19, offset: 0xC0A19, size: 0x8, addend: 0x0, symName: __ZNSt3__119__debug_db_insert_cB7v160006INS_6vectorINS_10unique_ptrIN5Catch18IStreamingReporterENS_14default_deleteIS4_EEEENS_9allocatorIS7_EEEEEEvPT_, symObjAddr: 0xE9708, symBinAddr: 0x1000EC7F8, symSize: 0x10 }
  - { offsetInCU: 0xC0A4C, offset: 0xC0A4C, size: 0x8, addend: 0x0, symName: __ZNSt3__119__allocate_at_leastB7v160006INS_9allocatorINS_10unique_ptrIN5Catch18IStreamingReporterENS_14default_deleteIS4_EEEEEEEENS_19__allocation_resultINS_16allocator_traitsIT_E7pointerEEERSB_m, symObjAddr: 0xE9F38, symBinAddr: 0x1000ED028, symSize: 0x40 }
  - { offsetInCU: 0xC0A91, offset: 0xC0A91, size: 0x8, addend: 0x0, symName: __ZNSt3__142__uninitialized_allocator_move_if_noexceptB7v160006INS_9allocatorINS_10unique_ptrIN5Catch18IStreamingReporterENS_14default_deleteIS4_EEEEEENS_16reverse_iteratorIPS7_EESB_SB_EET2_RT_T0_T1_SC_, symObjAddr: 0xEA0EC, symBinAddr: 0x1000ED1DC, symSize: 0x12C }
  - { offsetInCU: 0xC0B32, offset: 0xC0B32, size: 0x8, addend: 0x0, symName: __ZNSt3__14swapB7v160006IPNS_10unique_ptrIN5Catch18IStreamingReporterENS_14default_deleteIS3_EEEEEENS_9enable_ifIXaasr21is_move_constructibleIT_EE5valuesr18is_move_assignableIS9_EE5valueEvE4typeERS9_SC_, symObjAddr: 0xEA264, symBinAddr: 0x1000ED354, symSize: 0x3C }
  - { offsetInCU: 0xC0B87, offset: 0xC0B87, size: 0x8, addend: 0x0, symName: __ZNSt3__125__debug_db_invalidate_allB7v160006INS_6vectorINS_10unique_ptrIN5Catch18IStreamingReporterENS_14default_deleteIS4_EEEENS_9allocatorIS7_EEEEEEvPT_, symObjAddr: 0xEA34C, symBinAddr: 0x1000ED43C, symSize: 0x10 }
  - { offsetInCU: 0xC0BBA, offset: 0xC0BBA, size: 0x8, addend: 0x0, symName: __ZNSt3__122__make_exception_guardB7v160006INS_29_AllocatorDestroyRangeReverseINS_9allocatorINS_10unique_ptrIN5Catch18IStreamingReporterENS_14default_deleteIS5_EEEEEENS_16reverse_iteratorIPS8_EEEEEENS_28__exception_guard_exceptionsIT_EESF_, symObjAddr: 0xEA35C, symBinAddr: 0x1000ED44C, symSize: 0x4C }
  - { offsetInCU: 0xC0BF2, offset: 0xC0BF2, size: 0x8, addend: 0x0, symName: __ZNSt3__1neB7v160006IPNS_10unique_ptrIN5Catch18IStreamingReporterENS_14default_deleteIS3_EEEES7_EEbRKNS_16reverse_iteratorIT_EERKNS8_IT0_EE, symObjAddr: 0xEA3EC, symBinAddr: 0x1000ED4DC, symSize: 0x48 }
  - { offsetInCU: 0xC0C41, offset: 0xC0C41, size: 0x8, addend: 0x0, symName: __ZNSt3__112__to_addressB7v160006INS_16reverse_iteratorIPNS_10unique_ptrIN5Catch18IStreamingReporterENS_14default_deleteIS4_EEEEEEvEENS_5decayIDTclsr19__to_address_helperIT_EE6__callclsr3stdE7declvalIRKSB_EEEEE4typeESD_, symObjAddr: 0xEA434, symBinAddr: 0x1000ED524, symSize: 0x24 }
  - { offsetInCU: 0xC0CA3, offset: 0xC0CA3, size: 0x8, addend: 0x0, symName: __ZNSt3__119__allocator_destroyB7v160006INS_9allocatorINS_10unique_ptrIN5Catch18IStreamingReporterENS_14default_deleteIS4_EEEEEENS_16reverse_iteratorINS9_IPS7_EEEESC_EEvRT_T0_T1_, symObjAddr: 0xEA6E4, symBinAddr: 0x1000ED7D4, symSize: 0x70 }
  - { offsetInCU: 0xC0D09, offset: 0xC0D09, size: 0x8, addend: 0x0, symName: __ZNSt3__1neB7v160006INS_16reverse_iteratorIPNS_10unique_ptrIN5Catch18IStreamingReporterENS_14default_deleteIS4_EEEEEES9_EEbRKNS1_IT_EERKNS1_IT0_EE, symObjAddr: 0xEA790, symBinAddr: 0x1000ED880, symSize: 0x60 }
  - { offsetInCU: 0xC0D58, offset: 0xC0D58, size: 0x8, addend: 0x0, symName: __ZNSt3__112__to_addressB7v160006INS_16reverse_iteratorINS1_IPNS_10unique_ptrIN5Catch18IStreamingReporterENS_14default_deleteIS4_EEEEEEEEvEENS_5decayIDTclsr19__to_address_helperIT_EE6__callclsr3stdE7declvalIRKSC_EEEEE4typeESE_, symObjAddr: 0xEA7F0, symBinAddr: 0x1000ED8E0, symSize: 0x24 }
  - { offsetInCU: 0xC0DBA, offset: 0xC0DBA, size: 0x8, addend: 0x0, symName: __ZNSt3__111make_sharedB7v160006IN5Catch17ReporterRegistrarINS1_11XmlReporterEE15ReporterFactoryEJEvEENS_10shared_ptrIT_EEDpOT0_, symObjAddr: 0xEAF20, symBinAddr: 0x1000EE010, symSize: 0x38 }
  - { offsetInCU: 0xC0FD5, offset: 0xC0FD5, size: 0x8, addend: 0x0, symName: __ZNSt3__115allocate_sharedB7v160006IN5Catch17ReporterRegistrarINS1_11XmlReporterEE15ReporterFactoryENS_9allocatorIS5_EEJEvEENS_10shared_ptrIT_EERKT0_DpOT1_, symObjAddr: 0xEAFB8, symBinAddr: 0x1000EE0A8, symSize: 0x90 }
  - { offsetInCU: 0xC1325, offset: 0xC1325, size: 0x8, addend: 0x0, symName: __ZNSt3__111make_sharedB7v160006IN5Catch22CumulativeReporterBaseINS1_13JunitReporterEE11SectionNodeEJRNS1_12SectionStatsEEvEENS_10shared_ptrIT_EEDpOT0_, symObjAddr: 0xEBF34, symBinAddr: 0x1000EF024, symSize: 0x40 }
  - { offsetInCU: 0xC136B, offset: 0xC136B, size: 0x8, addend: 0x0, symName: __ZNSt3__17find_ifB7v160006INS_11__wrap_iterIPNS_10shared_ptrIN5Catch22CumulativeReporterBaseINS3_13JunitReporterEE11SectionNodeEEEEENS6_13BySectionInfoEEET_SC_SC_T0_, symObjAddr: 0xEC014, symBinAddr: 0x1000EF104, symSize: 0x7C }
  - { offsetInCU: 0xC13CA, offset: 0xC13CA, size: 0x8, addend: 0x0, symName: __ZNSt3__1eqB7v160006IPNS_10shared_ptrIN5Catch22CumulativeReporterBaseINS2_13JunitReporterEE11SectionNodeEEEEEbRKNS_11__wrap_iterIT_EESD_, symObjAddr: 0xEC124, symBinAddr: 0x1000EF214, symSize: 0x48 }
  - { offsetInCU: 0xC140F, offset: 0xC140F, size: 0x8, addend: 0x0, symName: __ZNSt3__115allocate_sharedB7v160006IN5Catch22CumulativeReporterBaseINS1_13JunitReporterEE11SectionNodeENS_9allocatorIS5_EEJRNS1_12SectionStatsEEvEENS_10shared_ptrIT_EERKT0_DpOT1_, symObjAddr: 0xEC184, symBinAddr: 0x1000EF274, symSize: 0x98 }
  - { offsetInCU: 0xC1776, offset: 0xC1776, size: 0x8, addend: 0x0, symName: __ZNSt3__1neB7v160006IPNS_10shared_ptrIN5Catch22CumulativeReporterBaseINS2_13JunitReporterEE11SectionNodeEEEEEbRKNS_11__wrap_iterIT_EESD_, symObjAddr: 0xECC20, symBinAddr: 0x1000EFD10, symSize: 0x34 }
  - { offsetInCU: 0xC17BB, offset: 0xC17BB, size: 0x8, addend: 0x0, symName: __ZNSt3__111make_sharedB7v160006IN5Catch22CumulativeReporterBaseINS1_13JunitReporterEE4NodeINS1_12TestRunStatsENS5_INS1_14TestGroupStatsENS5_INS1_13TestCaseStatsENS4_11SectionNodeEEEEEEEJRKS6_EvEENS_10shared_ptrIT_EEDpOT0_, symObjAddr: 0xECFB8, symBinAddr: 0x1000F00A8, symSize: 0x40 }
  - { offsetInCU: 0xC1800, offset: 0xC1800, size: 0x8, addend: 0x0, symName: __ZNSt3__115allocate_sharedB7v160006IN5Catch22CumulativeReporterBaseINS1_13JunitReporterEE4NodeINS1_12TestRunStatsENS5_INS1_14TestGroupStatsENS5_INS1_13TestCaseStatsENS4_11SectionNodeEEEEEEENS_9allocatorISC_EEJRKS6_EvEENS_10shared_ptrIT_EERKT0_DpOT1_, symObjAddr: 0xED114, symBinAddr: 0x1000F0204, symSize: 0x98 }
  - { offsetInCU: 0xC1B67, offset: 0xC1B67, size: 0x8, addend: 0x0, symName: __ZNSt3__116__swap_allocatorB7v160006INS_9allocatorINS_10shared_ptrIN5Catch22CumulativeReporterBaseINS3_13JunitReporterEE4NodeINS3_14TestGroupStatsENS7_INS3_13TestCaseStatsENS6_11SectionNodeEEEEEEEEEEEvRT_SG_NS_17integral_constantIbLb0EEE, symObjAddr: 0xEDBB8, symBinAddr: 0x1000F0CA8, symSize: 0x14 }
  - { offsetInCU: 0xC1BAC, offset: 0xC1BAC, size: 0x8, addend: 0x0, symName: __ZNSt3__115__debug_db_swapB7v160006INS_6vectorINS_10shared_ptrIN5Catch22CumulativeReporterBaseINS3_13JunitReporterEE4NodeINS3_14TestGroupStatsENS7_INS3_13TestCaseStatsENS6_11SectionNodeEEEEEEENS_9allocatorISD_EEEEEEvPT_SI_, symObjAddr: 0xEDBCC, symBinAddr: 0x1000F0CBC, symSize: 0x14 }
  - { offsetInCU: 0xC1BEE, offset: 0xC1BEE, size: 0x8, addend: 0x0, symName: __ZNSt3__119__allocate_at_leastB7v160006INS_9allocatorINS_10shared_ptrIN5Catch22CumulativeReporterBaseINS3_13JunitReporterEE4NodeINS3_12TestRunStatsENS7_INS3_14TestGroupStatsENS7_INS3_13TestCaseStatsENS6_11SectionNodeEEEEEEEEEEEEENS_19__allocation_resultINS_16allocator_traitsIT_E7pointerEEERSJ_m, symObjAddr: 0xEE3DC, symBinAddr: 0x1000F14CC, symSize: 0x40 }
  - { offsetInCU: 0xC1C33, offset: 0xC1C33, size: 0x8, addend: 0x0, symName: __ZNSt3__142__uninitialized_allocator_move_if_noexceptB7v160006INS_9allocatorINS_10shared_ptrIN5Catch22CumulativeReporterBaseINS3_13JunitReporterEE4NodeINS3_12TestRunStatsENS7_INS3_14TestGroupStatsENS7_INS3_13TestCaseStatsENS6_11SectionNodeEEEEEEEEEEENS_16reverse_iteratorIPSF_EESJ_SJ_EET2_RT_T0_T1_SK_, symObjAddr: 0xEE590, symBinAddr: 0x1000F1680, symSize: 0x12C }
  - { offsetInCU: 0xC1CD4, offset: 0xC1CD4, size: 0x8, addend: 0x0, symName: __ZNSt3__14swapB7v160006IPNS_10shared_ptrIN5Catch22CumulativeReporterBaseINS2_13JunitReporterEE4NodeINS2_12TestRunStatsENS6_INS2_14TestGroupStatsENS6_INS2_13TestCaseStatsENS5_11SectionNodeEEEEEEEEEEENS_9enable_ifIXaasr21is_move_constructibleIT_EE5valuesr18is_move_assignableISH_EE5valueEvE4typeERSH_SK_, symObjAddr: 0xEE708, symBinAddr: 0x1000F17F8, symSize: 0x3C }
  - { offsetInCU: 0xC1D29, offset: 0xC1D29, size: 0x8, addend: 0x0, symName: __ZNSt3__125__debug_db_invalidate_allB7v160006INS_6vectorINS_10shared_ptrIN5Catch22CumulativeReporterBaseINS3_13JunitReporterEE4NodeINS3_12TestRunStatsENS7_INS3_14TestGroupStatsENS7_INS3_13TestCaseStatsENS6_11SectionNodeEEEEEEEEENS_9allocatorISF_EEEEEEvPT_, symObjAddr: 0xEE7F0, symBinAddr: 0x1000F18E0, symSize: 0x10 }
  - { offsetInCU: 0xC1D5C, offset: 0xC1D5C, size: 0x8, addend: 0x0, symName: __ZNSt3__122__make_exception_guardB7v160006INS_29_AllocatorDestroyRangeReverseINS_9allocatorINS_10shared_ptrIN5Catch22CumulativeReporterBaseINS4_13JunitReporterEE4NodeINS4_12TestRunStatsENS8_INS4_14TestGroupStatsENS8_INS4_13TestCaseStatsENS7_11SectionNodeEEEEEEEEEEENS_16reverse_iteratorIPSG_EEEEEENS_28__exception_guard_exceptionsIT_EESN_, symObjAddr: 0xEE800, symBinAddr: 0x1000F18F0, symSize: 0x4C }
  - { offsetInCU: 0xC1D94, offset: 0xC1D94, size: 0x8, addend: 0x0, symName: __ZNSt3__1neB7v160006IPNS_10shared_ptrIN5Catch22CumulativeReporterBaseINS2_13JunitReporterEE4NodeINS2_12TestRunStatsENS6_INS2_14TestGroupStatsENS6_INS2_13TestCaseStatsENS5_11SectionNodeEEEEEEEEESF_EEbRKNS_16reverse_iteratorIT_EERKNSG_IT0_EE, symObjAddr: 0xEE890, symBinAddr: 0x1000F1980, symSize: 0x48 }
  - { offsetInCU: 0xC1DE3, offset: 0xC1DE3, size: 0x8, addend: 0x0, symName: __ZNSt3__112__to_addressB7v160006INS_16reverse_iteratorIPNS_10shared_ptrIN5Catch22CumulativeReporterBaseINS3_13JunitReporterEE4NodeINS3_12TestRunStatsENS7_INS3_14TestGroupStatsENS7_INS3_13TestCaseStatsENS6_11SectionNodeEEEEEEEEEEEvEENS_5decayIDTclsr19__to_address_helperIT_EE6__callclsr3stdE7declvalIRKSJ_EEEEE4typeESL_, symObjAddr: 0xEE90C, symBinAddr: 0x1000F19FC, symSize: 0x24 }
  - { offsetInCU: 0xC1E45, offset: 0xC1E45, size: 0x8, addend: 0x0, symName: __ZNSt3__119__allocator_destroyB7v160006INS_9allocatorINS_10shared_ptrIN5Catch22CumulativeReporterBaseINS3_13JunitReporterEE4NodeINS3_12TestRunStatsENS7_INS3_14TestGroupStatsENS7_INS3_13TestCaseStatsENS6_11SectionNodeEEEEEEEEEEENS_16reverse_iteratorINSH_IPSF_EEEESK_EEvRT_T0_T1_, symObjAddr: 0xEEC60, symBinAddr: 0x1000F1D50, symSize: 0x70 }
  - { offsetInCU: 0xC1EAB, offset: 0xC1EAB, size: 0x8, addend: 0x0, symName: __ZNSt3__1neB7v160006INS_16reverse_iteratorIPNS_10shared_ptrIN5Catch22CumulativeReporterBaseINS3_13JunitReporterEE4NodeINS3_12TestRunStatsENS7_INS3_14TestGroupStatsENS7_INS3_13TestCaseStatsENS6_11SectionNodeEEEEEEEEEEESH_EEbRKNS1_IT_EERKNS1_IT0_EE, symObjAddr: 0xEED0C, symBinAddr: 0x1000F1DFC, symSize: 0x60 }
  - { offsetInCU: 0xC1EFA, offset: 0xC1EFA, size: 0x8, addend: 0x0, symName: __ZNSt3__112__to_addressB7v160006INS_16reverse_iteratorINS1_IPNS_10shared_ptrIN5Catch22CumulativeReporterBaseINS3_13JunitReporterEE4NodeINS3_12TestRunStatsENS7_INS3_14TestGroupStatsENS7_INS3_13TestCaseStatsENS6_11SectionNodeEEEEEEEEEEEEEvEENS_5decayIDTclsr19__to_address_helperIT_EE6__callclsr3stdE7declvalIRKSK_EEEEE4typeESM_, symObjAddr: 0xEED6C, symBinAddr: 0x1000F1E5C, symSize: 0x24 }
  - { offsetInCU: 0xC4160, offset: 0xC4160, size: 0x8, addend: 0x0, symName: __ZSteqB7v160006RKSt13exception_ptrS1_, symObjAddr: 0x8D20, symBinAddr: 0x10000BE10, symSize: 0x30 }
  - { offsetInCU: 0xC4237, offset: 0xC4237, size: 0x8, addend: 0x0, symName: __ZSt28__throw_bad_array_new_lengthB7v160006v, symObjAddr: 0x329B8, symBinAddr: 0x100035AA8, symSize: 0x34 }
  - { offsetInCU: 0xC5C13, offset: 0xC5C13, size: 0x8, addend: 0x0, symName: __ZN5Catch7SessionC2Ev, symObjAddr: 0x15E9C, symBinAddr: 0x100018F8C, symSize: 0x508 }
  - { offsetInCU: 0xC5C3D, offset: 0xC5C3D, size: 0x8, addend: 0x0, symName: __ZZN5Catch7SessionC1EvE19alreadyInstantiated, symObjAddr: 0x6B8E80, symBinAddr: 0x100114280, symSize: 0x0 }
  - { offsetInCU: 0xC7235, offset: 0xC7235, size: 0x8, addend: 0x0, symName: __ZN12_GLOBAL__N_114autoRegistrar1E, symObjAddr: 0x6B8EC8, symBinAddr: 0x1001142C8, symSize: 0x0 }
  - { offsetInCU: 0xC724F, offset: 0xC724F, size: 0x8, addend: 0x0, symName: __ZN12_GLOBAL__N_114autoRegistrar4E, symObjAddr: 0x6B8ED0, symBinAddr: 0x1001142D0, symSize: 0x0 }
  - { offsetInCU: 0xC7269, offset: 0xC7269, size: 0x8, addend: 0x0, symName: __ZN12_GLOBAL__N_121minStackSizeForErrorsE, symObjAddr: 0xF94E8, symBinAddr: 0x1000FD410, symSize: 0x0 }
  - { offsetInCU: 0xC7276, offset: 0xC7276, size: 0x8, addend: 0x0, symName: __ZN12_GLOBAL__N_116marginComparisonEddd, symObjAddr: 0x470, symBinAddr: 0x100003560, symSize: 0x68 }
  - { offsetInCU: 0xC72C2, offset: 0xC72C2, size: 0x8, addend: 0x0, symName: __ZN12_GLOBAL__N_111reportFatalEPKc, symObjAddr: 0x40400, symBinAddr: 0x1000434F0, symSize: 0x54 }
  - { offsetInCU: 0xC72ED, offset: 0xC72ED, size: 0x8, addend: 0x0, symName: __ZN12_GLOBAL__N_112passedStringEv, symObjAddr: 0x60C40, symBinAddr: 0x100063D30, symSize: 0xC }
  - { offsetInCU: 0xC730C, offset: 0xC730C, size: 0x8, addend: 0x0, symName: __ZN12_GLOBAL__N_19dimColourEv, symObjAddr: 0x60FF8, symBinAddr: 0x1000640E8, symSize: 0x8 }
  - { offsetInCU: 0xC732B, offset: 0xC732B, size: 0x8, addend: 0x0, symName: __ZN12_GLOBAL__N_112failedStringEv, symObjAddr: 0x61000, symBinAddr: 0x1000640F0, symSize: 0xC }
  - { offsetInCU: 0xC7349, offset: 0xC7349, size: 0x8, addend: 0x0, symName: __ZN12_GLOBAL__N_19bothOrAllEm, symObjAddr: 0x61358, symBinAddr: 0x100064448, symSize: 0x78 }
  - { offsetInCU: 0xC7392, offset: 0xC7392, size: 0x8, addend: 0x0, symName: __ZN5Catch12_GLOBAL__N_115PosixColourImpl8instanceEv, symObjAddr: 0x3F900, symBinAddr: 0x1000429F0, symSize: 0x80 }
  - { offsetInCU: 0xC73B2, offset: 0xC73B2, size: 0x8, addend: 0x0, symName: __ZZN5Catch12_GLOBAL__N_115PosixColourImpl8instanceEvE10s_instance, symObjAddr: 0x100A00, symBinAddr: 0x100114070, symSize: 0x0 }
  - { offsetInCU: 0xC73C2, offset: 0xC73C2, size: 0x8, addend: 0x0, symName: __ZN5Catch12_GLOBAL__N_112NoColourImpl8instanceEv, symObjAddr: 0x3F980, symBinAddr: 0x100042A70, symSize: 0x80 }
  - { offsetInCU: 0xC73E2, offset: 0xC73E2, size: 0x8, addend: 0x0, symName: __ZZN5Catch12_GLOBAL__N_112NoColourImpl8instanceEvE10s_instance, symObjAddr: 0x100A08, symBinAddr: 0x100114078, symSize: 0x0 }
  - { offsetInCU: 0xC8A91, offset: 0xC8A91, size: 0x8, addend: 0x0, symName: __ZN5Catch9SingletonINS_12_GLOBAL__N_111RegistryHubENS_12IRegistryHubENS_19IMutableRegistryHubEE11getInternalEv, symObjAddr: 0xB07C0, symBinAddr: 0x1000B38B0, symSize: 0xB8 }
  - { offsetInCU: 0xC8AB1, offset: 0xC8AB1, size: 0x8, addend: 0x0, symName: __ZZN5Catch9SingletonINS_12_GLOBAL__N_111RegistryHubENS_12IRegistryHubENS_19IMutableRegistryHubEE11getInternalEvE10s_instance, symObjAddr: 0x6B8EF0, symBinAddr: 0x1001142F0, symSize: 0x0 }
  - { offsetInCU: 0xC8E40, offset: 0xC8E40, size: 0x8, addend: 0x0, symName: __ZN5Catch9SingletonINS_13StringStreamsES1_S1_E11getInternalEv, symObjAddr: 0xBFCBC, symBinAddr: 0x1000C2DAC, symSize: 0x90 }
  - { offsetInCU: 0xC8E60, offset: 0xC8E60, size: 0x8, addend: 0x0, symName: __ZZN5Catch9SingletonINS_13StringStreamsES1_S1_E11getInternalEvE10s_instance, symObjAddr: 0x100A70, symBinAddr: 0x1001140E0, symSize: 0x0 }
  - { offsetInCU: 0xC9A2D, offset: 0xC9A2D, size: 0x8, addend: 0x0, symName: __ZN5Catch5clara6detail4HelpC2ERb, symObjAddr: 0x35EA8, symBinAddr: 0x100038F98, symSize: 0x1B4 }
  - { offsetInCU: 0xC9B4B, offset: 0xC9B4B, size: 0x8, addend: 0x0, symName: __ZNSt3__16vectorIN5Catch5clara6detail5TokenENS_9allocatorIS4_EEE26__swap_out_circular_bufferERNS_14__split_bufferIS4_RS6_EE, symObjAddr: 0x39564, symBinAddr: 0x10003C654, symSize: 0x118 }
  - { offsetInCU: 0xC9F58, offset: 0xC9F58, size: 0x8, addend: 0x0, symName: __ZNSt3__16vectorIN5Catch5clara8TextFlow6Column8iteratorENS_9allocatorIS5_EEE26__swap_out_circular_bufferERNS_14__split_bufferIS5_RS7_EE, symObjAddr: 0x42D8C, symBinAddr: 0x100045E7C, symSize: 0x118 }
  - { offsetInCU: 0xC9FF0, offset: 0xC9FF0, size: 0x8, addend: 0x0, symName: __ZNSt3__16vectorIN5Catch5clara8TextFlow6ColumnENS_9allocatorIS4_EEE26__swap_out_circular_bufferERNS_14__split_bufferIS4_RS6_EE, symObjAddr: 0x46394, symBinAddr: 0x100049484, symSize: 0x118 }
  - { offsetInCU: 0xCA299, offset: 0xCA299, size: 0x8, addend: 0x0, symName: __ZNSt3__16vectorIN5Catch5clara6detail11HelpColumnsENS_9allocatorIS4_EEE26__swap_out_circular_bufferERNS_14__split_bufferIS4_RS6_EEPS4_, symObjAddr: 0x4E408, symBinAddr: 0x1000514F8, symSize: 0x154 }
  - { offsetInCU: 0xCA44E, offset: 0xCA44E, size: 0x8, addend: 0x0, symName: __ZNSt3__16vectorINS_12basic_stringIcNS_11char_traitsIcEENS_9allocatorIcEEEENS4_IS6_EEE26__swap_out_circular_bufferERNS_14__split_bufferIS6_RS7_EE, symObjAddr: 0x55BB0, symBinAddr: 0x100058CA0, symSize: 0x118 }
  - { offsetInCU: 0xCA71B, offset: 0xCA71B, size: 0x8, addend: 0x0, symName: __ZNSt3__16vectorINS_10unique_ptrINS_19basic_ostringstreamIcNS_11char_traitsIcEENS_9allocatorIcEEEENS_14default_deleteIS7_EEEENS5_ISA_EEE26__swap_out_circular_bufferERNS_14__split_bufferISA_RSB_EE, symObjAddr: 0x5C37C, symBinAddr: 0x10005F46C, symSize: 0x118 }
  - { offsetInCU: 0xCAB2D, offset: 0xCAB2D, size: 0x8, addend: 0x0, symName: __ZNSt3__16vectorIN5Catch5clara6detail3OptENS_9allocatorIS4_EEE26__swap_out_circular_bufferERNS_14__split_bufferIS4_RS6_EE, symObjAddr: 0x6C31C, symBinAddr: 0x10006F40C, symSize: 0x118 }
  - { offsetInCU: 0xCB4A3, offset: 0xCB4A3, size: 0x8, addend: 0x0, symName: __ZNSt3__16vectorIN5Catch5clara6detail3ArgENS_9allocatorIS4_EEE26__swap_out_circular_bufferERNS_14__split_bufferIS4_RS6_EE, symObjAddr: 0x7B924, symBinAddr: 0x10007EA14, symSize: 0x118 }
  - { offsetInCU: 0xCB6AD, offset: 0xCB6AD, size: 0x8, addend: 0x0, symName: __ZNSt3__16vectorIN5Catch9StringRefENS_9allocatorIS2_EEE26__swap_out_circular_bufferERNS_14__split_bufferIS2_RS4_EE, symObjAddr: 0x7D36C, symBinAddr: 0x10008045C, symSize: 0x118 }
  - { offsetInCU: 0xCB709, offset: 0xCB709, size: 0x8, addend: 0x0, symName: __ZNSt3__16vectorINS_4pairIiN5Catch9StringRefEEENS_9allocatorIS4_EEE26__swap_out_circular_bufferERNS_14__split_bufferIS4_RS6_EE, symObjAddr: 0x7EF5C, symBinAddr: 0x10008204C, symSize: 0x118 }
  - { offsetInCU: 0xCB79C, offset: 0xCB79C, size: 0x8, addend: 0x0, symName: __ZNSt3__16vectorINS_10unique_ptrIN5Catch6Detail8EnumInfoENS_14default_deleteIS4_EEEENS_9allocatorIS7_EEE26__swap_out_circular_bufferERNS_14__split_bufferIS7_RS9_EE, symObjAddr: 0x8097C, symBinAddr: 0x100083A6C, symSize: 0x118 }
  - { offsetInCU: 0xCB834, offset: 0xCB834, size: 0x8, addend: 0x0, symName: __ZNSt3__16vectorINS_10unique_ptrIKN5Catch20IExceptionTranslatorENS_14default_deleteIS4_EEEENS_9allocatorIS7_EEE26__swap_out_circular_bufferERNS_14__split_bufferIS7_RS9_EE, symObjAddr: 0x82620, symBinAddr: 0x100085710, symSize: 0x118 }
  - { offsetInCU: 0xCB921, offset: 0xCB921, size: 0x8, addend: 0x0, symName: __ZNSt3__16vectorIN5Catch11MessageInfoENS_9allocatorIS2_EEE26__swap_out_circular_bufferERNS_14__split_bufferIS2_RS4_EE, symObjAddr: 0x84E5C, symBinAddr: 0x100087F4C, symSize: 0x118 }
  - { offsetInCU: 0xCBF40, offset: 0xCBF40, size: 0x8, addend: 0x0, symName: __ZNSt3__16vectorINS_7__stateIcEENS_9allocatorIS2_EEE26__swap_out_circular_bufferERNS_14__split_bufferIS2_RS4_EE, symObjAddr: 0x8FF58, symBinAddr: 0x100093048, symSize: 0x118 }
  - { offsetInCU: 0xCBFD8, offset: 0xCBFD8, size: 0x8, addend: 0x0, symName: __ZNSt3__16vectorINS_9sub_matchIPKcEENS_9allocatorIS4_EEE26__swap_out_circular_bufferERNS_14__split_bufferIS4_RS6_EE, symObjAddr: 0x91B80, symBinAddr: 0x100094C70, symSize: 0x118 }
  - { offsetInCU: 0xCC06B, offset: 0xCC06B, size: 0x8, addend: 0x0, symName: __ZNSt3__16vectorINS_4pairImPKcEENS_9allocatorIS4_EEE26__swap_out_circular_bufferERNS_14__split_bufferIS4_RS6_EE, symObjAddr: 0x92DC0, symBinAddr: 0x100095EB0, symSize: 0x118 }
  - { offsetInCU: 0xCC590, offset: 0xCC590, size: 0x8, addend: 0x0, symName: __ZNSt3__16vectorIcNS_9allocatorIcEEE26__swap_out_circular_bufferERNS_14__split_bufferIcRS2_EE, symObjAddr: 0x9AEA4, symBinAddr: 0x10009DF94, symSize: 0x118 }
  - { offsetInCU: 0xCC5E7, offset: 0xCC5E7, size: 0x8, addend: 0x0, symName: __ZNSt3__16vectorINS_4pairINS_12basic_stringIcNS_11char_traitsIcEENS_9allocatorIcEEEES7_EENS5_IS8_EEE26__swap_out_circular_bufferERNS_14__split_bufferIS8_RS9_EE, symObjAddr: 0x9F7B0, symBinAddr: 0x1000A28A0, symSize: 0x118 }
  - { offsetInCU: 0xCC67A, offset: 0xCC67A, size: 0x8, addend: 0x0, symName: __ZNSt3__16vectorINS_4pairIccEENS_9allocatorIS2_EEE26__swap_out_circular_bufferERNS_14__split_bufferIS2_RS4_EE, symObjAddr: 0xA0CA8, symBinAddr: 0x1000A3D98, symSize: 0x118 }
  - { offsetInCU: 0xCCA2D, offset: 0xCCA2D, size: 0x8, addend: 0x0, symName: __ZNSt3__16vectorINS_9sub_matchINS_11__wrap_iterIPKcEEEENS_9allocatorIS6_EEE26__swap_out_circular_bufferERNS_14__split_bufferIS6_RS8_EE, symObjAddr: 0xAC5F0, symBinAddr: 0x1000AF6E0, symSize: 0x118 }
  - { offsetInCU: 0xCCB60, offset: 0xCCB60, size: 0x8, addend: 0x0, symName: __ZNSt3__16vectorINS_10shared_ptrIN5Catch16IReporterFactoryEEENS_9allocatorIS4_EEE26__swap_out_circular_bufferERNS_14__split_bufferIS4_RS6_EE, symObjAddr: 0xB4040, symBinAddr: 0x1000B7130, symSize: 0x118 }
  - { offsetInCU: 0xCD071, offset: 0xCD071, size: 0x8, addend: 0x0, symName: __ZNSt3__16vectorIPN5Catch16TestCaseTracking8ITrackerENS_9allocatorIS4_EEE26__swap_out_circular_bufferERNS_14__split_bufferIS4_RS6_EE, symObjAddr: 0xB6AB8, symBinAddr: 0x1000B9BA8, symSize: 0x118 }
  - { offsetInCU: 0xCD0C8, offset: 0xCD0C8, size: 0x8, addend: 0x0, symName: __ZNSt3__16vectorIN5Catch14SectionEndInfoENS_9allocatorIS2_EEE26__swap_out_circular_bufferERNS_14__split_bufferIS2_RS4_EE, symObjAddr: 0xB804C, symBinAddr: 0x1000BB13C, symSize: 0x118 }
  - { offsetInCU: 0xCD15B, offset: 0xCD15B, size: 0x8, addend: 0x0, symName: __ZNSt3__16vectorIN5Catch13ScopedMessageENS_9allocatorIS2_EEE26__swap_out_circular_bufferERNS_14__split_bufferIS2_RS4_EE, symObjAddr: 0xB9C78, symBinAddr: 0x1000BCD68, symSize: 0x118 }
  - { offsetInCU: 0xCD28E, offset: 0xCD28E, size: 0x8, addend: 0x0, symName: __ZNSt3__16vectorIPN5Catch10ISingletonENS_9allocatorIS3_EEE26__swap_out_circular_bufferERNS_14__split_bufferIS3_RS5_EE, symObjAddr: 0xBC174, symBinAddr: 0x1000BF264, symSize: 0x118 }
  - { offsetInCU: 0xCD2EA, offset: 0xCD2EA, size: 0x8, addend: 0x0, symName: __ZNSt3__16vectorISt13exception_ptrNS_9allocatorIS1_EEE26__swap_out_circular_bufferERNS_14__split_bufferIS1_RS3_EE, symObjAddr: 0xBD988, symBinAddr: 0x1000C0A78, symSize: 0x118 }
  - { offsetInCU: 0xCD37D, offset: 0xCD37D, size: 0x8, addend: 0x0, symName: __ZNSt3__16vectorImNS_9allocatorImEEE26__swap_out_circular_bufferERNS_14__split_bufferImRS2_EE, symObjAddr: 0xBED5C, symBinAddr: 0x1000C1E4C, symSize: 0x118 }
  - { offsetInCU: 0xCD3D9, offset: 0xCD3D9, size: 0x8, addend: 0x0, symName: __ZNSt3__16vectorINS_12basic_stringIcNS_11char_traitsIcEENS_9allocatorIcEEEENS4_IS6_EEE26__swap_out_circular_bufferERNS_14__split_bufferIS6_RS7_EEPS6_, symObjAddr: 0xC2630, symBinAddr: 0x1000C5720, symSize: 0x154 }
  - { offsetInCU: 0xCD61F, offset: 0xCD61F, size: 0x8, addend: 0x0, symName: __ZNSt3__16vectorINS_4pairIyPKN5Catch8TestCaseEEENS_9allocatorIS6_EEE26__swap_out_circular_bufferERNS_14__split_bufferIS6_RS8_EE, symObjAddr: 0xC9434, symBinAddr: 0x1000CC524, symSize: 0x118 }
  - { offsetInCU: 0xCD6B2, offset: 0xCD6B2, size: 0x8, addend: 0x0, symName: __ZNSt3__16vectorIN5Catch8TestCaseENS_9allocatorIS2_EEE26__swap_out_circular_bufferERNS_14__split_bufferIS2_RS4_EE, symObjAddr: 0xCC5F4, symBinAddr: 0x1000CF6E4, symSize: 0x118 }
  - { offsetInCU: 0xCDA1A, offset: 0xCDA1A, size: 0x8, addend: 0x0, symName: __ZNSt3__16vectorINS_10shared_ptrIN5Catch16TestCaseTracking8ITrackerEEENS_9allocatorIS5_EEE26__swap_out_circular_bufferERNS_14__split_bufferIS5_RS7_EE, symObjAddr: 0xCFE78, symBinAddr: 0x1000D2F68, symSize: 0x118 }
  - { offsetInCU: 0xCDAE9, offset: 0xCDAE9, size: 0x8, addend: 0x0, symName: __ZNSt3__16vectorIPKN5Catch8TestCaseENS_9allocatorIS4_EEE26__swap_out_circular_bufferERNS_14__split_bufferIS4_RS6_EE, symObjAddr: 0xD3020, symBinAddr: 0x1000D6110, symSize: 0x118 }
  - { offsetInCU: 0xCDB81, offset: 0xCDB81, size: 0x8, addend: 0x0, symName: __ZNSt3__16vectorIN5Catch8TestSpec6FilterENS_9allocatorIS3_EEE26__swap_out_circular_bufferERNS_14__split_bufferIS3_RS5_EE, symObjAddr: 0xD4EE8, symBinAddr: 0x1000D7FD8, symSize: 0x118 }
  - { offsetInCU: 0xCDD66, offset: 0xCDD66, size: 0x8, addend: 0x0, symName: __ZNSt3__16vectorINS_10shared_ptrIN5Catch8TestSpec7PatternEEENS_9allocatorIS5_EEE26__swap_out_circular_bufferERNS_14__split_bufferIS5_RS7_EE, symObjAddr: 0xD72C0, symBinAddr: 0x1000DA3B0, symSize: 0x118 }
  - { offsetInCU: 0xCDFDC, offset: 0xCDFDC, size: 0x8, addend: 0x0, symName: __ZNSt3__16vectorIN5Catch11SectionInfoENS_9allocatorIS2_EEE26__swap_out_circular_bufferERNS_14__split_bufferIS2_RS4_EE, symObjAddr: 0xDCBF8, symBinAddr: 0x1000DFCE8, symSize: 0x118 }
  - { offsetInCU: 0xCE074, offset: 0xCE074, size: 0x8, addend: 0x0, symName: __ZNSt3__16vectorIN5Catch13SummaryColumnENS_9allocatorIS2_EEE26__swap_out_circular_bufferERNS_14__split_bufferIS2_RS4_EE, symObjAddr: 0xDE804, symBinAddr: 0x1000E18F4, symSize: 0x118 }
  - { offsetInCU: 0xCE23D, offset: 0xCE23D, size: 0x8, addend: 0x0, symName: __ZNSt3__16vectorIN5Catch14AssertionStatsENS_9allocatorIS2_EEE26__swap_out_circular_bufferERNS_14__split_bufferIS2_RS4_EE, symObjAddr: 0xE18BC, symBinAddr: 0x1000E49AC, symSize: 0x118 }
  - { offsetInCU: 0xCE370, offset: 0xCE370, size: 0x8, addend: 0x0, symName: __ZNSt3__16vectorINS_10shared_ptrIN5Catch22CumulativeReporterBaseINS2_13JunitReporterEE11SectionNodeEEENS_9allocatorIS7_EEE26__swap_out_circular_bufferERNS_14__split_bufferIS7_RS9_EE, symObjAddr: 0xE39F0, symBinAddr: 0x1000E6AE0, symSize: 0x118 }
  - { offsetInCU: 0xCE403, offset: 0xCE403, size: 0x8, addend: 0x0, symName: __ZNSt3__16vectorINS_10shared_ptrIN5Catch22CumulativeReporterBaseINS2_13JunitReporterEE4NodeINS2_13TestCaseStatsENS5_11SectionNodeEEEEENS_9allocatorISA_EEE26__swap_out_circular_bufferERNS_14__split_bufferISA_RSC_EE, symObjAddr: 0xE4EE4, symBinAddr: 0x1000E7FD4, symSize: 0x118 }
  - { offsetInCU: 0xCE527, offset: 0xCE527, size: 0x8, addend: 0x0, symName: __ZNSt3__16vectorINS_10shared_ptrIN5Catch22CumulativeReporterBaseINS2_13JunitReporterEE4NodeINS2_14TestGroupStatsENS6_INS2_13TestCaseStatsENS5_11SectionNodeEEEEEEENS_9allocatorISC_EEE26__swap_out_circular_bufferERNS_14__split_bufferISC_RSE_EE, symObjAddr: 0xE7098, symBinAddr: 0x1000EA188, symSize: 0x118 }
  - { offsetInCU: 0xCE6F0, offset: 0xCE6F0, size: 0x8, addend: 0x0, symName: __ZNSt3__16vectorINS_10unique_ptrIN5Catch18IStreamingReporterENS_14default_deleteIS3_EEEENS_9allocatorIS6_EEE26__swap_out_circular_bufferERNS_14__split_bufferIS6_RS8_EE, symObjAddr: 0xE9BD0, symBinAddr: 0x1000ECCC0, symSize: 0x118 }
  - { offsetInCU: 0xCEA01, offset: 0xCEA01, size: 0x8, addend: 0x0, symName: __ZNSt3__16vectorINS_10shared_ptrIN5Catch22CumulativeReporterBaseINS2_13JunitReporterEE4NodeINS2_12TestRunStatsENS6_INS2_14TestGroupStatsENS6_INS2_13TestCaseStatsENS5_11SectionNodeEEEEEEEEENS_9allocatorISE_EEE26__swap_out_circular_bufferERNS_14__split_bufferISE_RSG_EE, symObjAddr: 0xEE074, symBinAddr: 0x1000F1164, symSize: 0x118 }
  - { offsetInCU: 0xD0418, offset: 0xD0418, size: 0x8, addend: 0x0, symName: __Z7isalnumi, symObjAddr: 0x5DC00, symBinAddr: 0x100060CF0, symSize: 0x28 }
  - { offsetInCU: 0xD04F5, offset: 0xD04F5, size: 0x8, addend: 0x0, symName: __Z7isspacei, symObjAddr: 0x48230, symBinAddr: 0x10004B320, symSize: 0x28 }
  - { offsetInCU: 0xD054F, offset: 0xD054F, size: 0x8, addend: 0x0, symName: __Z7toloweri, symObjAddr: 0x5D8FC, symBinAddr: 0x1000609EC, symSize: 0x24 }
  - { offsetInCU: 0xD0F31, offset: 0xD0F31, size: 0x8, addend: 0x0, symName: __ZN5Catch6Detail6ApproxC2Ed, symObjAddr: 0x0, symBinAddr: 0x1000030F0, symSize: 0x58 }
  - { offsetInCU: 0xD0F6C, offset: 0xD0F6C, size: 0x8, addend: 0x0, symName: __ZNSt3__114numeric_limitsIfE7epsilonB7v160006Ev, symObjAddr: 0x58, symBinAddr: 0x100003148, symSize: 0x14 }
  - { offsetInCU: 0xD0F80, offset: 0xD0F80, size: 0x8, addend: 0x0, symName: __ZN5Catch6Detail6ApproxC1Ed, symObjAddr: 0x6C, symBinAddr: 0x10000315C, symSize: 0x34 }
  - { offsetInCU: 0xD0FBB, offset: 0xD0FBB, size: 0x8, addend: 0x0, symName: __ZN5Catch6Detail6Approx6customEv, symObjAddr: 0xA0, symBinAddr: 0x100003190, symSize: 0x38 }
  - { offsetInCU: 0xD0FD1, offset: 0xD0FD1, size: 0x8, addend: 0x0, symName: __ZN5Catch6Detail6ApproxC1IivEERKT_, symObjAddr: 0xD8, symBinAddr: 0x1000031C8, symSize: 0x44 }
  - { offsetInCU: 0xD1014, offset: 0xD1014, size: 0x8, addend: 0x0, symName: __ZNK5Catch6Detail6ApproxngEv, symObjAddr: 0x11C, symBinAddr: 0x10000320C, symSize: 0x40 }
  - { offsetInCU: 0xD104B, offset: 0xD104B, size: 0x8, addend: 0x0, symName: __ZNK5Catch6Detail6Approx8toStringEv, symObjAddr: 0x15C, symBinAddr: 0x10000324C, symSize: 0xE8 }
  - { offsetInCU: 0xD1082, offset: 0xD1082, size: 0x8, addend: 0x0, symName: __ZN5Catch20ReusableStringStreamC1Ev, symObjAddr: 0x244, symBinAddr: 0x100003334, symSize: 0x2C }
  - { offsetInCU: 0xD10CB, offset: 0xD10CB, size: 0x8, addend: 0x0, symName: __ZN5Catch20ReusableStringStreamlsIA9_cEERS0_RKT_, symObjAddr: 0x270, symBinAddr: 0x100003360, symSize: 0x38 }
  - { offsetInCU: 0xD1109, offset: 0xD1109, size: 0x8, addend: 0x0, symName: __ZN5Catch20ReusableStringStreamlsINSt3__112basic_stringIcNS2_11char_traitsIcEENS2_9allocatorIcEEEEEERS0_RKT_, symObjAddr: 0x2A8, symBinAddr: 0x100003398, symSize: 0x38 }
  - { offsetInCU: 0xD115F, offset: 0xD115F, size: 0x8, addend: 0x0, symName: __ZN5Catch20ReusableStringStreamlsIA3_cEERS0_RKT_, symObjAddr: 0x310, symBinAddr: 0x100003400, symSize: 0x38 }
  - { offsetInCU: 0xD119D, offset: 0xD119D, size: 0x8, addend: 0x0, symName: __ZNK5Catch20ReusableStringStream3strEv, symObjAddr: 0x348, symBinAddr: 0x100003438, symSize: 0x30 }
  - { offsetInCU: 0xD11C5, offset: 0xD11C5, size: 0x8, addend: 0x0, symName: __ZN5Catch20ReusableStringStreamD1Ev, symObjAddr: 0x378, symBinAddr: 0x100003468, symSize: 0x2C }
  - { offsetInCU: 0xD11F1, offset: 0xD11F1, size: 0x8, addend: 0x0, symName: __ZNK5Catch6Detail6Approx22equalityComparisonImplEd, symObjAddr: 0x3A4, symBinAddr: 0x100003494, symSize: 0xCC }
  - { offsetInCU: 0xD1227, offset: 0xD1227, size: 0x8, addend: 0x0, symName: __Z5isinfB7v160006Ua9enable_ifIXLb1EEEd, symObjAddr: 0x4D8, symBinAddr: 0x1000035C8, symSize: 0x2C }
  - { offsetInCU: 0xD1256, offset: 0xD1256, size: 0x8, addend: 0x0, symName: __ZN5Catch6Detail6Approx9setMarginEd, symObjAddr: 0x504, symBinAddr: 0x1000035F4, symSize: 0x118 }
  - { offsetInCU: 0xD12A5, offset: 0xD12A5, size: 0x8, addend: 0x0, symName: __ZN5Catch20ReusableStringStreamlsIA25_cEERS0_RKT_, symObjAddr: 0x66C, symBinAddr: 0x10000375C, symSize: 0x38 }
  - { offsetInCU: 0xD12ED, offset: 0xD12ED, size: 0x8, addend: 0x0, symName: __ZN5Catch20ReusableStringStreamlsIdEERS0_RKT_, symObjAddr: 0x6A4, symBinAddr: 0x100003794, symSize: 0x3C }
  - { offsetInCU: 0xD132B, offset: 0xD132B, size: 0x8, addend: 0x0, symName: __ZN5Catch20ReusableStringStreamlsIcEERS0_RKT_, symObjAddr: 0x6E0, symBinAddr: 0x1000037D0, symSize: 0x3C }
  - { offsetInCU: 0xD1373, offset: 0xD1373, size: 0x8, addend: 0x0, symName: __ZN5Catch20ReusableStringStreamlsIA40_cEERS0_RKT_, symObjAddr: 0x71C, symBinAddr: 0x10000380C, symSize: 0x38 }
  - { offsetInCU: 0xD13B1, offset: 0xD13B1, size: 0x8, addend: 0x0, symName: __ZN5Catch6Detail6Approx10setEpsilonEd, symObjAddr: 0x754, symBinAddr: 0x100003844, symSize: 0x130 }
  - { offsetInCU: 0xD1400, offset: 0xD1400, size: 0x8, addend: 0x0, symName: __ZN5Catch20ReusableStringStreamlsIA26_cEERS0_RKT_, symObjAddr: 0x884, symBinAddr: 0x100003974, symSize: 0x38 }
  - { offsetInCU: 0xD1456, offset: 0xD1456, size: 0x8, addend: 0x0, symName: __ZN5Catch20ReusableStringStreamlsIA37_cEERS0_RKT_, symObjAddr: 0x8BC, symBinAddr: 0x1000039AC, symSize: 0x38 }
  - { offsetInCU: 0xD149E, offset: 0xD149E, size: 0x8, addend: 0x0, symName: __ZN5Catch6Detail6ApproxC1IevEERKT_, symObjAddr: 0x92C, symBinAddr: 0x100003A1C, symSize: 0x38 }
  - { offsetInCU: 0xD14EB, offset: 0xD14EB, size: 0x8, addend: 0x0, symName: __ZN5Catch6Detail6ApproxC1IyvEERKT_, symObjAddr: 0x99C, symBinAddr: 0x100003A8C, symSize: 0x3C }
  - { offsetInCU: 0xD1532, offset: 0xD1532, size: 0x8, addend: 0x0, symName: __ZN5Catch11StringMakerINS_6Detail6ApproxEvE7convertERKS2_, symObjAddr: 0x9D8, symBinAddr: 0x100003AC8, symSize: 0x2C }
  - { offsetInCU: 0xD1558, offset: 0xD1558, size: 0x8, addend: 0x0, symName: __ZN5Catch14LazyExpressionC2Eb, symObjAddr: 0xA04, symBinAddr: 0x100003AF4, symSize: 0x30 }
  - { offsetInCU: 0xD1593, offset: 0xD1593, size: 0x8, addend: 0x0, symName: __ZN5Catch14LazyExpressionC1Eb, symObjAddr: 0xA34, symBinAddr: 0x100003B24, symSize: 0x40 }
  - { offsetInCU: 0xD15CE, offset: 0xD15CE, size: 0x8, addend: 0x0, symName: __ZN5Catch14LazyExpressionC2ERKS0_, symObjAddr: 0xA74, symBinAddr: 0x100003B64, symSize: 0x2C }
  - { offsetInCU: 0xD1609, offset: 0xD1609, size: 0x8, addend: 0x0, symName: __ZN5Catch14LazyExpressionC1ERKS0_, symObjAddr: 0xAA0, symBinAddr: 0x100003B90, symSize: 0x34 }
  - { offsetInCU: 0xD1644, offset: 0xD1644, size: 0x8, addend: 0x0, symName: __ZNK5Catch14LazyExpressioncvbEv, symObjAddr: 0xAD4, symBinAddr: 0x100003BC4, symSize: 0x24 }
  - { offsetInCU: 0xD166C, offset: 0xD166C, size: 0x8, addend: 0x0, symName: __ZNK5Catch20ITransientExpression18isBinaryExpressionEv, symObjAddr: 0xC14, symBinAddr: 0x100003D04, symSize: 0x1C }
  - { offsetInCU: 0xD16A6, offset: 0xD16A6, size: 0x8, addend: 0x0, symName: __ZN5Catch16AssertionHandlerC2ERKNS_9StringRefERKNS_14SourceLineInfoES1_NS_17ResultDisposition5FlagsE, symObjAddr: 0xC68, symBinAddr: 0x100003D58, symSize: 0x80 }
  - { offsetInCU: 0xD1713, offset: 0xD1713, size: 0x8, addend: 0x0, symName: __ZN5Catch17AssertionReactionC1Ev, symObjAddr: 0xCE8, symBinAddr: 0x100003DD8, symSize: 0x2C }
  - { offsetInCU: 0xD1740, offset: 0xD1740, size: 0x8, addend: 0x0, symName: __ZN5Catch16AssertionHandlerC1ERKNS_9StringRefERKNS_14SourceLineInfoES1_NS_17ResultDisposition5FlagsE, symObjAddr: 0xE1C, symBinAddr: 0x100003F0C, symSize: 0x54 }
  - { offsetInCU: 0xD17A8, offset: 0xD17A8, size: 0x8, addend: 0x0, symName: __ZN5Catch16AssertionHandler10handleExprERKNS_20ITransientExpressionE, symObjAddr: 0xE70, symBinAddr: 0x100003F60, symSize: 0x40 }
  - { offsetInCU: 0xD17DF, offset: 0xD17DF, size: 0x8, addend: 0x0, symName: __ZN5Catch16AssertionHandler13handleMessageENS_9ResultWas6OfTypeERKNS_9StringRefE, symObjAddr: 0xEB0, symBinAddr: 0x100003FA0, symSize: 0x48 }
  - { offsetInCU: 0xD1825, offset: 0xD1825, size: 0x8, addend: 0x0, symName: __ZNK5Catch16AssertionHandler11allowThrowsEv, symObjAddr: 0xEF8, symBinAddr: 0x100003FE8, symSize: 0x40 }
  - { offsetInCU: 0xD184D, offset: 0xD184D, size: 0x8, addend: 0x0, symName: __ZNKSt3__110shared_ptrIKN5Catch7IConfigEEptB7v160006Ev, symObjAddr: 0xF4C, symBinAddr: 0x10000403C, symSize: 0x18 }
  - { offsetInCU: 0xD1873, offset: 0xD1873, size: 0x8, addend: 0x0, symName: __ZN5Catch16AssertionHandler8completeEv, symObjAddr: 0xF64, symBinAddr: 0x100004054, symSize: 0x6C }
  - { offsetInCU: 0xD18B1, offset: 0xD18B1, size: 0x8, addend: 0x0, symName: __ZN5Catch16AssertionHandler12setCompletedEv, symObjAddr: 0xFD0, symBinAddr: 0x1000040C0, symSize: 0x1C }
  - { offsetInCU: 0xD18E3, offset: 0xD18E3, size: 0x8, addend: 0x0, symName: '__ZZN5Catch16AssertionHandler8completeEvENK3$_0clEv', symObjAddr: 0xFEC, symBinAddr: 0x1000040DC, symSize: 0x30 }
  - { offsetInCU: 0xD190D, offset: 0xD190D, size: 0x8, addend: 0x0, symName: __ZN5Catch16AssertionHandler33handleUnexpectedInflightExceptionEv, symObjAddr: 0x101C, symBinAddr: 0x10000410C, symSize: 0x84 }
  - { offsetInCU: 0xD1935, offset: 0xD1935, size: 0x8, addend: 0x0, symName: __ZN5Catch16AssertionHandler31handleExceptionThrownAsExpectedEv, symObjAddr: 0x10E0, symBinAddr: 0x1000041D0, symSize: 0x3C }
  - { offsetInCU: 0xD195D, offset: 0xD195D, size: 0x8, addend: 0x0, symName: __ZN5Catch16AssertionHandler34handleExceptionNotThrownAsExpectedEv, symObjAddr: 0x111C, symBinAddr: 0x10000420C, symSize: 0x3C }
  - { offsetInCU: 0xD1985, offset: 0xD1985, size: 0x8, addend: 0x0, symName: __ZN5Catch16AssertionHandler34handleUnexpectedExceptionNotThrownEv, symObjAddr: 0x1158, symBinAddr: 0x100004248, symSize: 0x38 }
  - { offsetInCU: 0xD19AD, offset: 0xD19AD, size: 0x8, addend: 0x0, symName: __ZN5Catch16AssertionHandler25handleThrowingCallSkippedEv, symObjAddr: 0x1190, symBinAddr: 0x100004280, symSize: 0x3C }
  - { offsetInCU: 0xD19D5, offset: 0xD19D5, size: 0x8, addend: 0x0, symName: __ZN5Catch8Matchers9StdString13EqualsMatcherD1Ev, symObjAddr: 0x1360, symBinAddr: 0x100004450, symSize: 0x2C }
  - { offsetInCU: 0xD1A02, offset: 0xD1A02, size: 0x8, addend: 0x0, symName: __ZN5Catch19AssertionResultDataC2ENS_9ResultWas6OfTypeERKNS_14LazyExpressionE, symObjAddr: 0x138C, symBinAddr: 0x10000447C, symSize: 0x58 }
  - { offsetInCU: 0xD1A4C, offset: 0xD1A4C, size: 0x8, addend: 0x0, symName: __ZNSt3__112basic_stringIcNS_11char_traitsIcEENS_9allocatorIcEEEC1B7v160006Ev, symObjAddr: 0x13E4, symBinAddr: 0x1000044D4, symSize: 0x2C }
  - { offsetInCU: 0xD1A76, offset: 0xD1A76, size: 0x8, addend: 0x0, symName: __ZN5Catch19AssertionResultDataC1ENS_9ResultWas6OfTypeERKNS_14LazyExpressionE, symObjAddr: 0x1410, symBinAddr: 0x100004500, symSize: 0x3C }
  - { offsetInCU: 0xD1AC0, offset: 0xD1AC0, size: 0x8, addend: 0x0, symName: __ZNK5Catch19AssertionResultData21reconstructExpressionEv, symObjAddr: 0x144C, symBinAddr: 0x10000453C, symSize: 0xDC }
  - { offsetInCU: 0xD1AFD, offset: 0xD1AFD, size: 0x8, addend: 0x0, symName: __ZNKSt3__112basic_stringIcNS_11char_traitsIcEENS_9allocatorIcEEE5emptyB7v160006Ev, symObjAddr: 0x1528, symBinAddr: 0x100004618, symSize: 0x30 }
  - { offsetInCU: 0xD1B23, offset: 0xD1B23, size: 0x8, addend: 0x0, symName: __ZN5Catch20ReusableStringStreamlsINS_14LazyExpressionEEERS0_RKT_, symObjAddr: 0x1558, symBinAddr: 0x100004648, symSize: 0x38 }
  - { offsetInCU: 0xD1B61, offset: 0xD1B61, size: 0x8, addend: 0x0, symName: __ZNSt3__112basic_stringIcNS_11char_traitsIcEENS_9allocatorIcEEEaSB7v160006EOS5_, symObjAddr: 0x1590, symBinAddr: 0x100004680, symSize: 0x34 }
  - { offsetInCU: 0xD1B96, offset: 0xD1B96, size: 0x8, addend: 0x0, symName: __ZN5Catch15AssertionResultC2ERKNS_13AssertionInfoERKNS_19AssertionResultDataE, symObjAddr: 0x15C4, symBinAddr: 0x1000046B4, symSize: 0x4C }
  - { offsetInCU: 0xD1BE0, offset: 0xD1BE0, size: 0x8, addend: 0x0, symName: __ZN5Catch19AssertionResultDataC1ERKS0_, symObjAddr: 0x1610, symBinAddr: 0x100004700, symSize: 0x34 }
  - { offsetInCU: 0xD1C16, offset: 0xD1C16, size: 0x8, addend: 0x0, symName: __ZN5Catch15AssertionResultC1ERKNS_13AssertionInfoERKNS_19AssertionResultDataE, symObjAddr: 0x1644, symBinAddr: 0x100004734, symSize: 0x3C }
  - { offsetInCU: 0xD1C60, offset: 0xD1C60, size: 0x8, addend: 0x0, symName: __ZNK5Catch15AssertionResult9succeededEv, symObjAddr: 0x1680, symBinAddr: 0x100004770, symSize: 0x2C }
  - { offsetInCU: 0xD1C88, offset: 0xD1C88, size: 0x8, addend: 0x0, symName: __ZNK5Catch15AssertionResult4isOkEv, symObjAddr: 0x16CC, symBinAddr: 0x1000047BC, symSize: 0x58 }
  - { offsetInCU: 0xD1CB0, offset: 0xD1CB0, size: 0x8, addend: 0x0, symName: __ZNK5Catch15AssertionResult13getResultTypeEv, symObjAddr: 0x1744, symBinAddr: 0x100004834, symSize: 0x18 }
  - { offsetInCU: 0xD1CD8, offset: 0xD1CD8, size: 0x8, addend: 0x0, symName: __ZNK5Catch15AssertionResult13hasExpressionEv, symObjAddr: 0x175C, symBinAddr: 0x10000484C, symSize: 0x30 }
  - { offsetInCU: 0xD1D00, offset: 0xD1D00, size: 0x8, addend: 0x0, symName: __ZNK5Catch9StringRef5emptyEv, symObjAddr: 0x178C, symBinAddr: 0x10000487C, symSize: 0x24 }
  - { offsetInCU: 0xD1D26, offset: 0xD1D26, size: 0x8, addend: 0x0, symName: __ZNK5Catch15AssertionResult10hasMessageEv, symObjAddr: 0x17B0, symBinAddr: 0x1000048A0, symSize: 0x30 }
  - { offsetInCU: 0xD1D4E, offset: 0xD1D4E, size: 0x8, addend: 0x0, symName: __ZNK5Catch15AssertionResult13getExpressionEv, symObjAddr: 0x17E0, symBinAddr: 0x1000048D0, symSize: 0x138 }
  - { offsetInCU: 0xD1D86, offset: 0xD1D86, size: 0x8, addend: 0x0, symName: __ZNK5Catch9StringRef4sizeEv, symObjAddr: 0x1918, symBinAddr: 0x100004A08, symSize: 0x18 }
  - { offsetInCU: 0xD1DAC, offset: 0xD1DAC, size: 0x8, addend: 0x0, symName: __ZNSt3__112basic_stringIcNS_11char_traitsIcEENS_9allocatorIcEEEpLB7v160006EPKc, symObjAddr: 0x1950, symBinAddr: 0x100004A40, symSize: 0x2C }
  - { offsetInCU: 0xD1DE1, offset: 0xD1DE1, size: 0x8, addend: 0x0, symName: __ZNSt3__112basic_stringIcNS_11char_traitsIcEENS_9allocatorIcEEEpLB7v160006Ec, symObjAddr: 0x19CC, symBinAddr: 0x100004ABC, symSize: 0x34 }
  - { offsetInCU: 0xD1E16, offset: 0xD1E16, size: 0x8, addend: 0x0, symName: __ZNK5Catch15AssertionResult20getExpressionInMacroEv, symObjAddr: 0x1A00, symBinAddr: 0x100004AF0, symSize: 0x15C }
  - { offsetInCU: 0xD1E4E, offset: 0xD1E4E, size: 0x8, addend: 0x0, symName: __ZNK5Catch9StringRefcvNSt3__112basic_stringIcNS1_11char_traitsIcEENS1_9allocatorIcEEEEEv, symObjAddr: 0x1B5C, symBinAddr: 0x100004C4C, symSize: 0x40 }
  - { offsetInCU: 0xD1E74, offset: 0xD1E74, size: 0x8, addend: 0x0, symName: __ZNK5Catch15AssertionResult21hasExpandedExpressionEv, symObjAddr: 0x1B9C, symBinAddr: 0x100004C8C, symSize: 0x120 }
  - { offsetInCU: 0xD1E9C, offset: 0xD1E9C, size: 0x8, addend: 0x0, symName: __ZNK5Catch15AssertionResult21getExpandedExpressionEv, symObjAddr: 0x1CF0, symBinAddr: 0x100004DE0, symSize: 0x9C }
  - { offsetInCU: 0xD1ED3, offset: 0xD1ED3, size: 0x8, addend: 0x0, symName: __ZNK5Catch15AssertionResult10getMessageEv, symObjAddr: 0x1D8C, symBinAddr: 0x100004E7C, symSize: 0x3C }
  - { offsetInCU: 0xD1EFB, offset: 0xD1EFB, size: 0x8, addend: 0x0, symName: __ZNK5Catch15AssertionResult13getSourceInfoEv, symObjAddr: 0x1DC8, symBinAddr: 0x100004EB8, symSize: 0x24 }
  - { offsetInCU: 0xD1F23, offset: 0xD1F23, size: 0x8, addend: 0x0, symName: __ZNK5Catch15AssertionResult16getTestMacroNameEv, symObjAddr: 0x1DEC, symBinAddr: 0x100004EDC, symSize: 0x24 }
  - { offsetInCU: 0xD1F5A, offset: 0xD1F5A, size: 0x8, addend: 0x0, symName: __ZN5Catch9MatchExprINSt3__112basic_stringIcNS1_11char_traitsIcEENS1_9allocatorIcEEEERKNS_8Matchers4Impl11MatcherBaseIS7_EEEC1ERKS7_SD_RKNS_9StringRefE, symObjAddr: 0x1E10, symBinAddr: 0x100004F00, symSize: 0x44 }
  - { offsetInCU: 0xD1FB1, offset: 0xD1FB1, size: 0x8, addend: 0x0, symName: __ZN5Catch9MatchExprINSt3__112basic_stringIcNS1_11char_traitsIcEENS1_9allocatorIcEEEERKNS_8Matchers4Impl11MatcherBaseIS7_EEED1Ev, symObjAddr: 0x1E54, symBinAddr: 0x100004F44, symSize: 0x2C }
  - { offsetInCU: 0xD1FDE, offset: 0xD1FDE, size: 0x8, addend: 0x0, symName: __ZN5Catch5clara6detail7ExeNameC1ERNSt3__112basic_stringIcNS3_11char_traitsIcEENS3_9allocatorIcEEEE, symObjAddr: 0x4E9C, symBinAddr: 0x100007F8C, symSize: 0x98 }
  - { offsetInCU: 0xD202B, offset: 0xD202B, size: 0x8, addend: 0x0, symName: __ZNK5Catch5clara6detail20ComposableParserImplINS1_7ExeNameEEorINS1_4HelpEEENS1_6ParserERKT_, symObjAddr: 0x4F34, symBinAddr: 0x100008024, symSize: 0xDC }
  - { offsetInCU: 0xD206B, offset: 0xD206B, size: 0x8, addend: 0x0, symName: __ZN5Catch5clara6detail4HelpC1ERb, symObjAddr: 0x5010, symBinAddr: 0x100008100, symSize: 0x34 }
  - { offsetInCU: 0xD20A4, offset: 0xD20A4, size: 0x8, addend: 0x0, symName: __ZNK5Catch5clara6detail6ParserorINS1_3OptEEES2_RKT_, symObjAddr: 0x5044, symBinAddr: 0x100008134, symSize: 0x8C }
  - { offsetInCU: 0xD20E2, offset: 0xD20E2, size: 0x8, addend: 0x0, symName: __ZN5Catch5clara6detail3OptC1ERb, symObjAddr: 0x50D0, symBinAddr: 0x1000081C0, symSize: 0x34 }
  - { offsetInCU: 0xD211B, offset: 0xD211B, size: 0x8, addend: 0x0, symName: __ZN5Catch5clara6detail3OptixERKNSt3__112basic_stringIcNS3_11char_traitsIcEENS3_9allocatorIcEEEE, symObjAddr: 0x5104, symBinAddr: 0x1000081F4, symSize: 0x38 }
  - { offsetInCU: 0xD2155, offset: 0xD2155, size: 0x8, addend: 0x0, symName: __ZNSt3__112basic_stringIcNS_11char_traitsIcEENS_9allocatorIcEEEC1B7v160006IDnEEPKc, symObjAddr: 0x513C, symBinAddr: 0x10000822C, symSize: 0x34 }
  - { offsetInCU: 0xD2194, offset: 0xD2194, size: 0x8, addend: 0x0, symName: __ZN5Catch5clara6detail13ParserRefImplINS1_3OptEEclERKNSt3__112basic_stringIcNS5_11char_traitsIcEENS5_9allocatorIcEEEE, symObjAddr: 0x5170, symBinAddr: 0x100008260, symSize: 0x38 }
  - { offsetInCU: 0xD21C9, offset: 0xD21C9, size: 0x8, addend: 0x0, symName: __ZN5Catch5clara6detail3OptC1INSt3__112basic_stringIcNS4_11char_traitsIcEENS4_9allocatorIcEEEEEERT_RKSA_, symObjAddr: 0x51A8, symBinAddr: 0x100008298, symSize: 0x3C }
  - { offsetInCU: 0xD221A, offset: 0xD221A, size: 0x8, addend: 0x0, symName: '__ZN5Catch5clara6detail3OptC1IZNS_21makeCommandLineParserERNS_10ConfigDataEE3$_1EERKT_RKNSt3__112basic_stringIcNSA_11char_traitsIcEENSA_9allocatorIcEEEE', symObjAddr: 0x51E4, symBinAddr: 0x1000082D4, symSize: 0x3C }
  - { offsetInCU: 0xD226B, offset: 0xD226B, size: 0x8, addend: 0x0, symName: '__ZN5Catch5clara6detail3OptC1IZNS_21makeCommandLineParserERNS_10ConfigDataEE3$_2EERKT_', symObjAddr: 0x5220, symBinAddr: 0x100008310, symSize: 0x34 }
  - { offsetInCU: 0xD22AD, offset: 0xD22AD, size: 0x8, addend: 0x0, symName: '__ZN5Catch5clara6detail3OptC1IZNS_21makeCommandLineParserERNS_10ConfigDataEE3$_3EERKT_RKNSt3__112basic_stringIcNSA_11char_traitsIcEENSA_9allocatorIcEEEE', symObjAddr: 0x5254, symBinAddr: 0x100008344, symSize: 0x3C }
  - { offsetInCU: 0xD22FE, offset: 0xD22FE, size: 0x8, addend: 0x0, symName: '__ZN5Catch5clara6detail3OptC1IZNS_21makeCommandLineParserERNS_10ConfigDataEE3$_4EERKT_RKNSt3__112basic_stringIcNSA_11char_traitsIcEENSA_9allocatorIcEEEE', symObjAddr: 0x5290, symBinAddr: 0x100008380, symSize: 0x3C }
  - { offsetInCU: 0xD234F, offset: 0xD234F, size: 0x8, addend: 0x0, symName: '__ZN5Catch5clara6detail3OptC1IZNS_21makeCommandLineParserERNS_10ConfigDataEE3$_5EERKT_RKNSt3__112basic_stringIcNSA_11char_traitsIcEENSA_9allocatorIcEEEE', symObjAddr: 0x52CC, symBinAddr: 0x1000083BC, symSize: 0x3C }
  - { offsetInCU: 0xD23A0, offset: 0xD23A0, size: 0x8, addend: 0x0, symName: __ZN5Catch5clara6detail3OptC1IdEERT_RKNSt3__112basic_stringIcNS6_11char_traitsIcEENS6_9allocatorIcEEEE, symObjAddr: 0x5308, symBinAddr: 0x1000083F8, symSize: 0x3C }
  - { offsetInCU: 0xD23F1, offset: 0xD23F1, size: 0x8, addend: 0x0, symName: '__ZN5Catch5clara6detail3OptC1IZNS_21makeCommandLineParserERNS_10ConfigDataEE3$_6EERKT_RKNSt3__112basic_stringIcNSA_11char_traitsIcEENSA_9allocatorIcEEEE', symObjAddr: 0x5344, symBinAddr: 0x100008434, symSize: 0x3C }
  - { offsetInCU: 0xD2442, offset: 0xD2442, size: 0x8, addend: 0x0, symName: __ZN5Catch5clara6detail3OptC1INSt3__16vectorINS4_12basic_stringIcNS4_11char_traitsIcEENS4_9allocatorIcEEEENS9_ISB_EEEEEERT_RKSB_, symObjAddr: 0x5380, symBinAddr: 0x100008470, symSize: 0x3C }
  - { offsetInCU: 0xD2493, offset: 0xD2493, size: 0x8, addend: 0x0, symName: '__ZN5Catch5clara6detail3OptC1IZNS_21makeCommandLineParserERNS_10ConfigDataEE3$_7EERKT_RKNSt3__112basic_stringIcNSA_11char_traitsIcEENSA_9allocatorIcEEEE', symObjAddr: 0x53BC, symBinAddr: 0x1000084AC, symSize: 0x3C }
  - { offsetInCU: 0xD24E4, offset: 0xD24E4, size: 0x8, addend: 0x0, symName: '__ZN5Catch5clara6detail3OptC1IZNS_21makeCommandLineParserERNS_10ConfigDataEE3$_8EERKT_RKNSt3__112basic_stringIcNSA_11char_traitsIcEENSA_9allocatorIcEEEE', symObjAddr: 0x53F8, symBinAddr: 0x1000084E8, symSize: 0x3C }
  - { offsetInCU: 0xD2535, offset: 0xD2535, size: 0x8, addend: 0x0, symName: '__ZN5Catch5clara6detail3OptC1IZNS_21makeCommandLineParserERNS_10ConfigDataEE3$_9EERKT_RKNSt3__112basic_stringIcNSA_11char_traitsIcEENSA_9allocatorIcEEEE', symObjAddr: 0x5434, symBinAddr: 0x100008524, symSize: 0x3C }
  - { offsetInCU: 0xD2586, offset: 0xD2586, size: 0x8, addend: 0x0, symName: '__ZN5Catch5clara6detail3OptC1IZNS_21makeCommandLineParserERNS_10ConfigDataEE4$_10EERKT_RKNSt3__112basic_stringIcNSA_11char_traitsIcEENSA_9allocatorIcEEEE', symObjAddr: 0x5470, symBinAddr: 0x100008560, symSize: 0x3C }
  - { offsetInCU: 0xD25D7, offset: 0xD25D7, size: 0x8, addend: 0x0, symName: '__ZN5Catch5clara6detail3OptC1IZNS_21makeCommandLineParserERNS_10ConfigDataEE4$_11EERKT_RKNSt3__112basic_stringIcNSA_11char_traitsIcEENSA_9allocatorIcEEEE', symObjAddr: 0x54AC, symBinAddr: 0x10000859C, symSize: 0x3C }
  - { offsetInCU: 0xD2628, offset: 0xD2628, size: 0x8, addend: 0x0, symName: __ZN5Catch5clara6detail3OptC1IjEERT_RKNSt3__112basic_stringIcNS6_11char_traitsIcEENS6_9allocatorIcEEEE, symObjAddr: 0x54E8, symBinAddr: 0x1000085D8, symSize: 0x3C }
  - { offsetInCU: 0xD2679, offset: 0xD2679, size: 0x8, addend: 0x0, symName: __ZN5Catch5clara6detail3OptC1IxEERT_RKNSt3__112basic_stringIcNS6_11char_traitsIcEENS6_9allocatorIcEEEE, symObjAddr: 0x5524, symBinAddr: 0x100008614, symSize: 0x3C }
  - { offsetInCU: 0xD26CA, offset: 0xD26CA, size: 0x8, addend: 0x0, symName: __ZNK5Catch5clara6detail6ParserorINS1_3ArgEEES2_RKT_, symObjAddr: 0x5560, symBinAddr: 0x100008650, symSize: 0x8C }
  - { offsetInCU: 0xD270D, offset: 0xD270D, size: 0x8, addend: 0x0, symName: __ZN5Catch5clara6detail3ArgCI1NS1_13ParserRefImplIS2_EEINSt3__16vectorINS4_12basic_stringIcNS4_11char_traitsIcEENS4_9allocatorIcEEEENS9_ISB_EEEEEERT_RKSB_, symObjAddr: 0x55EC, symBinAddr: 0x1000086DC, symSize: 0x3C }
  - { offsetInCU: 0xD274C, offset: 0xD274C, size: 0x8, addend: 0x0, symName: __ZN5Catch5clara6detail13ParserRefImplINS1_3ArgEEclERKNSt3__112basic_stringIcNS5_11char_traitsIcEENS5_9allocatorIcEEEE, symObjAddr: 0x5628, symBinAddr: 0x100008718, symSize: 0x38 }
  - { offsetInCU: 0xD2781, offset: 0xD2781, size: 0x8, addend: 0x0, symName: __ZN5Catch5clara6detail3ArgD1Ev, symObjAddr: 0x5660, symBinAddr: 0x100008750, symSize: 0x2C }
  - { offsetInCU: 0xD27AE, offset: 0xD27AE, size: 0x8, addend: 0x0, symName: __ZN5Catch5clara6detail6ParserD1Ev, symObjAddr: 0x568C, symBinAddr: 0x10000877C, symSize: 0x2C }
  - { offsetInCU: 0xD27DB, offset: 0xD27DB, size: 0x8, addend: 0x0, symName: __ZN5Catch5clara6detail3OptD1Ev, symObjAddr: 0x56B8, symBinAddr: 0x1000087A8, symSize: 0x2C }
  - { offsetInCU: 0xD2808, offset: 0xD2808, size: 0x8, addend: 0x0, symName: __ZN5Catch5clara6detail4HelpD1Ev, symObjAddr: 0x56E4, symBinAddr: 0x1000087D4, symSize: 0x2C }
  - { offsetInCU: 0xD2835, offset: 0xD2835, size: 0x8, addend: 0x0, symName: __ZN5Catch5clara6detail7ExeNameD1Ev, symObjAddr: 0x5710, symBinAddr: 0x100008800, symSize: 0x2C }
  - { offsetInCU: 0xD2862, offset: 0xD2862, size: 0x8, addend: 0x0, symName: __ZNK5Catch14SourceLineInfoeqERKS0_, symObjAddr: 0x573C, symBinAddr: 0x10000882C, symSize: 0xBC }
  - { offsetInCU: 0xD2899, offset: 0xD2899, size: 0x8, addend: 0x0, symName: __ZNK5Catch14SourceLineInfoltERKS0_, symObjAddr: 0x5804, symBinAddr: 0x1000088F4, symSize: 0xE4 }
  - { offsetInCU: 0xD28DA, offset: 0xD28DA, size: 0x8, addend: 0x0, symName: __ZNK5Catch13StreamEndStoppsEv, symObjAddr: 0x5964, symBinAddr: 0x100008A54, symSize: 0x34 }
  - { offsetInCU: 0xD2902, offset: 0xD2902, size: 0x8, addend: 0x0, symName: __ZN5Catch11NonCopyableC2Ev, symObjAddr: 0x5998, symBinAddr: 0x100008A88, symSize: 0x24 }
  - { offsetInCU: 0xD292E, offset: 0xD292E, size: 0x8, addend: 0x0, symName: __ZN5Catch11NonCopyableC1Ev, symObjAddr: 0x59BC, symBinAddr: 0x100008AAC, symSize: 0x2C }
  - { offsetInCU: 0xD295A, offset: 0xD295A, size: 0x8, addend: 0x0, symName: __ZN5Catch11NonCopyableD2Ev, symObjAddr: 0x59E8, symBinAddr: 0x100008AD8, symSize: 0x14 }
  - { offsetInCU: 0xD2986, offset: 0xD2986, size: 0x8, addend: 0x0, symName: __ZN5Catch11NonCopyableD1Ev, symObjAddr: 0x59FC, symBinAddr: 0x100008AEC, symSize: 0x2C }
  - { offsetInCU: 0xD29B2, offset: 0xD29B2, size: 0x8, addend: 0x0, symName: __ZN5Catch11NonCopyableD0Ev, symObjAddr: 0x5A28, symBinAddr: 0x100008B18, symSize: 0x30 }
  - { offsetInCU: 0xD29DE, offset: 0xD29DE, size: 0x8, addend: 0x0, symName: __ZN5Catch6ConfigC2ERKNS_10ConfigDataE, symObjAddr: 0x5A58, symBinAddr: 0x100008B48, symSize: 0x2FC }
  - { offsetInCU: 0xD2B0F, offset: 0xD2B0F, size: 0x8, addend: 0x0, symName: __ZN5Catch7IConfigC2Ev, symObjAddr: 0x5D54, symBinAddr: 0x100008E44, symSize: 0x44 }
  - { offsetInCU: 0xD2B41, offset: 0xD2B41, size: 0x8, addend: 0x0, symName: __ZN5Catch10ConfigDataC1ERKS0_, symObjAddr: 0x5D98, symBinAddr: 0x100008E88, symSize: 0x34 }
  - { offsetInCU: 0xD2B77, offset: 0xD2B77, size: 0x8, addend: 0x0, symName: __ZN5Catch6Config10openStreamEv, symObjAddr: 0x5DCC, symBinAddr: 0x100008EBC, symSize: 0x38 }
  - { offsetInCU: 0xD2B9F, offset: 0xD2B9F, size: 0x8, addend: 0x0, symName: __ZNSt3__110unique_ptrIKN5Catch7IStreamENS_14default_deleteIS3_EEEC1B7v160006ILb1EvEEPS3_, symObjAddr: 0x5E04, symBinAddr: 0x100008EF4, symSize: 0x34 }
  - { offsetInCU: 0xD2BE9, offset: 0xD2BE9, size: 0x8, addend: 0x0, symName: __ZN5Catch8TestSpecC1Ev, symObjAddr: 0x5E38, symBinAddr: 0x100008F28, symSize: 0x2C }
  - { offsetInCU: 0xD2C16, offset: 0xD2C16, size: 0x8, addend: 0x0, symName: __ZNSt3__16vectorINS_12basic_stringIcNS_11char_traitsIcEENS_9allocatorIcEEEENS4_IS6_EEE5beginB7v160006Ev, symObjAddr: 0x5E64, symBinAddr: 0x100008F54, symSize: 0x30 }
  - { offsetInCU: 0xD2C3E, offset: 0xD2C3E, size: 0x8, addend: 0x0, symName: __ZNSt3__16vectorINS_12basic_stringIcNS_11char_traitsIcEENS_9allocatorIcEEEENS4_IS6_EEE3endB7v160006Ev, symObjAddr: 0x5E94, symBinAddr: 0x100008F84, symSize: 0x30 }
  - { offsetInCU: 0xD2C66, offset: 0xD2C66, size: 0x8, addend: 0x0, symName: __ZNKSt3__111__wrap_iterIPNS_12basic_stringIcNS_11char_traitsIcEENS_9allocatorIcEEEEEdeB7v160006Ev, symObjAddr: 0x5EF8, symBinAddr: 0x100008FE8, symSize: 0x18 }
  - { offsetInCU: 0xD2C8C, offset: 0xD2C8C, size: 0x8, addend: 0x0, symName: __ZNSt3__111__wrap_iterIPNS_12basic_stringIcNS_11char_traitsIcEENS_9allocatorIcEEEEEppB7v160006Ev, symObjAddr: 0x5FAC, symBinAddr: 0x10000909C, symSize: 0x20 }
  - { offsetInCU: 0xD2CB2, offset: 0xD2CB2, size: 0x8, addend: 0x0, symName: __ZN5Catch17ITagAliasRegistry3getEv, symObjAddr: 0x5FCC, symBinAddr: 0x1000090BC, symSize: 0x20 }
  - { offsetInCU: 0xD2CC8, offset: 0xD2CC8, size: 0x8, addend: 0x0, symName: __ZN5Catch14TestSpecParserC1ERKNS_17ITagAliasRegistryE, symObjAddr: 0x5FEC, symBinAddr: 0x1000090DC, symSize: 0x34 }
  - { offsetInCU: 0xD2D03, offset: 0xD2D03, size: 0x8, addend: 0x0, symName: __ZNKSt3__16vectorINS_12basic_stringIcNS_11char_traitsIcEENS_9allocatorIcEEEENS4_IS6_EEE5emptyB7v160006Ev, symObjAddr: 0x6020, symBinAddr: 0x100009110, symSize: 0x28 }
  - { offsetInCU: 0xD2D29, offset: 0xD2D29, size: 0x8, addend: 0x0, symName: __ZN5Catch14TestSpecParser5parseERKNSt3__112basic_stringIcNS1_11char_traitsIcEENS1_9allocatorIcEEEE, symObjAddr: 0x6048, symBinAddr: 0x100009138, symSize: 0x140 }
  - { offsetInCU: 0xD2D60, offset: 0xD2D60, size: 0x8, addend: 0x0, symName: __ZN5Catch14TestSpecParser8testSpecEv, symObjAddr: 0x6188, symBinAddr: 0x100009278, symSize: 0x40 }
  - { offsetInCU: 0xD2D92, offset: 0xD2D92, size: 0x8, addend: 0x0, symName: __ZN5Catch8TestSpecaSEOS0_, symObjAddr: 0x61C8, symBinAddr: 0x1000092B8, symSize: 0x48 }
  - { offsetInCU: 0xD2DC4, offset: 0xD2DC4, size: 0x8, addend: 0x0, symName: __ZN5Catch8TestSpecD1Ev, symObjAddr: 0x6210, symBinAddr: 0x100009300, symSize: 0x2C }
  - { offsetInCU: 0xD2DF1, offset: 0xD2DF1, size: 0x8, addend: 0x0, symName: __ZN5Catch14TestSpecParserD1Ev, symObjAddr: 0x623C, symBinAddr: 0x10000932C, symSize: 0x2C }
  - { offsetInCU: 0xD2E1E, offset: 0xD2E1E, size: 0x8, addend: 0x0, symName: __ZNSt3__110unique_ptrIKN5Catch7IStreamENS_14default_deleteIS3_EEED1B7v160006Ev, symObjAddr: 0x6268, symBinAddr: 0x100009358, symSize: 0x2C }
  - { offsetInCU: 0xD2E48, offset: 0xD2E48, size: 0x8, addend: 0x0, symName: __ZN5Catch10ConfigDataD1Ev, symObjAddr: 0x6294, symBinAddr: 0x100009384, symSize: 0x2C }
  - { offsetInCU: 0xD2E75, offset: 0xD2E75, size: 0x8, addend: 0x0, symName: __ZN5Catch7IConfigD2Ev, symObjAddr: 0x62C0, symBinAddr: 0x1000093B0, symSize: 0x2C }
  - { offsetInCU: 0xD2EA1, offset: 0xD2EA1, size: 0x8, addend: 0x0, symName: __ZN5Catch6ConfigC1ERKNS_10ConfigDataE, symObjAddr: 0x62EC, symBinAddr: 0x1000093DC, symSize: 0x34 }
  - { offsetInCU: 0xD2EDC, offset: 0xD2EDC, size: 0x8, addend: 0x0, symName: __ZNK5Catch6Config11getFilenameEv, symObjAddr: 0x6320, symBinAddr: 0x100009410, symSize: 0x18 }
  - { offsetInCU: 0xD2F04, offset: 0xD2F04, size: 0x8, addend: 0x0, symName: __ZNK5Catch6Config9listTestsEv, symObjAddr: 0x6338, symBinAddr: 0x100009428, symSize: 0x1C }
  - { offsetInCU: 0xD2F2C, offset: 0xD2F2C, size: 0x8, addend: 0x0, symName: __ZNK5Catch6Config17listTestNamesOnlyEv, symObjAddr: 0x6354, symBinAddr: 0x100009444, symSize: 0x1C }
  - { offsetInCU: 0xD2F54, offset: 0xD2F54, size: 0x8, addend: 0x0, symName: __ZNK5Catch6Config8listTagsEv, symObjAddr: 0x6370, symBinAddr: 0x100009460, symSize: 0x1C }
  - { offsetInCU: 0xD2F7C, offset: 0xD2F7C, size: 0x8, addend: 0x0, symName: __ZNK5Catch6Config13listReportersEv, symObjAddr: 0x638C, symBinAddr: 0x10000947C, symSize: 0x1C }
  - { offsetInCU: 0xD2FA4, offset: 0xD2FA4, size: 0x8, addend: 0x0, symName: __ZNK5Catch6Config14getProcessNameEv, symObjAddr: 0x63A8, symBinAddr: 0x100009498, symSize: 0x3C }
  - { offsetInCU: 0xD2FCC, offset: 0xD2FCC, size: 0x8, addend: 0x0, symName: __ZNK5Catch6Config15getReporterNameEv, symObjAddr: 0x63E4, symBinAddr: 0x1000094D4, symSize: 0x18 }
  - { offsetInCU: 0xD2FF4, offset: 0xD2FF4, size: 0x8, addend: 0x0, symName: __ZNK5Catch6Config14getTestsOrTagsEv, symObjAddr: 0x63FC, symBinAddr: 0x1000094EC, symSize: 0x18 }
  - { offsetInCU: 0xD301C, offset: 0xD301C, size: 0x8, addend: 0x0, symName: __ZNK5Catch6Config16getSectionsToRunEv, symObjAddr: 0x6414, symBinAddr: 0x100009504, symSize: 0x18 }
  - { offsetInCU: 0xD3044, offset: 0xD3044, size: 0x8, addend: 0x0, symName: __ZNK5Catch6Config8testSpecEv, symObjAddr: 0x642C, symBinAddr: 0x10000951C, symSize: 0x18 }
  - { offsetInCU: 0xD306C, offset: 0xD306C, size: 0x8, addend: 0x0, symName: __ZNK5Catch6Config14hasTestFiltersEv, symObjAddr: 0x6444, symBinAddr: 0x100009534, symSize: 0x1C }
  - { offsetInCU: 0xD3094, offset: 0xD3094, size: 0x8, addend: 0x0, symName: __ZNK5Catch6Config8showHelpEv, symObjAddr: 0x6460, symBinAddr: 0x100009550, symSize: 0x1C }
  - { offsetInCU: 0xD30BC, offset: 0xD30BC, size: 0x8, addend: 0x0, symName: __ZNK5Catch6Config11allowThrowsEv, symObjAddr: 0x647C, symBinAddr: 0x10000956C, symSize: 0x20 }
  - { offsetInCU: 0xD30E4, offset: 0xD30E4, size: 0x8, addend: 0x0, symName: __ZNK5Catch6Config6streamEv, symObjAddr: 0x649C, symBinAddr: 0x10000958C, symSize: 0x34 }
  - { offsetInCU: 0xD310C, offset: 0xD310C, size: 0x8, addend: 0x0, symName: __ZNKSt3__110unique_ptrIKN5Catch7IStreamENS_14default_deleteIS3_EEEptB7v160006Ev, symObjAddr: 0x64D0, symBinAddr: 0x1000095C0, symSize: 0x28 }
  - { offsetInCU: 0xD3132, offset: 0xD3132, size: 0x8, addend: 0x0, symName: __ZNK5Catch6Config4nameEv, symObjAddr: 0x64F8, symBinAddr: 0x1000095E8, symSize: 0x68 }
  - { offsetInCU: 0xD315A, offset: 0xD315A, size: 0x8, addend: 0x0, symName: __ZNK5Catch6Config24includeSuccessfulResultsEv, symObjAddr: 0x6560, symBinAddr: 0x100009650, symSize: 0x1C }
  - { offsetInCU: 0xD3182, offset: 0xD3182, size: 0x8, addend: 0x0, symName: __ZNK5Catch6Config26warnAboutMissingAssertionsEv, symObjAddr: 0x657C, symBinAddr: 0x10000966C, symSize: 0x24 }
  - { offsetInCU: 0xD31AA, offset: 0xD31AA, size: 0x8, addend: 0x0, symName: __ZNK5Catch6Config16warnAboutNoTestsEv, symObjAddr: 0x65A0, symBinAddr: 0x100009690, symSize: 0x24 }
  - { offsetInCU: 0xD31D2, offset: 0xD31D2, size: 0x8, addend: 0x0, symName: __ZNK5Catch6Config13showDurationsEv, symObjAddr: 0x65C4, symBinAddr: 0x1000096B4, symSize: 0x18 }
  - { offsetInCU: 0xD31FA, offset: 0xD31FA, size: 0x8, addend: 0x0, symName: __ZNK5Catch6Config11minDurationEv, symObjAddr: 0x65DC, symBinAddr: 0x1000096CC, symSize: 0x18 }
  - { offsetInCU: 0xD3222, offset: 0xD3222, size: 0x8, addend: 0x0, symName: __ZNK5Catch6Config8runOrderEv, symObjAddr: 0x65F4, symBinAddr: 0x1000096E4, symSize: 0x18 }
  - { offsetInCU: 0xD324A, offset: 0xD324A, size: 0x8, addend: 0x0, symName: __ZNK5Catch6Config7rngSeedEv, symObjAddr: 0x660C, symBinAddr: 0x1000096FC, symSize: 0x18 }
  - { offsetInCU: 0xD3272, offset: 0xD3272, size: 0x8, addend: 0x0, symName: __ZNK5Catch6Config9useColourEv, symObjAddr: 0x6624, symBinAddr: 0x100009714, symSize: 0x18 }
  - { offsetInCU: 0xD329A, offset: 0xD329A, size: 0x8, addend: 0x0, symName: __ZNK5Catch6Config16shouldDebugBreakEv, symObjAddr: 0x663C, symBinAddr: 0x10000972C, symSize: 0x1C }
  - { offsetInCU: 0xD32C2, offset: 0xD32C2, size: 0x8, addend: 0x0, symName: __ZNK5Catch6Config10abortAfterEv, symObjAddr: 0x6658, symBinAddr: 0x100009748, symSize: 0x18 }
  - { offsetInCU: 0xD32EA, offset: 0xD32EA, size: 0x8, addend: 0x0, symName: __ZNK5Catch6Config14showInvisiblesEv, symObjAddr: 0x6670, symBinAddr: 0x100009760, symSize: 0x1C }
  - { offsetInCU: 0xD3312, offset: 0xD3312, size: 0x8, addend: 0x0, symName: __ZNK5Catch6Config9verbosityEv, symObjAddr: 0x668C, symBinAddr: 0x10000977C, symSize: 0x18 }
  - { offsetInCU: 0xD333A, offset: 0xD333A, size: 0x8, addend: 0x0, symName: __ZNK5Catch6Config19benchmarkNoAnalysisEv, symObjAddr: 0x66A4, symBinAddr: 0x100009794, symSize: 0x1C }
  - { offsetInCU: 0xD3362, offset: 0xD3362, size: 0x8, addend: 0x0, symName: __ZNK5Catch6Config16benchmarkSamplesEv, symObjAddr: 0x66C0, symBinAddr: 0x1000097B0, symSize: 0x18 }
  - { offsetInCU: 0xD338A, offset: 0xD338A, size: 0x8, addend: 0x0, symName: __ZNK5Catch6Config27benchmarkConfidenceIntervalEv, symObjAddr: 0x66D8, symBinAddr: 0x1000097C8, symSize: 0x18 }
  - { offsetInCU: 0xD33B2, offset: 0xD33B2, size: 0x8, addend: 0x0, symName: __ZNK5Catch6Config18benchmarkResamplesEv, symObjAddr: 0x66F0, symBinAddr: 0x1000097E0, symSize: 0x18 }
  - { offsetInCU: 0xD33DA, offset: 0xD33DA, size: 0x8, addend: 0x0, symName: __ZNK5Catch6Config19benchmarkWarmupTimeEv, symObjAddr: 0x6708, symBinAddr: 0x1000097F8, symSize: 0x34 }
  - { offsetInCU: 0xD3411, offset: 0xD3411, size: 0x8, addend: 0x0, symName: __ZNSt3__16chrono8durationIxNS_5ratioILl1ELl1000EEEEC1B7v160006IxEERKT_PNS_9enable_ifIXaasr14is_convertibleIS8_xEE5valueooL_ZNS_17integral_constantIbLb0EE5valueEEntsr23treat_as_floating_pointIS6_EE5valueEvE4typeE, symObjAddr: 0x673C, symBinAddr: 0x10000982C, symSize: 0x3C }
  - { offsetInCU: 0xD345E, offset: 0xD345E, size: 0x8, addend: 0x0, symName: __ZN5Catch9StringRefC1ERKNSt3__112basic_stringIcNS1_11char_traitsIcEENS1_9allocatorIcEEEE, symObjAddr: 0x696C, symBinAddr: 0x100009A5C, symSize: 0x34 }
  - { offsetInCU: 0xD3497, offset: 0xD3497, size: 0x8, addend: 0x0, symName: __ZN5Catch6ColourC2ENS0_4CodeE, symObjAddr: 0x69A0, symBinAddr: 0x100009A90, symSize: 0x38 }
  - { offsetInCU: 0xD34D2, offset: 0xD34D2, size: 0x8, addend: 0x0, symName: __ZN5Catch6ColourC1ENS0_4CodeE, symObjAddr: 0x6AB0, symBinAddr: 0x100009BA0, symSize: 0x34 }
  - { offsetInCU: 0xD350D, offset: 0xD350D, size: 0x8, addend: 0x0, symName: __ZN5Catch6ColourC2EOS0_, symObjAddr: 0x6AE4, symBinAddr: 0x100009BD4, symSize: 0x38 }
  - { offsetInCU: 0xD3548, offset: 0xD3548, size: 0x8, addend: 0x0, symName: __ZN5Catch6ColourC1EOS0_, symObjAddr: 0x6B1C, symBinAddr: 0x100009C0C, symSize: 0x34 }
  - { offsetInCU: 0xD3583, offset: 0xD3583, size: 0x8, addend: 0x0, symName: __ZN5Catch6ColouraSEOS0_, symObjAddr: 0x6B50, symBinAddr: 0x100009C40, symSize: 0x34 }
  - { offsetInCU: 0xD35BA, offset: 0xD35BA, size: 0x8, addend: 0x0, symName: __ZN5Catch6ColourD2Ev, symObjAddr: 0x6B84, symBinAddr: 0x100009C74, symSize: 0x4C }
  - { offsetInCU: 0xD35E6, offset: 0xD35E6, size: 0x8, addend: 0x0, symName: __ZN5Catch6ColourD1Ev, symObjAddr: 0x6BD0, symBinAddr: 0x100009CC0, symSize: 0x2C }
  - { offsetInCU: 0xD3612, offset: 0xD3612, size: 0x8, addend: 0x0, symName: __ZN5Catch15IMutableContext13createContextEv, symObjAddr: 0x6D8C, symBinAddr: 0x100009E7C, symSize: 0x70 }
  - { offsetInCU: 0xD3637, offset: 0xD3637, size: 0x8, addend: 0x0, symName: __ZN5Catch7ContextC1Ev, symObjAddr: 0x6DFC, symBinAddr: 0x100009EEC, symSize: 0x2C }
  - { offsetInCU: 0xD3664, offset: 0xD3664, size: 0x8, addend: 0x0, symName: __ZN5Catch8IContextD2Ev, symObjAddr: 0x6E78, symBinAddr: 0x100009F68, symSize: 0x14 }
  - { offsetInCU: 0xD3690, offset: 0xD3690, size: 0x8, addend: 0x0, symName: __ZN5Catch8IContextD1Ev, symObjAddr: 0x6E8C, symBinAddr: 0x100009F7C, symSize: 0x14 }
  - { offsetInCU: 0xD36BC, offset: 0xD36BC, size: 0x8, addend: 0x0, symName: __ZN5Catch8IContextD0Ev, symObjAddr: 0x6EA0, symBinAddr: 0x100009F90, symSize: 0xC }
  - { offsetInCU: 0xD36E8, offset: 0xD36E8, size: 0x8, addend: 0x0, symName: __ZN5Catch15IMutableContextD2Ev, symObjAddr: 0x6EAC, symBinAddr: 0x100009F9C, symSize: 0x2C }
  - { offsetInCU: 0xD3714, offset: 0xD3714, size: 0x8, addend: 0x0, symName: __ZN5Catch15IMutableContextD1Ev, symObjAddr: 0x6ED8, symBinAddr: 0x100009FC8, symSize: 0x14 }
  - { offsetInCU: 0xD3740, offset: 0xD3740, size: 0x8, addend: 0x0, symName: __ZN5Catch15IMutableContextD0Ev, symObjAddr: 0x6EEC, symBinAddr: 0x100009FDC, symSize: 0xC }
  - { offsetInCU: 0xD376C, offset: 0xD376C, size: 0x8, addend: 0x0, symName: __ZN5Catch7ContextD2Ev, symObjAddr: 0x6EF8, symBinAddr: 0x100009FE8, symSize: 0x5C }
  - { offsetInCU: 0xD3798, offset: 0xD3798, size: 0x8, addend: 0x0, symName: __ZNSt3__110shared_ptrIKN5Catch7IConfigEED1B7v160006Ev, symObjAddr: 0x6F54, symBinAddr: 0x10000A044, symSize: 0x2C }
  - { offsetInCU: 0xD37C2, offset: 0xD37C2, size: 0x8, addend: 0x0, symName: __ZN5Catch7ContextD1Ev, symObjAddr: 0x6F80, symBinAddr: 0x10000A070, symSize: 0x2C }
  - { offsetInCU: 0xD37EE, offset: 0xD37EE, size: 0x8, addend: 0x0, symName: __ZThn8_N5Catch7ContextD1Ev, symObjAddr: 0x6FAC, symBinAddr: 0x10000A09C, symSize: 0x1C }
  - { offsetInCU: 0xD3805, offset: 0xD3805, size: 0x8, addend: 0x0, symName: __ZN5Catch7ContextD0Ev, symObjAddr: 0x6FC8, symBinAddr: 0x10000A0B8, symSize: 0x30 }
  - { offsetInCU: 0xD3831, offset: 0xD3831, size: 0x8, addend: 0x0, symName: __ZThn8_N5Catch7ContextD0Ev, symObjAddr: 0x6FF8, symBinAddr: 0x10000A0E8, symSize: 0x18 }
  - { offsetInCU: 0xD3848, offset: 0xD3848, size: 0x8, addend: 0x0, symName: __ZN5Catch11SimplePcg32C1Ev, symObjAddr: 0x70B0, symBinAddr: 0x10000A1A0, symSize: 0x34 }
  - { offsetInCU: 0xD3872, offset: 0xD3872, size: 0x8, addend: 0x0, symName: __ZNSt3__113basic_ostreamIcNS_11char_traitsIcEEElsB7v160006EPFRS3_S4_E, symObjAddr: 0x7288, symBinAddr: 0x10000A378, symSize: 0x2C }
  - { offsetInCU: 0xD38A7, offset: 0xD38A7, size: 0x8, addend: 0x0, symName: __ZN5Catch20ITransientExpressionD2Ev, symObjAddr: 0x730C, symBinAddr: 0x10000A3FC, symSize: 0x14 }
  - { offsetInCU: 0xD38D3, offset: 0xD38D3, size: 0x8, addend: 0x0, symName: __ZN5Catch20ITransientExpressionD1Ev, symObjAddr: 0x7320, symBinAddr: 0x10000A410, symSize: 0x14 }
  - { offsetInCU: 0xD38FF, offset: 0xD38FF, size: 0x8, addend: 0x0, symName: __ZN5Catch20ITransientExpressionD0Ev, symObjAddr: 0x7334, symBinAddr: 0x10000A424, symSize: 0xC }
  - { offsetInCU: 0xD392B, offset: 0xD392B, size: 0x8, addend: 0x0, symName: __ZNKSt3__112basic_stringIcNS_11char_traitsIcEENS_9allocatorIcEEE4sizeB7v160006Ev, symObjAddr: 0x744C, symBinAddr: 0x10000A53C, symSize: 0x54 }
  - { offsetInCU: 0xD3951, offset: 0xD3951, size: 0x8, addend: 0x0, symName: __ZNSt12domain_errorC1B7v160006ERKNSt3__112basic_stringIcNS0_11char_traitsIcEENS0_9allocatorIcEEEE, symObjAddr: 0x75B4, symBinAddr: 0x10000A6A4, symSize: 0x34 }
  - { offsetInCU: 0xD398A, offset: 0xD398A, size: 0x8, addend: 0x0, symName: __ZN5Catch26IMutableEnumValuesRegistryD2Ev, symObjAddr: 0x7674, symBinAddr: 0x10000A764, symSize: 0x14 }
  - { offsetInCU: 0xD39B6, offset: 0xD39B6, size: 0x8, addend: 0x0, symName: __ZN5Catch26IMutableEnumValuesRegistryD1Ev, symObjAddr: 0x7688, symBinAddr: 0x10000A778, symSize: 0x14 }
  - { offsetInCU: 0xD39E2, offset: 0xD39E2, size: 0x8, addend: 0x0, symName: __ZN5Catch26IMutableEnumValuesRegistryD0Ev, symObjAddr: 0x769C, symBinAddr: 0x10000A78C, symSize: 0xC }
  - { offsetInCU: 0xD3A0E, offset: 0xD3A0E, size: 0x8, addend: 0x0, symName: __ZNSt3__16vectorIN5Catch9StringRefENS_9allocatorIS2_EEEC1B7v160006Ev, symObjAddr: 0x7A14, symBinAddr: 0x10000AB04, symSize: 0x2C }
  - { offsetInCU: 0xD3A38, offset: 0xD3A38, size: 0x8, addend: 0x0, symName: __ZNSt3__16vectorIN5Catch9StringRefENS_9allocatorIS2_EEE7reserveEm, symObjAddr: 0x7A40, symBinAddr: 0x10000AB30, symSize: 0xE8 }
  - { offsetInCU: 0xD3A94, offset: 0xD3A94, size: 0x8, addend: 0x0, symName: __ZNKSt3__16vectorIN5Catch9StringRefENS_9allocatorIS2_EEE4sizeB7v160006Ev, symObjAddr: 0x7B28, symBinAddr: 0x10000AC18, symSize: 0x28 }
  - { offsetInCU: 0xD3ABA, offset: 0xD3ABA, size: 0x8, addend: 0x0, symName: __ZNSt3__16vectorIN5Catch9StringRefENS_9allocatorIS2_EEE5beginB7v160006Ev, symObjAddr: 0x7B50, symBinAddr: 0x10000AC40, symSize: 0x30 }
  - { offsetInCU: 0xD3AE2, offset: 0xD3AE2, size: 0x8, addend: 0x0, symName: __ZNSt3__16vectorIN5Catch9StringRefENS_9allocatorIS2_EEE3endB7v160006Ev, symObjAddr: 0x7B80, symBinAddr: 0x10000AC70, symSize: 0x30 }
  - { offsetInCU: 0xD3B0A, offset: 0xD3B0A, size: 0x8, addend: 0x0, symName: __ZNKSt3__111__wrap_iterIPN5Catch9StringRefEEdeB7v160006Ev, symObjAddr: 0x7BE4, symBinAddr: 0x10000ACD4, symSize: 0x18 }
  - { offsetInCU: 0xD3B30, offset: 0xD3B30, size: 0x8, addend: 0x0, symName: __ZNSt3__16vectorIN5Catch9StringRefENS_9allocatorIS2_EEE9push_backB7v160006EOS2_, symObjAddr: 0x7BFC, symBinAddr: 0x10000ACEC, symSize: 0x6C }
  - { offsetInCU: 0xD3B67, offset: 0xD3B67, size: 0x8, addend: 0x0, symName: __ZNSt3__111__wrap_iterIPN5Catch9StringRefEEppB7v160006Ev, symObjAddr: 0x7E64, symBinAddr: 0x10000AF54, symSize: 0x20 }
  - { offsetInCU: 0xD3B8D, offset: 0xD3B8D, size: 0x8, addend: 0x0, symName: __ZNSt3__16vectorIN5Catch9StringRefENS_9allocatorIS2_EEED1B7v160006Ev, symObjAddr: 0x7E84, symBinAddr: 0x10000AF74, symSize: 0x2C }
  - { offsetInCU: 0xD3BB7, offset: 0xD3BB7, size: 0x8, addend: 0x0, symName: __ZN5Catch6Detail8EnumInfoD2Ev, symObjAddr: 0x7EB0, symBinAddr: 0x10000AFA0, symSize: 0x30 }
  - { offsetInCU: 0xD3BE3, offset: 0xD3BE3, size: 0x8, addend: 0x0, symName: __ZNSt3__16vectorINS_4pairIiN5Catch9StringRefEEENS_9allocatorIS4_EEED1B7v160006Ev, symObjAddr: 0x7EE0, symBinAddr: 0x10000AFD0, symSize: 0x2C }
  - { offsetInCU: 0xD3C0D, offset: 0xD3C0D, size: 0x8, addend: 0x0, symName: __ZN5Catch6Detail8EnumInfoD1Ev, symObjAddr: 0x7F0C, symBinAddr: 0x10000AFFC, symSize: 0x2C }
  - { offsetInCU: 0xD3C39, offset: 0xD3C39, size: 0x8, addend: 0x0, symName: __ZNK5Catch6Detail8EnumInfo6lookupEi, symObjAddr: 0x7F38, symBinAddr: 0x10000B028, symSize: 0xC8 }
  - { offsetInCU: 0xD3CBF, offset: 0xD3CBF, size: 0x8, addend: 0x0, symName: __ZNKSt3__16vectorINS_4pairIiN5Catch9StringRefEEENS_9allocatorIS4_EEE5beginB7v160006Ev, symObjAddr: 0x8000, symBinAddr: 0x10000B0F0, symSize: 0x30 }
  - { offsetInCU: 0xD3CE7, offset: 0xD3CE7, size: 0x8, addend: 0x0, symName: __ZNKSt3__16vectorINS_4pairIiN5Catch9StringRefEEENS_9allocatorIS4_EEE3endB7v160006Ev, symObjAddr: 0x8030, symBinAddr: 0x10000B120, symSize: 0x30 }
  - { offsetInCU: 0xD3D0F, offset: 0xD3D0F, size: 0x8, addend: 0x0, symName: __ZNKSt3__111__wrap_iterIPKNS_4pairIiN5Catch9StringRefEEEEdeB7v160006Ev, symObjAddr: 0x8094, symBinAddr: 0x10000B184, symSize: 0x18 }
  - { offsetInCU: 0xD3D35, offset: 0xD3D35, size: 0x8, addend: 0x0, symName: __ZNSt3__111__wrap_iterIPKNS_4pairIiN5Catch9StringRefEEEEppB7v160006Ev, symObjAddr: 0x80AC, symBinAddr: 0x10000B19C, symSize: 0x20 }
  - { offsetInCU: 0xD3D5B, offset: 0xD3D5B, size: 0x8, addend: 0x0, symName: __ZN5Catch6Detail8EnumInfoC1Ev, symObjAddr: 0x8330, symBinAddr: 0x10000B420, symSize: 0x2C }
  - { offsetInCU: 0xD3D88, offset: 0xD3D88, size: 0x8, addend: 0x0, symName: __ZNSt3__110unique_ptrIN5Catch6Detail8EnumInfoENS_14default_deleteIS3_EEEC1B7v160006ILb1EvEEPS3_, symObjAddr: 0x835C, symBinAddr: 0x10000B44C, symSize: 0x34 }
  - { offsetInCU: 0xD3DCD, offset: 0xD3DCD, size: 0x8, addend: 0x0, symName: __ZNKSt3__110unique_ptrIN5Catch6Detail8EnumInfoENS_14default_deleteIS3_EEEptB7v160006Ev, symObjAddr: 0x8390, symBinAddr: 0x10000B480, symSize: 0x28 }
  - { offsetInCU: 0xD3DF3, offset: 0xD3DF3, size: 0x8, addend: 0x0, symName: __ZNSt3__16vectorINS_4pairIiN5Catch9StringRefEEENS_9allocatorIS4_EEE7reserveEm, symObjAddr: 0x83B8, symBinAddr: 0x10000B4A8, symSize: 0xE8 }
  - { offsetInCU: 0xD3E4F, offset: 0xD3E4F, size: 0x8, addend: 0x0, symName: __ZNKSt3__16vectorIiNS_9allocatorIiEEE4sizeB7v160006Ev, symObjAddr: 0x84A0, symBinAddr: 0x10000B590, symSize: 0x28 }
  - { offsetInCU: 0xD3E75, offset: 0xD3E75, size: 0x8, addend: 0x0, symName: __ZNKSt3__16vectorIiNS_9allocatorIiEEE5beginB7v160006Ev, symObjAddr: 0x84C8, symBinAddr: 0x10000B5B8, symSize: 0x30 }
  - { offsetInCU: 0xD3E9D, offset: 0xD3E9D, size: 0x8, addend: 0x0, symName: __ZNKSt3__16vectorIiNS_9allocatorIiEEE3endB7v160006Ev, symObjAddr: 0x84F8, symBinAddr: 0x10000B5E8, symSize: 0x30 }
  - { offsetInCU: 0xD3EC5, offset: 0xD3EC5, size: 0x8, addend: 0x0, symName: __ZNKSt3__111__wrap_iterIPKiEdeB7v160006Ev, symObjAddr: 0x855C, symBinAddr: 0x10000B64C, symSize: 0x18 }
  - { offsetInCU: 0xD3EEB, offset: 0xD3EEB, size: 0x8, addend: 0x0, symName: __ZNSt3__16vectorINS_4pairIiN5Catch9StringRefEEENS_9allocatorIS4_EEE12emplace_backIJRiRKS3_EEEvDpOT_, symObjAddr: 0x8574, symBinAddr: 0x10000B664, symSize: 0x78 }
  - { offsetInCU: 0xD3F44, offset: 0xD3F44, size: 0x8, addend: 0x0, symName: __ZNKSt3__16vectorIN5Catch9StringRefENS_9allocatorIS2_EEEixB7v160006Em, symObjAddr: 0x85EC, symBinAddr: 0x10000B6DC, symSize: 0x24 }
  - { offsetInCU: 0xD3F7B, offset: 0xD3F7B, size: 0x8, addend: 0x0, symName: __ZNSt3__111__wrap_iterIPKiEppB7v160006Ev, symObjAddr: 0x8610, symBinAddr: 0x10000B700, symSize: 0x20 }
  - { offsetInCU: 0xD3FA1, offset: 0xD3FA1, size: 0x8, addend: 0x0, symName: __ZNSt3__110unique_ptrIN5Catch6Detail8EnumInfoENS_14default_deleteIS3_EEED1B7v160006Ev, symObjAddr: 0x8630, symBinAddr: 0x10000B720, symSize: 0x2C }
  - { offsetInCU: 0xD3FCB, offset: 0xD3FCB, size: 0x8, addend: 0x0, symName: __ZN5Catch6Detail18EnumValuesRegistry12registerEnumENS_9StringRefES2_RKNSt3__16vectorIiNS3_9allocatorIiEEEE, symObjAddr: 0x865C, symBinAddr: 0x10000B74C, symSize: 0xB4 }
  - { offsetInCU: 0xD4020, offset: 0xD4020, size: 0x8, addend: 0x0, symName: __ZNSt3__16vectorINS_10unique_ptrIN5Catch6Detail8EnumInfoENS_14default_deleteIS4_EEEENS_9allocatorIS7_EEE9push_backB7v160006EOS7_, symObjAddr: 0x8710, symBinAddr: 0x10000B800, symSize: 0x6C }
  - { offsetInCU: 0xD4057, offset: 0xD4057, size: 0x8, addend: 0x0, symName: __ZNSt3__16vectorINS_10unique_ptrIN5Catch6Detail8EnumInfoENS_14default_deleteIS4_EEEENS_9allocatorIS7_EEE4backB7v160006Ev, symObjAddr: 0x877C, symBinAddr: 0x10000B86C, symSize: 0x1C }
  - { offsetInCU: 0xD407D, offset: 0xD407D, size: 0x8, addend: 0x0, symName: __ZNKSt3__110unique_ptrIN5Catch6Detail8EnumInfoENS_14default_deleteIS3_EEEdeB7v160006Ev, symObjAddr: 0x8798, symBinAddr: 0x10000B888, symSize: 0x28 }
  - { offsetInCU: 0xD40A8, offset: 0xD40A8, size: 0x8, addend: 0x0, symName: __ZN5Catch10ErrnoGuardC2Ev, symObjAddr: 0x87C0, symBinAddr: 0x10000B8B0, symSize: 0x38 }
  - { offsetInCU: 0xD40D4, offset: 0xD40D4, size: 0x8, addend: 0x0, symName: __ZN5Catch10ErrnoGuardC1Ev, symObjAddr: 0x87F8, symBinAddr: 0x10000B8E8, symSize: 0x2C }
  - { offsetInCU: 0xD4100, offset: 0xD4100, size: 0x8, addend: 0x0, symName: __ZN5Catch10ErrnoGuardD2Ev, symObjAddr: 0x8824, symBinAddr: 0x10000B914, symSize: 0x4C }
  - { offsetInCU: 0xD412C, offset: 0xD412C, size: 0x8, addend: 0x0, symName: __ZN5Catch10ErrnoGuardD1Ev, symObjAddr: 0x8870, symBinAddr: 0x10000B960, symSize: 0x2C }
  - { offsetInCU: 0xD4158, offset: 0xD4158, size: 0x8, addend: 0x0, symName: __ZN5Catch27ExceptionTranslatorRegistryD2Ev, symObjAddr: 0x889C, symBinAddr: 0x10000B98C, symSize: 0x48 }
  - { offsetInCU: 0xD4184, offset: 0xD4184, size: 0x8, addend: 0x0, symName: __ZNSt3__16vectorINS_10unique_ptrIKN5Catch20IExceptionTranslatorENS_14default_deleteIS4_EEEENS_9allocatorIS7_EEED1B7v160006Ev, symObjAddr: 0x88E4, symBinAddr: 0x10000B9D4, symSize: 0x2C }
  - { offsetInCU: 0xD41AE, offset: 0xD41AE, size: 0x8, addend: 0x0, symName: __ZN5Catch28IExceptionTranslatorRegistryD2Ev, symObjAddr: 0x8910, symBinAddr: 0x10000BA00, symSize: 0x14 }
  - { offsetInCU: 0xD41DA, offset: 0xD41DA, size: 0x8, addend: 0x0, symName: __ZN5Catch27ExceptionTranslatorRegistryD1Ev, symObjAddr: 0x8924, symBinAddr: 0x10000BA14, symSize: 0x2C }
  - { offsetInCU: 0xD4206, offset: 0xD4206, size: 0x8, addend: 0x0, symName: __ZN5Catch27ExceptionTranslatorRegistryD0Ev, symObjAddr: 0x8950, symBinAddr: 0x10000BA40, symSize: 0x30 }
  - { offsetInCU: 0xD4232, offset: 0xD4232, size: 0x8, addend: 0x0, symName: __ZN5Catch27ExceptionTranslatorRegistry18registerTranslatorEPKNS_20IExceptionTranslatorE, symObjAddr: 0x8980, symBinAddr: 0x10000BA70, symSize: 0x74 }
  - { offsetInCU: 0xD4269, offset: 0xD4269, size: 0x8, addend: 0x0, symName: __ZNSt3__16vectorINS_10unique_ptrIKN5Catch20IExceptionTranslatorENS_14default_deleteIS4_EEEENS_9allocatorIS7_EEE9push_backB7v160006EOS7_, symObjAddr: 0x89F4, symBinAddr: 0x10000BAE4, symSize: 0x6C }
  - { offsetInCU: 0xD42A0, offset: 0xD42A0, size: 0x8, addend: 0x0, symName: __ZNSt3__110unique_ptrIKN5Catch20IExceptionTranslatorENS_14default_deleteIS3_EEEC1B7v160006ILb1EvEEPS3_, symObjAddr: 0x8A60, symBinAddr: 0x10000BB50, symSize: 0x34 }
  - { offsetInCU: 0xD42E5, offset: 0xD42E5, size: 0x8, addend: 0x0, symName: __ZNSt3__110unique_ptrIKN5Catch20IExceptionTranslatorENS_14default_deleteIS3_EEED1B7v160006Ev, symObjAddr: 0x8A94, symBinAddr: 0x10000BB84, symSize: 0x2C }
  - { offsetInCU: 0xD430F, offset: 0xD430F, size: 0x8, addend: 0x0, symName: __ZNK5Catch27ExceptionTranslatorRegistry24translateActiveExceptionEv, symObjAddr: 0x8AC0, symBinAddr: 0x10000BBB0, symSize: 0x260 }
  - { offsetInCU: 0xD4372, offset: 0xD4372, size: 0x8, addend: 0x0, symName: __ZNSt13exception_ptrC1B7v160006EDn, symObjAddr: 0x8D50, symBinAddr: 0x10000BE40, symSize: 0x34 }
  - { offsetInCU: 0xD43A7, offset: 0xD43A7, size: 0x8, addend: 0x0, symName: __ZNK5Catch27ExceptionTranslatorRegistry14tryTranslatorsEv, symObjAddr: 0x8D84, symBinAddr: 0x10000BE74, symSize: 0xE4 }
  - { offsetInCU: 0xD43CF, offset: 0xD43CF, size: 0x8, addend: 0x0, symName: __ZNKSt3__16vectorINS_10unique_ptrIKN5Catch20IExceptionTranslatorENS_14default_deleteIS4_EEEENS_9allocatorIS7_EEE5emptyB7v160006Ev, symObjAddr: 0x8E68, symBinAddr: 0x10000BF58, symSize: 0x28 }
  - { offsetInCU: 0xD43F5, offset: 0xD43F5, size: 0x8, addend: 0x0, symName: __ZNKSt3__16vectorINS_10unique_ptrIKN5Catch20IExceptionTranslatorENS_14default_deleteIS4_EEEENS_9allocatorIS7_EEEixB7v160006Em, symObjAddr: 0x8E90, symBinAddr: 0x10000BF80, symSize: 0x24 }
  - { offsetInCU: 0xD442C, offset: 0xD442C, size: 0x8, addend: 0x0, symName: __ZNKSt3__110unique_ptrIKN5Catch20IExceptionTranslatorENS_14default_deleteIS3_EEEptB7v160006Ev, symObjAddr: 0x8EB4, symBinAddr: 0x10000BFA4, symSize: 0x28 }
  - { offsetInCU: 0xD4452, offset: 0xD4452, size: 0x8, addend: 0x0, symName: __ZNKSt3__16vectorINS_10unique_ptrIKN5Catch20IExceptionTranslatorENS_14default_deleteIS4_EEEENS_9allocatorIS7_EEE5beginB7v160006Ev, symObjAddr: 0x8EDC, symBinAddr: 0x10000BFCC, symSize: 0x30 }
  - { offsetInCU: 0xD447A, offset: 0xD447A, size: 0x8, addend: 0x0, symName: __ZNKSt3__111__wrap_iterIPKNS_10unique_ptrIKN5Catch20IExceptionTranslatorENS_14default_deleteIS4_EEEEEplB7v160006El, symObjAddr: 0x8F0C, symBinAddr: 0x10000BFFC, symSize: 0x3C }
  - { offsetInCU: 0xD44BE, offset: 0xD44BE, size: 0x8, addend: 0x0, symName: __ZNKSt3__16vectorINS_10unique_ptrIKN5Catch20IExceptionTranslatorENS_14default_deleteIS4_EEEENS_9allocatorIS7_EEE3endB7v160006Ev, symObjAddr: 0x8F48, symBinAddr: 0x10000C038, symSize: 0x30 }
  - { offsetInCU: 0xD44EB, offset: 0xD44EB, size: 0x8, addend: 0x0, symName: __ZN5Catch21FatalConditionHandlerC2Ev, symObjAddr: 0x8F78, symBinAddr: 0x10000C068, symSize: 0xF4 }
  - { offsetInCU: 0xD4517, offset: 0xD4517, size: 0x8, addend: 0x0, symName: __ZN5Catch21FatalConditionHandlerC1Ev, symObjAddr: 0x9098, symBinAddr: 0x10000C188, symSize: 0x2C }
  - { offsetInCU: 0xD4543, offset: 0xD4543, size: 0x8, addend: 0x0, symName: __ZN5Catch21FatalConditionHandlerD2Ev, symObjAddr: 0x90C4, symBinAddr: 0x10000C1B4, symSize: 0x58 }
  - { offsetInCU: 0xD456F, offset: 0xD456F, size: 0x8, addend: 0x0, symName: __ZN5Catch21FatalConditionHandlerD1Ev, symObjAddr: 0x911C, symBinAddr: 0x10000C20C, symSize: 0x2C }
  - { offsetInCU: 0xD459B, offset: 0xD459B, size: 0x8, addend: 0x0, symName: __ZN5Catch21FatalConditionHandler15engage_platformEv, symObjAddr: 0x9148, symBinAddr: 0x10000C238, symSize: 0xC0 }
  - { offsetInCU: 0xD45FE, offset: 0xD45FE, size: 0x8, addend: 0x0, symName: __ZN5Catch21FatalConditionHandler18disengage_platformEv, symObjAddr: 0x92C4, symBinAddr: 0x10000C3B4, symSize: 0x20 }
  - { offsetInCU: 0xD4626, offset: 0xD4626, size: 0x8, addend: 0x0, symName: __ZN5Catch17IGeneratorTrackerD2Ev, symObjAddr: 0x9368, symBinAddr: 0x10000C458, symSize: 0x14 }
  - { offsetInCU: 0xD4652, offset: 0xD4652, size: 0x8, addend: 0x0, symName: __ZN5Catch17IGeneratorTrackerD1Ev, symObjAddr: 0x937C, symBinAddr: 0x10000C46C, symSize: 0x14 }
  - { offsetInCU: 0xD467E, offset: 0xD467E, size: 0x8, addend: 0x0, symName: __ZN5Catch17IGeneratorTrackerD0Ev, symObjAddr: 0x9390, symBinAddr: 0x10000C480, symSize: 0xC }
  - { offsetInCU: 0xD46B9, offset: 0xD46B9, size: 0x8, addend: 0x0, symName: __ZNK5Catch18GeneratorException4whatEv, symObjAddr: 0x939C, symBinAddr: 0x10000C48C, symSize: 0x18 }
  - { offsetInCU: 0xD46E1, offset: 0xD46E1, size: 0x8, addend: 0x0, symName: __ZN5Catch10Generators20GeneratorUntypedBaseD2Ev, symObjAddr: 0x93B4, symBinAddr: 0x10000C4A4, symSize: 0x14 }
  - { offsetInCU: 0xD470D, offset: 0xD470D, size: 0x8, addend: 0x0, symName: __ZN5Catch10Generators20GeneratorUntypedBaseD1Ev, symObjAddr: 0x93C8, symBinAddr: 0x10000C4B8, symSize: 0x14 }
  - { offsetInCU: 0xD4739, offset: 0xD4739, size: 0x8, addend: 0x0, symName: __ZN5Catch10Generators20GeneratorUntypedBaseD0Ev, symObjAddr: 0x93DC, symBinAddr: 0x10000C4CC, symSize: 0xC }
  - { offsetInCU: 0xD4765, offset: 0xD4765, size: 0x8, addend: 0x0, symName: __ZN5Catch14IResultCaptureD2Ev, symObjAddr: 0x9430, symBinAddr: 0x10000C520, symSize: 0x14 }
  - { offsetInCU: 0xD4791, offset: 0xD4791, size: 0x8, addend: 0x0, symName: __ZN5Catch14IResultCaptureD1Ev, symObjAddr: 0x9444, symBinAddr: 0x10000C534, symSize: 0x14 }
  - { offsetInCU: 0xD47BD, offset: 0xD47BD, size: 0x8, addend: 0x0, symName: __ZN5Catch14IResultCaptureD0Ev, symObjAddr: 0x9458, symBinAddr: 0x10000C548, symSize: 0xC }
  - { offsetInCU: 0xD47E9, offset: 0xD47E9, size: 0x8, addend: 0x0, symName: __ZN5Catch7IConfigD1Ev, symObjAddr: 0x9464, symBinAddr: 0x10000C554, symSize: 0x14 }
  - { offsetInCU: 0xD4815, offset: 0xD4815, size: 0x8, addend: 0x0, symName: __ZN5Catch7IConfigD0Ev, symObjAddr: 0x9478, symBinAddr: 0x10000C568, symSize: 0xC }
  - { offsetInCU: 0xD4841, offset: 0xD4841, size: 0x8, addend: 0x0, symName: __ZN5Catch20IExceptionTranslatorD2Ev, symObjAddr: 0x9484, symBinAddr: 0x10000C574, symSize: 0x14 }
  - { offsetInCU: 0xD486D, offset: 0xD486D, size: 0x8, addend: 0x0, symName: __ZN5Catch20IExceptionTranslatorD1Ev, symObjAddr: 0x9498, symBinAddr: 0x10000C588, symSize: 0x14 }
  - { offsetInCU: 0xD4899, offset: 0xD4899, size: 0x8, addend: 0x0, symName: __ZN5Catch20IExceptionTranslatorD0Ev, symObjAddr: 0x94AC, symBinAddr: 0x10000C59C, symSize: 0xC }
  - { offsetInCU: 0xD48C5, offset: 0xD48C5, size: 0x8, addend: 0x0, symName: __ZN5Catch28IExceptionTranslatorRegistryD1Ev, symObjAddr: 0x94B8, symBinAddr: 0x10000C5A8, symSize: 0x14 }
  - { offsetInCU: 0xD48F1, offset: 0xD48F1, size: 0x8, addend: 0x0, symName: __ZN5Catch28IExceptionTranslatorRegistryD0Ev, symObjAddr: 0x94CC, symBinAddr: 0x10000C5BC, symSize: 0xC }
  - { offsetInCU: 0xD491D, offset: 0xD491D, size: 0x8, addend: 0x0, symName: __ZN5Catch12IRegistryHubD2Ev, symObjAddr: 0x94D8, symBinAddr: 0x10000C5C8, symSize: 0x14 }
  - { offsetInCU: 0xD4949, offset: 0xD4949, size: 0x8, addend: 0x0, symName: __ZN5Catch12IRegistryHubD1Ev, symObjAddr: 0x94EC, symBinAddr: 0x10000C5DC, symSize: 0x14 }
  - { offsetInCU: 0xD4975, offset: 0xD4975, size: 0x8, addend: 0x0, symName: __ZN5Catch12IRegistryHubD0Ev, symObjAddr: 0x9500, symBinAddr: 0x10000C5F0, symSize: 0xC }
  - { offsetInCU: 0xD49A1, offset: 0xD49A1, size: 0x8, addend: 0x0, symName: __ZN5Catch19IMutableRegistryHubD2Ev, symObjAddr: 0x950C, symBinAddr: 0x10000C5FC, symSize: 0x14 }
  - { offsetInCU: 0xD49CD, offset: 0xD49CD, size: 0x8, addend: 0x0, symName: __ZN5Catch19IMutableRegistryHubD1Ev, symObjAddr: 0x9520, symBinAddr: 0x10000C610, symSize: 0x14 }
  - { offsetInCU: 0xD49F9, offset: 0xD49F9, size: 0x8, addend: 0x0, symName: __ZN5Catch19IMutableRegistryHubD0Ev, symObjAddr: 0x9534, symBinAddr: 0x10000C624, symSize: 0xC }
  - { offsetInCU: 0xD4A25, offset: 0xD4A25, size: 0x8, addend: 0x0, symName: __ZN5Catch14ReporterConfigC2ERKNSt3__110shared_ptrIKNS_7IConfigEEE, symObjAddr: 0x9540, symBinAddr: 0x10000C630, symSize: 0x54 }
  - { offsetInCU: 0xD4A60, offset: 0xD4A60, size: 0x8, addend: 0x0, symName: __ZNSt3__110shared_ptrIKN5Catch7IConfigEEC1B7v160006ERKS4_, symObjAddr: 0x9594, symBinAddr: 0x10000C684, symSize: 0x34 }
  - { offsetInCU: 0xD4A99, offset: 0xD4A99, size: 0x8, addend: 0x0, symName: __ZN5Catch14ReporterConfigC1ERKNSt3__110shared_ptrIKNS_7IConfigEEE, symObjAddr: 0x95C8, symBinAddr: 0x10000C6B8, symSize: 0x34 }
  - { offsetInCU: 0xD4AD4, offset: 0xD4AD4, size: 0x8, addend: 0x0, symName: __ZN5Catch14ReporterConfigC2ERKNSt3__110shared_ptrIKNS_7IConfigEEERNS1_13basic_ostreamIcNS1_11char_traitsIcEEEE, symObjAddr: 0x95FC, symBinAddr: 0x10000C6EC, symSize: 0x44 }
  - { offsetInCU: 0xD4B1E, offset: 0xD4B1E, size: 0x8, addend: 0x0, symName: __ZN5Catch14ReporterConfigC1ERKNSt3__110shared_ptrIKNS_7IConfigEEERNS1_13basic_ostreamIcNS1_11char_traitsIcEEEE, symObjAddr: 0x9640, symBinAddr: 0x10000C730, symSize: 0x3C }
  - { offsetInCU: 0xD4B68, offset: 0xD4B68, size: 0x8, addend: 0x0, symName: __ZNK5Catch14ReporterConfig6streamEv, symObjAddr: 0x967C, symBinAddr: 0x10000C76C, symSize: 0x18 }
  - { offsetInCU: 0xD4B90, offset: 0xD4B90, size: 0x8, addend: 0x0, symName: __ZNK5Catch14ReporterConfig10fullConfigEv, symObjAddr: 0x9694, symBinAddr: 0x10000C784, symSize: 0x3C }
  - { offsetInCU: 0xD4BB8, offset: 0xD4BB8, size: 0x8, addend: 0x0, symName: __ZN5Catch11TestRunInfoC2ERKNSt3__112basic_stringIcNS1_11char_traitsIcEENS1_9allocatorIcEEEE, symObjAddr: 0x96D0, symBinAddr: 0x10000C7C0, symSize: 0x34 }
  - { offsetInCU: 0xD4BF3, offset: 0xD4BF3, size: 0x8, addend: 0x0, symName: __ZN5Catch11TestRunInfoC1ERKNSt3__112basic_stringIcNS1_11char_traitsIcEENS1_9allocatorIcEEEE, symObjAddr: 0x9704, symBinAddr: 0x10000C7F4, symSize: 0x34 }
  - { offsetInCU: 0xD4C2E, offset: 0xD4C2E, size: 0x8, addend: 0x0, symName: __ZN5Catch9GroupInfoC2ERKNSt3__112basic_stringIcNS1_11char_traitsIcEENS1_9allocatorIcEEEEmm, symObjAddr: 0x9738, symBinAddr: 0x10000C828, symSize: 0x4C }
  - { offsetInCU: 0xD4C87, offset: 0xD4C87, size: 0x8, addend: 0x0, symName: __ZN5Catch9GroupInfoC1ERKNSt3__112basic_stringIcNS1_11char_traitsIcEENS1_9allocatorIcEEEEmm, symObjAddr: 0x9784, symBinAddr: 0x10000C874, symSize: 0x44 }
  - { offsetInCU: 0xD4CE0, offset: 0xD4CE0, size: 0x8, addend: 0x0, symName: __ZN5Catch14AssertionStatsC2ERKNS_15AssertionResultERKNSt3__16vectorINS_11MessageInfoENS4_9allocatorIS6_EEEERKNS_6TotalsE, symObjAddr: 0x97C8, symBinAddr: 0x10000C8B8, symSize: 0x200 }
  - { offsetInCU: 0xD4D4F, offset: 0xD4D4F, size: 0x8, addend: 0x0, symName: __ZN5Catch15AssertionResultC1ERKS0_, symObjAddr: 0x99C8, symBinAddr: 0x10000CAB8, symSize: 0x34 }
  - { offsetInCU: 0xD4D85, offset: 0xD4D85, size: 0x8, addend: 0x0, symName: __ZNSt3__16vectorIN5Catch11MessageInfoENS_9allocatorIS2_EEEC1ERKS5_, symObjAddr: 0x99FC, symBinAddr: 0x10000CAEC, symSize: 0x34 }
  - { offsetInCU: 0xD4DC0, offset: 0xD4DC0, size: 0x8, addend: 0x0, symName: __ZN5Catch14MessageBuilderC1ERKNS_9StringRefERKNS_14SourceLineInfoENS_9ResultWas6OfTypeE, symObjAddr: 0x9A30, symBinAddr: 0x10000CB20, symSize: 0x44 }
  - { offsetInCU: 0xD4E1E, offset: 0xD4E1E, size: 0x8, addend: 0x0, symName: __ZN5Catch14MessageBuilderlsINSt3__112basic_stringIcNS2_11char_traitsIcEENS2_9allocatorIcEEEEEERS0_RKT_, symObjAddr: 0x9A74, symBinAddr: 0x10000CB64, symSize: 0x34 }
  - { offsetInCU: 0xD4E5C, offset: 0xD4E5C, size: 0x8, addend: 0x0, symName: __ZNSt3__16vectorIN5Catch11MessageInfoENS_9allocatorIS2_EEE9push_backB7v160006ERKS2_, symObjAddr: 0x9AA8, symBinAddr: 0x10000CB98, symSize: 0x6C }
  - { offsetInCU: 0xD4E93, offset: 0xD4E93, size: 0x8, addend: 0x0, symName: __ZN5Catch14MessageBuilderD1Ev, symObjAddr: 0x9B14, symBinAddr: 0x10000CC04, symSize: 0x2C }
  - { offsetInCU: 0xD4EC0, offset: 0xD4EC0, size: 0x8, addend: 0x0, symName: __ZNSt3__16vectorIN5Catch11MessageInfoENS_9allocatorIS2_EEED1B7v160006Ev, symObjAddr: 0x9B40, symBinAddr: 0x10000CC30, symSize: 0x2C }
  - { offsetInCU: 0xD4EEA, offset: 0xD4EEA, size: 0x8, addend: 0x0, symName: __ZN5Catch15AssertionResultD1Ev, symObjAddr: 0x9B6C, symBinAddr: 0x10000CC5C, symSize: 0x2C }
  - { offsetInCU: 0xD4F17, offset: 0xD4F17, size: 0x8, addend: 0x0, symName: __ZN5Catch14AssertionStatsC1ERKNS_15AssertionResultERKNSt3__16vectorINS_11MessageInfoENS4_9allocatorIS6_EEEERKNS_6TotalsE, symObjAddr: 0x9B98, symBinAddr: 0x10000CC88, symSize: 0x44 }
  - { offsetInCU: 0xD4F70, offset: 0xD4F70, size: 0x8, addend: 0x0, symName: __ZN5Catch14AssertionStatsD2Ev, symObjAddr: 0x9BDC, symBinAddr: 0x10000CCCC, symSize: 0x4C }
  - { offsetInCU: 0xD4F9C, offset: 0xD4F9C, size: 0x8, addend: 0x0, symName: __ZN5Catch14AssertionStatsD1Ev, symObjAddr: 0x9C28, symBinAddr: 0x10000CD18, symSize: 0x2C }
  - { offsetInCU: 0xD4FC8, offset: 0xD4FC8, size: 0x8, addend: 0x0, symName: __ZN5Catch14AssertionStatsD0Ev, symObjAddr: 0x9C54, symBinAddr: 0x10000CD44, symSize: 0x30 }
  - { offsetInCU: 0xD4FF4, offset: 0xD4FF4, size: 0x8, addend: 0x0, symName: __ZN5Catch12SectionStatsC2ERKNS_11SectionInfoERKNS_6CountsEdb, symObjAddr: 0x9C84, symBinAddr: 0x10000CD74, symSize: 0x84 }
  - { offsetInCU: 0xD505C, offset: 0xD505C, size: 0x8, addend: 0x0, symName: __ZN5Catch11SectionInfoC1ERKS0_, symObjAddr: 0x9D08, symBinAddr: 0x10000CDF8, symSize: 0x34 }
  - { offsetInCU: 0xD5092, offset: 0xD5092, size: 0x8, addend: 0x0, symName: __ZN5Catch12SectionStatsC1ERKNS_11SectionInfoERKNS_6CountsEdb, symObjAddr: 0x9D3C, symBinAddr: 0x10000CE2C, symSize: 0x58 }
  - { offsetInCU: 0xD50FA, offset: 0xD50FA, size: 0x8, addend: 0x0, symName: __ZN5Catch12SectionStatsD2Ev, symObjAddr: 0x9D94, symBinAddr: 0x10000CE84, symSize: 0x40 }
  - { offsetInCU: 0xD5126, offset: 0xD5126, size: 0x8, addend: 0x0, symName: __ZN5Catch11SectionInfoD1Ev, symObjAddr: 0x9DD4, symBinAddr: 0x10000CEC4, symSize: 0x2C }
  - { offsetInCU: 0xD5153, offset: 0xD5153, size: 0x8, addend: 0x0, symName: __ZN5Catch12SectionStatsD1Ev, symObjAddr: 0x9E00, symBinAddr: 0x10000CEF0, symSize: 0x2C }
  - { offsetInCU: 0xD517F, offset: 0xD517F, size: 0x8, addend: 0x0, symName: __ZN5Catch12SectionStatsD0Ev, symObjAddr: 0x9E2C, symBinAddr: 0x10000CF1C, symSize: 0x30 }
  - { offsetInCU: 0xD51AB, offset: 0xD51AB, size: 0x8, addend: 0x0, symName: __ZN5Catch13TestCaseStatsC2ERKNS_12TestCaseInfoERKNS_6TotalsERKNSt3__112basic_stringIcNS7_11char_traitsIcEENS7_9allocatorIcEEEESF_b, symObjAddr: 0x9E5C, symBinAddr: 0x10000CF4C, symSize: 0xEC }
  - { offsetInCU: 0xD5222, offset: 0xD5222, size: 0x8, addend: 0x0, symName: __ZN5Catch12TestCaseInfoC1ERKS0_, symObjAddr: 0x9F48, symBinAddr: 0x10000D038, symSize: 0x34 }
  - { offsetInCU: 0xD5258, offset: 0xD5258, size: 0x8, addend: 0x0, symName: __ZN5Catch12TestCaseInfoD1Ev, symObjAddr: 0x9F7C, symBinAddr: 0x10000D06C, symSize: 0x2C }
  - { offsetInCU: 0xD5285, offset: 0xD5285, size: 0x8, addend: 0x0, symName: __ZN5Catch13TestCaseStatsC1ERKNS_12TestCaseInfoERKNS_6TotalsERKNSt3__112basic_stringIcNS7_11char_traitsIcEENS7_9allocatorIcEEEESF_b, symObjAddr: 0x9FA8, symBinAddr: 0x10000D098, symSize: 0x60 }
  - { offsetInCU: 0xD52FC, offset: 0xD52FC, size: 0x8, addend: 0x0, symName: __ZN5Catch13TestCaseStatsD2Ev, symObjAddr: 0xA008, symBinAddr: 0x10000D0F8, symSize: 0x58 }
  - { offsetInCU: 0xD5328, offset: 0xD5328, size: 0x8, addend: 0x0, symName: __ZN5Catch13TestCaseStatsD1Ev, symObjAddr: 0xA060, symBinAddr: 0x10000D150, symSize: 0x2C }
  - { offsetInCU: 0xD5354, offset: 0xD5354, size: 0x8, addend: 0x0, symName: __ZN5Catch13TestCaseStatsD0Ev, symObjAddr: 0xA08C, symBinAddr: 0x10000D17C, symSize: 0x30 }
  - { offsetInCU: 0xD5380, offset: 0xD5380, size: 0x8, addend: 0x0, symName: __ZN5Catch14TestGroupStatsC2ERKNS_9GroupInfoERKNS_6TotalsEb, symObjAddr: 0xA0BC, symBinAddr: 0x10000D1AC, symSize: 0x78 }
  - { offsetInCU: 0xD53D9, offset: 0xD53D9, size: 0x8, addend: 0x0, symName: __ZN5Catch9GroupInfoC1ERKS0_, symObjAddr: 0xA134, symBinAddr: 0x10000D224, symSize: 0x34 }
  - { offsetInCU: 0xD540F, offset: 0xD540F, size: 0x8, addend: 0x0, symName: __ZN5Catch14TestGroupStatsC1ERKNS_9GroupInfoERKNS_6TotalsEb, symObjAddr: 0xA168, symBinAddr: 0x10000D258, symSize: 0x50 }
  - { offsetInCU: 0xD5468, offset: 0xD5468, size: 0x8, addend: 0x0, symName: __ZN5Catch14TestGroupStatsC2ERKNS_9GroupInfoE, symObjAddr: 0xA1B8, symBinAddr: 0x10000D2A8, symSize: 0x58 }
  - { offsetInCU: 0xD54A3, offset: 0xD54A3, size: 0x8, addend: 0x0, symName: __ZN5Catch6TotalsC1Ev, symObjAddr: 0xA210, symBinAddr: 0x10000D300, symSize: 0x2C }
  - { offsetInCU: 0xD54D0, offset: 0xD54D0, size: 0x8, addend: 0x0, symName: __ZN5Catch14TestGroupStatsC1ERKNS_9GroupInfoE, symObjAddr: 0xA23C, symBinAddr: 0x10000D32C, symSize: 0x34 }
  - { offsetInCU: 0xD550B, offset: 0xD550B, size: 0x8, addend: 0x0, symName: __ZN5Catch14TestGroupStatsD2Ev, symObjAddr: 0xA270, symBinAddr: 0x10000D360, symSize: 0x40 }
  - { offsetInCU: 0xD5537, offset: 0xD5537, size: 0x8, addend: 0x0, symName: __ZN5Catch9GroupInfoD1Ev, symObjAddr: 0xA2B0, symBinAddr: 0x10000D3A0, symSize: 0x2C }
  - { offsetInCU: 0xD5564, offset: 0xD5564, size: 0x8, addend: 0x0, symName: __ZN5Catch14TestGroupStatsD1Ev, symObjAddr: 0xA2DC, symBinAddr: 0x10000D3CC, symSize: 0x2C }
  - { offsetInCU: 0xD5590, offset: 0xD5590, size: 0x8, addend: 0x0, symName: __ZN5Catch14TestGroupStatsD0Ev, symObjAddr: 0xA308, symBinAddr: 0x10000D3F8, symSize: 0x30 }
  - { offsetInCU: 0xD55BC, offset: 0xD55BC, size: 0x8, addend: 0x0, symName: __ZN5Catch12TestRunStatsC2ERKNS_11TestRunInfoERKNS_6TotalsEb, symObjAddr: 0xA338, symBinAddr: 0x10000D428, symSize: 0x78 }
